---
triple:          'arm64-apple-darwin'
binary-path:     '/Users/alexhan/whisper.cpp/build-tvos-device/framework/whisper.framework/whisper'
relocations:
  - { offset: 0x52, size: 0x8, addend: 0x0, symName: __MergedGlobals, symObjAddr: 0x504888, symBinAddr: 0x2160C0, symSize: 0x0 }
  - { offset: 0x13915, size: 0x8, addend: 0x0, symName: __ZNSt3__1L19piecewise_constructE, symObjAddr: 0x3C194, symBinAddr: 0x150844, symSize: 0x0 }
  - { offset: 0x537B5, size: 0x8, addend: 0x0, symName: '__ZNSt3__111__introsortINS_17_ClassicAlgPolicyERZL11whisper_vadP15whisper_contextP13whisper_state19whisper_full_paramsPKfiRNS_6vectorIfNS_9allocatorIfEEEEE3$_0P16vad_time_mappingLb0EEEvT1_SI_T0_NS_15iterator_traitsISI_E15difference_typeEb', symObjAddr: 0x314F4, symBinAddr: 0x354F4, symSize: 0xB60 }
  - { offset: 0x54FDB, size: 0x8, addend: 0x0, symName: '__ZNSt3__127__insertion_sort_incompleteB9nqe210106INS_17_ClassicAlgPolicyERZL11whisper_vadP15whisper_contextP13whisper_state19whisper_full_paramsPKfiRNS_6vectorIfNS_9allocatorIfEEEEE3$_0P16vad_time_mappingEEbT1_SI_T0_', symObjAddr: 0x321D8, symBinAddr: 0x361D8, symSize: 0x37C }
  - { offset: 0x57610, size: 0x8, addend: 0x0, symName: '__ZNSt3__111__introsortINS_17_ClassicAlgPolicyERZ35whisper_lang_auto_detect_with_stateE3$_0P12whisper_pairIdiELb0EEEvT1_S7_T0_NS_15iterator_traitsIS7_E15difference_typeEb', symObjAddr: 0x3470C, symBinAddr: 0x3870C, symSize: 0xE10 }
  - { offset: 0x58E56, size: 0x8, addend: 0x0, symName: '__ZNSt3__127__insertion_sort_incompleteB9nqe210106INS_17_ClassicAlgPolicyERZ35whisper_lang_auto_detect_with_stateE3$_0P12whisper_pairIdiEEEbT1_S7_T0_', symObjAddr: 0x357B4, symBinAddr: 0x397B4, symSize: 0x4D8 }
  - { offset: 0x5D6A8, size: 0x8, addend: 0x0, symName: '__ZNSt3__111__introsortINS_17_ClassicAlgPolicyERZ23whisper_full_with_stateE3$_1PZ23whisper_full_with_stateE14beam_candidateLb0EEEvT1_S6_T0_NS_15iterator_traitsIS6_E15difference_typeEb', symObjAddr: 0x36E2C, symBinAddr: 0x3AE2C, symSize: 0x1BA0 }
  - { offset: 0x63DBC, size: 0x8, addend: 0x0, symName: '__ZNSt3__127__insertion_sort_incompleteB9nqe210106INS_17_ClassicAlgPolicyERZ23whisper_full_with_stateE3$_1PZ23whisper_full_with_stateE14beam_candidateEEbT1_S6_T0_', symObjAddr: 0x38CB8, symBinAddr: 0x3CCB8, symSize: 0x4A0 }
  - { offset: 0x68D82, size: 0x8, addend: 0x0, symName: __ZNSt3__120__throw_out_of_rangeB9nqe210106EPKc, symObjAddr: 0x1B76C, symBinAddr: 0x1F76C, symSize: 0x50 }
  - { offset: 0x68FD6, size: 0x8, addend: 0x0, symName: __ZNSt3__125__throw_bad_function_callB9nqe210106Ev, symObjAddr: 0x1B808, symBinAddr: 0x1F808, symSize: 0x34 }
  - { offset: 0x69430, size: 0x8, addend: 0x0, symName: __ZNSt3__127__tree_balance_after_insertB9nqe210106IPNS_16__tree_node_baseIPvEEEEvT_S5_, symObjAddr: 0x1AAB4, symBinAddr: 0x1EAB4, symSize: 0x1D4 }
  - { offset: 0x6A010, size: 0x8, addend: 0x0, symName: __ZNSt3__113__tree_removeB9nqe210106IPNS_16__tree_node_baseIPvEEEEvT_S5_, symObjAddr: 0x1E6C8, symBinAddr: 0x226C8, symSize: 0x420 }
  - { offset: 0x6EFCA, size: 0x8, addend: 0x0, symName: __ZNSt3__18__rotateB9nqe210106INS_17_ClassicAlgPolicyENS_11__wrap_iterIPiEES4_EENS_4pairIT0_S6_EES6_S6_T1_, symObjAddr: 0x36564, symBinAddr: 0x3A564, symSize: 0x274 }
  - { offset: 0x6FC41, size: 0x8, addend: 0x0, symName: __ZNSt3__111regex_matchB9nqe210106INS_11__wrap_iterIPKcEEcNS_12regex_traitsIcEEEEbT_S7_RKNS_11basic_regexIT0_T1_EENS_15regex_constants15match_flag_typeE, symObjAddr: 0x2EB14, symBinAddr: 0x32B14, symSize: 0x120 }
  - { offset: 0x7281F, size: 0x8, addend: 0x0, symName: __ZNSt3__120__throw_length_errorB9nqe210106EPKc, symObjAddr: 0x1B274, symBinAddr: 0x1F274, symSize: 0x50 }
  - { offset: 0x736D0, size: 0x8, addend: 0x0, symName: __ZNSt3__114__thread_proxyB9nqe210106INS_5tupleIJNS_10unique_ptrINS_15__thread_structENS_14default_deleteIS3_EEEEPFviPKfRKNS_6vectorIfNS_9allocatorIfEEEEiiiiRK15whisper_filtersR11whisper_melEiS8_NS_17reference_wrapperISD_EExiiiNSM_ISG_EENSM_ISI_EEEEEEEPvSR_, symObjAddr: 0x1DBCC, symBinAddr: 0x21BCC, symSize: 0x94 }
  - { offset: 0x73B1D, size: 0x8, addend: 0x0, symName: __ZNSt3__119__throw_regex_errorB9nqe210106ILNS_15regex_constants10error_typeE17EEEvv, symObjAddr: 0x1FA8C, symBinAddr: 0x23A8C, symSize: 0x4C }
  - { offset: 0x73F7E, size: 0x8, addend: 0x0, symName: __ZNSt3__119__throw_regex_errorB9nqe210106ILNS_15regex_constants10error_typeE14EEEvv, symObjAddr: 0x20324, symBinAddr: 0x24324, symSize: 0x4C }
  - { offset: 0x74060, size: 0x8, addend: 0x0, symName: __ZNSt3__119__throw_regex_errorB9nqe210106ILNS_15regex_constants10error_typeE15EEEvv, symObjAddr: 0x274DC, symBinAddr: 0x2B4DC, symSize: 0x4C }
  - { offset: 0x74338, size: 0x8, addend: 0x0, symName: __ZNSt3__119__throw_regex_errorB9nqe210106ILNS_15regex_constants10error_typeE6EEEvv, symObjAddr: 0x21020, symBinAddr: 0x25020, symSize: 0x4C }
  - { offset: 0x7435E, size: 0x8, addend: 0x0, symName: __ZNSt3__119__throw_regex_errorB9nqe210106ILNS_15regex_constants10error_typeE11EEEvv, symObjAddr: 0x228FC, symBinAddr: 0x268FC, symSize: 0x4C }
  - { offset: 0x743A2, size: 0x8, addend: 0x0, symName: __ZNSt3__119__throw_regex_errorB9nqe210106ILNS_15regex_constants10error_typeE7EEEvv, symObjAddr: 0x26F20, symBinAddr: 0x2AF20, symSize: 0x4C }
  - { offset: 0x743C8, size: 0x8, addend: 0x0, symName: __ZNSt3__119__throw_regex_errorB9nqe210106ILNS_15regex_constants10error_typeE8EEEvv, symObjAddr: 0x26ED4, symBinAddr: 0x2AED4, symSize: 0x4C }
  - { offset: 0x74593, size: 0x8, addend: 0x0, symName: __ZNSt3__119__throw_regex_errorB9nqe210106ILNS_15regex_constants10error_typeE12EEEvv, symObjAddr: 0x21DA8, symBinAddr: 0x25DA8, symSize: 0x4C }
  - { offset: 0x745B9, size: 0x8, addend: 0x0, symName: __ZNSt3__119__throw_regex_errorB9nqe210106ILNS_15regex_constants10error_typeE16EEEvv, symObjAddr: 0x21DF4, symBinAddr: 0x25DF4, symSize: 0x4C }
  - { offset: 0x74F09, size: 0x8, addend: 0x0, symName: __ZNSt3__119__throw_regex_errorB9nqe210106ILNS_15regex_constants10error_typeE4EEEvv, symObjAddr: 0x23254, symBinAddr: 0x27254, symSize: 0x4C }
  - { offset: 0x74F2F, size: 0x8, addend: 0x0, symName: __ZNSt3__119__throw_regex_errorB9nqe210106ILNS_15regex_constants10error_typeE3EEEvv, symObjAddr: 0x22A54, symBinAddr: 0x26A54, symSize: 0x4C }
  - { offset: 0x74F55, size: 0x8, addend: 0x0, symName: __ZNSt3__119__throw_regex_errorB9nqe210106ILNS_15regex_constants10error_typeE5EEEvv, symObjAddr: 0x24D44, symBinAddr: 0x28D44, symSize: 0x4C }
  - { offset: 0x756F2, size: 0x8, addend: 0x0, symName: __ZNSt3__119__throw_regex_errorB9nqe210106ILNS_15regex_constants10error_typeE1EEEvv, symObjAddr: 0x25FFC, symBinAddr: 0x29FFC, symSize: 0x4C }
  - { offset: 0x75718, size: 0x8, addend: 0x0, symName: __ZNSt3__119__throw_regex_errorB9nqe210106ILNS_15regex_constants10error_typeE2EEEvv, symObjAddr: 0x265E0, symBinAddr: 0x2A5E0, symSize: 0x4C }
  - { offset: 0x7577A, size: 0x8, addend: 0x0, symName: __ZNSt3__119__throw_regex_errorB9nqe210106ILNS_15regex_constants10error_typeE9EEEvv, symObjAddr: 0x26B9C, symBinAddr: 0x2AB9C, symSize: 0x4C }
  - { offset: 0x77853, size: 0x8, addend: 0x0, symName: __ZNSt3__135__uninitialized_allocator_copy_implB9nqe210106INS_9allocatorINS_6vectorI23whisper_grammar_elementNS1_IS3_EEEEEEPS5_S7_S7_EET2_RT_T0_T1_S8_, symObjAddr: 0x3055C, symBinAddr: 0x3455C, symSize: 0xF8 }
  - { offset: 0x77D95, size: 0x8, addend: 0x0, symName: __ZNSt3__135__uninitialized_allocator_copy_implB9nqe210106INS_9allocatorINS_6vectorIPK23whisper_grammar_elementNS1_IS5_EEEEEEPS7_S9_S9_EET2_RT_T0_T1_SA_, symObjAddr: 0x30744, symBinAddr: 0x34744, symSize: 0xF8 }
  - { offset: 0x7953F, size: 0x8, addend: 0x0, symName: '__ZNSt3__17__sort5B9nqe210106INS_17_ClassicAlgPolicyERZL11whisper_vadP15whisper_contextP13whisper_state19whisper_full_paramsPKfiRNS_6vectorIfNS_9allocatorIfEEEEE3$_0P16vad_time_mappingLi0EEEvT1_SI_SI_SI_SI_T0_', symObjAddr: 0x32054, symBinAddr: 0x36054, symSize: 0x184 }
  - { offset: 0x7AE28, size: 0x8, addend: 0x0, symName: '__ZNSt3__17__sort5B9nqe210106INS_17_ClassicAlgPolicyERZ35whisper_lang_auto_detect_with_stateE3$_0P12whisper_pairIdiELi0EEEvT1_S7_S7_S7_S7_T0_', symObjAddr: 0x3551C, symBinAddr: 0x3951C, symSize: 0x298 }
  - { offset: 0x7C64F, size: 0x8, addend: 0x0, symName: '__ZNSt3__114__thread_proxyB9nqe210106INS_5tupleIJNS_10unique_ptrINS_15__thread_structENS_14default_deleteIS3_EEEEZ23whisper_full_with_stateE3$_0EEEEEPvS9_', symObjAddr: 0x36D6C, symBinAddr: 0x3AD6C, symSize: 0x78 }
  - { offset: 0x7D103, size: 0x8, addend: 0x0, symName: '__ZNSt3__17__sort3B9nqe210106INS_17_ClassicAlgPolicyERZ23whisper_full_with_stateE3$_1PZ23whisper_full_with_stateE14beam_candidateLi0EEEbT1_S6_S6_T0_', symObjAddr: 0x389CC, symBinAddr: 0x3C9CC, symSize: 0x114 }
  - { offset: 0x7D29D, size: 0x8, addend: 0x0, symName: __ZNSt3__19iter_swapB9nqe210106IPZ23whisper_full_with_stateE14beam_candidateS2_EEvT_T0_, symObjAddr: 0x39158, symBinAddr: 0x3D158, symSize: 0x1FC }
  - { offset: 0x7DBAB, size: 0x8, addend: 0x0, symName: '__ZNSt3__17__sort5B9nqe210106INS_17_ClassicAlgPolicyERZ23whisper_full_with_stateE3$_1PZ23whisper_full_with_stateE14beam_candidateLi0EEEvT1_S6_S6_S6_S6_T0_', symObjAddr: 0x38AE0, symBinAddr: 0x3CAE0, symSize: 0x1D8 }
  - { offset: 0x7DF1F, size: 0x8, addend: 0x0, symName: '__ZNSt3__114__thread_proxyB9nqe210106INS_5tupleIJNS_10unique_ptrINS_15__thread_structENS_14default_deleteIS3_EEEEZ23whisper_full_with_stateE3$_2EEEEEPvS9_', symObjAddr: 0x39354, symBinAddr: 0x3D354, symSize: 0x134 }
  - { offset: 0x7E6FF, size: 0x8, addend: 0x0, symName: __ZNSt3__114__thread_proxyB9nqe210106INS_5tupleIJNS_10unique_ptrINS_15__thread_structENS_14default_deleteIS3_EEEEPFiP15whisper_contextP13whisper_state19whisper_full_paramsPKfiES8_SA_SB_SD_iEEEEEPvSH_, symObjAddr: 0x3960C, symBinAddr: 0x3D60C, symSize: 0xB0 }
  - { offset: 0x7EB37, size: 0x8, addend: 0x0, symName: '__ZNSt3__114__thread_proxyB9nqe210106INS_5tupleIJNS_10unique_ptrINS_15__thread_structENS_14default_deleteIS3_EEEEZ24whisper_bench_memcpy_strE3$_0iEEEEEPvS9_', symObjAddr: 0x39704, symBinAddr: 0x3D704, symSize: 0x120 }
  - { offset: 0x8120C, size: 0x8, addend: 0x0, symName: __ZSt28__throw_bad_array_new_lengthB9nqe210106v, symObjAddr: 0x1AA8C, symBinAddr: 0x1EA8C, symSize: 0x28 }
  - { offset: 0x81991, size: 0x8, addend: 0x0, symName: __MergedGlobals, symObjAddr: 0x504888, symBinAddr: 0x2160C0, symSize: 0x0 }
  - { offset: 0x81E78, size: 0x8, addend: 0x0, symName: __MergedGlobals, symObjAddr: 0x504888, symBinAddr: 0x2160C0, symSize: 0x0 }
  - { offset: 0x8218E, size: 0x8, addend: 0x0, symName: __MergedGlobals, symObjAddr: 0x504888, symBinAddr: 0x2160C0, symSize: 0x0 }
  - { offset: 0x82423, size: 0x8, addend: 0x0, symName: __MergedGlobals, symObjAddr: 0x504888, symBinAddr: 0x2160C0, symSize: 0x0 }
  - { offset: 0x82836, size: 0x8, addend: 0x0, symName: __MergedGlobals, symObjAddr: 0x504888, symBinAddr: 0x2160C0, symSize: 0x0 }
  - { offset: 0x82AFA, size: 0x8, addend: 0x0, symName: __MergedGlobals, symObjAddr: 0x504888, symBinAddr: 0x2160C0, symSize: 0x0 }
  - { offset: 0x82E7A, size: 0x8, addend: 0x0, symName: __ZN12_GLOBAL__N_112global_cacheE, symObjAddr: 0x5035C0, symBinAddr: 0x214DF8, symSize: 0x0 }
  - { offset: 0x82F26, size: 0x8, addend: 0x0, symName: _whisper_print_system_info, symObjAddr: 0x807C, symBinAddr: 0xC07C, symSize: 0x394 }
  - { offset: 0x82F4E, size: 0x8, addend: 0x0, symName: __MergedGlobals, symObjAddr: 0x504888, symBinAddr: 0x2160C0, symSize: 0x0 }
  - { offset: 0x83BA9, size: 0x8, addend: 0x0, symName: __MergedGlobals, symObjAddr: 0x504888, symBinAddr: 0x2160C0, symSize: 0x0 }
  - { offset: 0x83CE0, size: 0x8, addend: 0x0, symName: _whisper_bench_memcpy_str, symObjAddr: 0x18E04, symBinAddr: 0x1CE04, symSize: 0x127C }
  - { offset: 0x83D08, size: 0x8, addend: 0x0, symName: __MergedGlobals, symObjAddr: 0x504888, symBinAddr: 0x2160C0, symSize: 0x0 }
  - { offset: 0x84CDF, size: 0x8, addend: 0x0, symName: _whisper_bench_ggml_mul_mat_str, symObjAddr: 0x1A0A8, symBinAddr: 0x1E0A8, symSize: 0x6E0 }
  - { offset: 0x84D07, size: 0x8, addend: 0x0, symName: __MergedGlobals, symObjAddr: 0x504888, symBinAddr: 0x2160C0, symSize: 0x0 }
  - { offset: 0x85CDA, size: 0x8, addend: 0x0, symName: __ZL16g_aheads_tiny_en, symObjAddr: 0x3BD24, symBinAddr: 0x1503D4, symSize: 0x0 }
  - { offset: 0x85D03, size: 0x8, addend: 0x0, symName: __ZL13g_aheads_tiny, symObjAddr: 0x3BD64, symBinAddr: 0x150414, symSize: 0x0 }
  - { offset: 0x85D2C, size: 0x8, addend: 0x0, symName: __ZL16g_aheads_base_en, symObjAddr: 0x3BD94, symBinAddr: 0x150444, symSize: 0x0 }
  - { offset: 0x85D55, size: 0x8, addend: 0x0, symName: __ZL13g_aheads_base, symObjAddr: 0x3BDBC, symBinAddr: 0x15046C, symSize: 0x0 }
  - { offset: 0x85D70, size: 0x8, addend: 0x0, symName: __ZL17g_aheads_small_en, symObjAddr: 0x3BDFC, symBinAddr: 0x1504AC, symSize: 0x0 }
  - { offset: 0x85D99, size: 0x8, addend: 0x0, symName: __ZL14g_aheads_small, symObjAddr: 0x3BE94, symBinAddr: 0x150544, symSize: 0x0 }
  - { offset: 0x85DC2, size: 0x8, addend: 0x0, symName: __ZL18g_aheads_medium_en, symObjAddr: 0x3BEE4, symBinAddr: 0x150594, symSize: 0x0 }
  - { offset: 0x85DEB, size: 0x8, addend: 0x0, symName: __ZL15g_aheads_medium, symObjAddr: 0x3BF74, symBinAddr: 0x150624, symSize: 0x0 }
  - { offset: 0x85E06, size: 0x8, addend: 0x0, symName: __ZL17g_aheads_large_v1, symObjAddr: 0x3BFA4, symBinAddr: 0x150654, symSize: 0x0 }
  - { offset: 0x85E2F, size: 0x8, addend: 0x0, symName: __ZL17g_aheads_large_v2, symObjAddr: 0x3BFEC, symBinAddr: 0x15069C, symSize: 0x0 }
  - { offset: 0x85E58, size: 0x8, addend: 0x0, symName: __ZL17g_aheads_large_v3, symObjAddr: 0x3C0A4, symBinAddr: 0x150754, symSize: 0x0 }
  - { offset: 0x85E73, size: 0x8, addend: 0x0, symName: __ZL23g_aheads_large_v3_turbo, symObjAddr: 0x3C0F4, symBinAddr: 0x1507A4, symSize: 0x0 }
  - { offset: 0x85F2E, size: 0x8, addend: 0x0, symName: __ZTVNSt3__117bad_function_callE, symObjAddr: 0x41990, symBinAddr: 0x180D30, symSize: 0x0 }
  - { offset: 0x861D7, size: 0x8, addend: 0x0, symName: __ZL27whisper_build_graph_encoderR15whisper_contextR13whisper_state, symObjAddr: 0x1DE40, symBinAddr: 0x21E40, symSize: 0x5C8 }
  - { offset: 0x86BC6, size: 0x8, addend: 0x0, symName: __ZL25whisper_build_graph_crossR15whisper_contextR13whisper_state, symObjAddr: 0x1E408, symBinAddr: 0x22408, symSize: 0x2C0 }
  - { offset: 0x86BD8, size: 0x8, addend: 0x0, symName: __ZTVNSt3__111__end_stateIcEE, symObjAddr: 0x419B8, symBinAddr: 0x180D58, symSize: 0x0 }
  - { offset: 0x86E58, size: 0x8, addend: 0x0, symName: __ZTVNSt3__120__shared_ptr_pointerIPNS_13__empty_stateIcEENS_10shared_ptrIS2_E27__shared_ptr_default_deleteIS2_S2_EENS_9allocatorIS2_EEEE, symObjAddr: 0x41A10, symBinAddr: 0x180DB0, symSize: 0x0 }
  - { offset: 0x86F66, size: 0x8, addend: 0x0, symName: __ZTVNSt3__113__empty_stateIcEE, symObjAddr: 0x41A60, symBinAddr: 0x180E00, symSize: 0x0 }
  - { offset: 0x86F7B, size: 0x8, addend: 0x0, symName: __ZTVNSt3__116__owns_one_stateIcEE, symObjAddr: 0x41AD8, symBinAddr: 0x180E78, symSize: 0x0 }
  - { offset: 0x86F90, size: 0x8, addend: 0x0, symName: __ZTVNSt3__120__l_anchor_multilineIcEE, symObjAddr: 0x41B08, symBinAddr: 0x180EA8, symSize: 0x0 }
  - { offset: 0x86FBC, size: 0x8, addend: 0x0, symName: __ZTVNSt3__120__r_anchor_multilineIcEE, symObjAddr: 0x41B50, symBinAddr: 0x180EF0, symSize: 0x0 }
  - { offset: 0x86FE8, size: 0x8, addend: 0x0, symName: __ZTVNSt3__115__word_boundaryIcNS_12regex_traitsIcEEEE, symObjAddr: 0x41B98, symBinAddr: 0x180F38, symSize: 0x0 }
  - { offset: 0x870CB, size: 0x8, addend: 0x0, symName: __ZTVNSt3__111__lookaheadIcNS_12regex_traitsIcEEEE, symObjAddr: 0x41BE0, symBinAddr: 0x180F80, symSize: 0x0 }
  - { offset: 0x873D7, size: 0x8, addend: 0x0, symName: __ZTVNSt3__123__match_any_but_newlineIcEE, symObjAddr: 0x41C28, symBinAddr: 0x180FC8, symSize: 0x0 }
  - { offset: 0x87403, size: 0x8, addend: 0x0, symName: __ZTVNSt3__118__match_char_icaseIcNS_12regex_traitsIcEEEE, symObjAddr: 0x41C70, symBinAddr: 0x181010, symSize: 0x0 }
  - { offset: 0x8743B, size: 0x8, addend: 0x0, symName: __ZTVNSt3__120__match_char_collateIcNS_12regex_traitsIcEEEE, symObjAddr: 0x41CB8, symBinAddr: 0x181058, symSize: 0x0 }
  - { offset: 0x87473, size: 0x8, addend: 0x0, symName: __ZTVNSt3__112__match_charIcEE, symObjAddr: 0x41D00, symBinAddr: 0x1810A0, symSize: 0x0 }
  - { offset: 0x874AB, size: 0x8, addend: 0x0, symName: __ZTVNSt3__116__back_ref_icaseIcNS_12regex_traitsIcEEEE, symObjAddr: 0x41D48, symBinAddr: 0x1810E8, symSize: 0x0 }
  - { offset: 0x874D7, size: 0x8, addend: 0x0, symName: __ZTVNSt3__118__back_ref_collateIcNS_12regex_traitsIcEEEE, symObjAddr: 0x41D90, symBinAddr: 0x181130, symSize: 0x0 }
  - { offset: 0x87503, size: 0x8, addend: 0x0, symName: __ZTVNSt3__110__back_refIcEE, symObjAddr: 0x41DD8, symBinAddr: 0x181178, symSize: 0x0 }
  - { offset: 0x8752F, size: 0x8, addend: 0x0, symName: __ZTVNSt3__120__bracket_expressionIcNS_12regex_traitsIcEEEE, symObjAddr: 0x41E20, symBinAddr: 0x1811C0, symSize: 0x0 }
  - { offset: 0x87544, size: 0x8, addend: 0x0, symName: __ZTVNSt3__128__begin_marked_subexpressionIcEE, symObjAddr: 0x41E68, symBinAddr: 0x181208, symSize: 0x0 }
  - { offset: 0x87570, size: 0x8, addend: 0x0, symName: __ZTVNSt3__126__end_marked_subexpressionIcEE, symObjAddr: 0x41EB0, symBinAddr: 0x181250, symSize: 0x0 }
  - { offset: 0x8759C, size: 0x8, addend: 0x0, symName: __ZTVNSt3__16__loopIcEE, symObjAddr: 0x41EF8, symBinAddr: 0x181298, symSize: 0x0 }
  - { offset: 0x875E5, size: 0x8, addend: 0x0, symName: __ZTVNSt3__117__owns_two_statesIcEE, symObjAddr: 0x41F58, symBinAddr: 0x1812F8, symSize: 0x0 }
  - { offset: 0x875FA, size: 0x8, addend: 0x0, symName: __ZTVNSt3__117__repeat_one_loopIcEE, symObjAddr: 0x41F88, symBinAddr: 0x181328, symSize: 0x0 }
  - { offset: 0x87626, size: 0x8, addend: 0x0, symName: __ZTVNSt3__111__alternateIcEE, symObjAddr: 0x41FD0, symBinAddr: 0x181370, symSize: 0x0 }
  - { offset: 0x87652, size: 0x8, addend: 0x0, symName: __ZTVNSt3__121__empty_non_own_stateIcEE, symObjAddr: 0x42018, symBinAddr: 0x1813B8, symSize: 0x0 }
  - { offset: 0x8767E, size: 0x8, addend: 0x0, symName: __ZTVNSt3__111__match_anyIcEE, symObjAddr: 0x42060, symBinAddr: 0x181400, symSize: 0x0 }
  - { offset: 0x876B0, size: 0x8, addend: 0x0, symName: '__ZTVNSt3__110__function6__funcIZL24whisper_vad_init_contextP19whisper_vad_contextE3$_0FP11ggml_cgraphvEEE', symObjAddr: 0x420A8, symBinAddr: 0x181448, symSize: 0x0 }
  - { offset: 0x88424, size: 0x8, addend: 0x0, symName: __ZL11decode_utf8PKc20whisper_partial_utf8, symObjAddr: 0x2EC34, symBinAddr: 0x32C34, symSize: 0x37C }
  - { offset: 0x88450, size: 0x8, addend: 0x0, symName: __ZZL11decode_utf8PKc20whisper_partial_utf8E6lookup, symObjAddr: 0x3C6BC, symBinAddr: 0x150D6C, symSize: 0x0 }
  - { offset: 0x892B3, size: 0x8, addend: 0x0, symName: __ZL7g_state.0, symObjAddr: 0x42360, symBinAddr: 0x1842C0, symSize: 0x0 }
  - { offset: 0x892BE, size: 0x8, addend: 0x0, symName: __ZL7g_state.1, symObjAddr: 0x504880, symBinAddr: 0x2160B8, symSize: 0x0 }
  - { offset: 0x89350, size: 0x8, addend: 0x0, symName: '__ZTVNSt3__110__function6__funcIZ18whisper_init_stateE3$_0FP11ggml_cgraphvEEE', symObjAddr: 0x42138, symBinAddr: 0x1814D8, symSize: 0x0 }
  - { offset: 0x8935E, size: 0x8, addend: 0x0, symName: _whisper_init_state, symObjAddr: 0x218, symBinAddr: 0x4218, symSize: 0x1290 }
  - { offset: 0x8F6C9, size: 0x8, addend: 0x0, symName: '__ZTVNSt3__110__function6__funcIZ18whisper_init_stateE3$_1FP11ggml_cgraphvEEE', symObjAddr: 0x421B8, symBinAddr: 0x181558, symSize: 0x0 }
  - { offset: 0x8F700, size: 0x8, addend: 0x0, symName: '__ZTVNSt3__110__function6__funcIZ18whisper_init_stateE3$_2FP11ggml_cgraphvEEE', symObjAddr: 0x42238, symBinAddr: 0x1815D8, symSize: 0x0 }
  - { offset: 0x8F737, size: 0x8, addend: 0x0, symName: '__ZTVNSt3__110__function6__funcIZ18whisper_init_stateE3$_3FP11ggml_cgraphvEEE', symObjAddr: 0x422B8, symBinAddr: 0x181658, symSize: 0x0 }
  - { offset: 0x8F767, size: 0x8, addend: 0x0, symName: _whisper_vad_segments_from_probs, symObjAddr: 0xB3CC, symBinAddr: 0xF3CC, symSize: 0xA90 }
  - { offset: 0x91572, size: 0x8, addend: 0x0, symName: _whisper_init_from_buffer_with_params_no_state, symObjAddr: 0x45BC, symBinAddr: 0x85BC, symSize: 0x88 }
  - { offset: 0x9273C, size: 0x8, addend: 0x0, symName: _whisper_full_with_state, symObjAddr: 0xC334, symBinAddr: 0x10334, symSize: 0x6E40 }
  - { offset: 0xAAB3D, size: 0x8, addend: 0x0, symName: __ZNSt3__13mapI10asr_systemNS0_I10asr_tensorPKcNS_4lessIS2_EENS_9allocatorINS_4pairIKS2_S4_EEEEEENS5_IS1_EENS7_INS8_IKS1_SC_EEEEED1B9nqe210106Ev, symObjAddr: 0x0, symBinAddr: 0x4000, symSize: 0x28 }
  - { offset: 0xAABFF, size: 0x8, addend: 0x0, symName: __ZNSt3__16__treeINS_12__value_typeI10asr_systemNS_3mapI10asr_tensorPKcNS_4lessIS4_EENS_9allocatorINS_4pairIKS4_S6_EEEEEEEENS_19__map_value_compareIS2_NSA_IKS2_SE_EENS7_IS2_EELb1EEENS9_ISI_EEE7destroyEPNS_11__tree_nodeISF_PvEE, symObjAddr: 0x32D90, symBinAddr: 0x36D90, symSize: 0x50 }
  - { offset: 0xAAE6C, size: 0x8, addend: 0x0, symName: __ZNSt3__13mapI10asr_tensor7ggml_opNS_4lessIS1_EENS_9allocatorINS_4pairIKS1_S2_EEEEED1B9nqe210106Ev, symObjAddr: 0x28, symBinAddr: 0x4028, symSize: 0x28 }
  - { offset: 0xAAF2E, size: 0x8, addend: 0x0, symName: __ZNSt3__16__treeINS_12__value_typeI10asr_tensor7ggml_opEENS_19__map_value_compareIS2_NS_4pairIKS2_S3_EENS_4lessIS2_EELb1EEENS_9allocatorIS8_EEE7destroyEPNS_11__tree_nodeIS4_PvEE, symObjAddr: 0x32F58, symBinAddr: 0x36F58, symSize: 0x44 }
  - { offset: 0xAB0B2, size: 0x8, addend: 0x0, symName: __ZNSt3__13mapI10vad_tensor7ggml_opNS_4lessIS1_EENS_9allocatorINS_4pairIKS1_S2_EEEEED1B9nqe210106Ev, symObjAddr: 0x50, symBinAddr: 0x4050, symSize: 0x28 }
  - { offset: 0xAB174, size: 0x8, addend: 0x0, symName: __ZNSt3__16__treeINS_12__value_typeI10vad_tensor7ggml_opEENS_19__map_value_compareIS2_NS_4pairIKS2_S3_EENS_4lessIS2_EELb1EEENS_9allocatorIS8_EEE7destroyEPNS_11__tree_nodeIS4_PvEE, symObjAddr: 0x33114, symBinAddr: 0x37114, symSize: 0x44 }
  - { offset: 0xAB2F8, size: 0x8, addend: 0x0, symName: __ZNSt3__13mapI10vad_tensorPKcNS_4lessIS1_EENS_9allocatorINS_4pairIKS1_S3_EEEEED1B9nqe210106Ev, symObjAddr: 0x78, symBinAddr: 0x4078, symSize: 0x28 }
  - { offset: 0xAB3BA, size: 0x8, addend: 0x0, symName: __ZNSt3__16__treeINS_12__value_typeI10vad_tensorPKcEENS_19__map_value_compareIS2_NS_4pairIKS2_S4_EENS_4lessIS2_EELb1EEENS_9allocatorIS9_EEE7destroyEPNS_11__tree_nodeIS5_PvEE, symObjAddr: 0x332D0, symBinAddr: 0x372D0, symSize: 0x44 }
  - { offset: 0xAB53E, size: 0x8, addend: 0x0, symName: __ZNSt3__13mapI7e_modelNS_12basic_stringIcNS_11char_traitsIcEENS_9allocatorIcEEEENS_4lessIS1_EENS5_INS_4pairIKS1_S7_EEEEED1B9nqe210106Ev, symObjAddr: 0xA0, symBinAddr: 0x40A0, symSize: 0x28 }
  - { offset: 0xAB600, size: 0x8, addend: 0x0, symName: __ZNSt3__16__treeINS_12__value_typeI7e_modelNS_12basic_stringIcNS_11char_traitsIcEENS_9allocatorIcEEEEEENS_19__map_value_compareIS2_NS_4pairIKS2_S8_EENS_4lessIS2_EELb1EEENS6_ISD_EEE7destroyEPNS_11__tree_nodeIS9_PvEE, symObjAddr: 0x3360C, symBinAddr: 0x3760C, symSize: 0x60 }
  - { offset: 0xAB9C8, size: 0x8, addend: 0x0, symName: __ZNSt3__112basic_stringIcNS_11char_traitsIcEENS_9allocatorIcEEEC1B9nqe210106ILi0EEEPKc, symObjAddr: 0xC8, symBinAddr: 0x40C8, symSize: 0xA8 }
  - { offset: 0xABC46, size: 0x8, addend: 0x0, symName: __ZNSt3__14pairIKNS_12basic_stringIcNS_11char_traitsIcEENS_9allocatorIcEEEENS0_IiS6_EEED1Ev, symObjAddr: 0x170, symBinAddr: 0x4170, symSize: 0x58 }
  - { offset: 0xABC63, size: 0x8, addend: 0x0, symName: __ZNSt3__112basic_stringIcNS_11char_traitsIcEENS_9allocatorIcEEE20__throw_length_errorB9nqe210106Ev, symObjAddr: 0x1DCE4, symBinAddr: 0x21CE4, symSize: 0x14 }
  - { offset: 0xABC7B, size: 0x8, addend: 0x0, symName: __ZL24whisper_build_graph_convR15whisper_contextR13whisper_state, symObjAddr: 0x1DCF8, symBinAddr: 0x21CF8, symSize: 0x148 }
  - { offset: 0xABDB2, size: 0x8, addend: 0x0, symName: __ZNSt3__14pairIKNS_12basic_stringIcNS_11char_traitsIcEENS_9allocatorIcEEEENS0_IiS6_EEED1Ev, symObjAddr: 0x170, symBinAddr: 0x4170, symSize: 0x58 }
  - { offset: 0xAC063, size: 0x8, addend: 0x0, symName: __ZNSt3__13mapINS_12basic_stringIcNS_11char_traitsIcEENS_9allocatorIcEEEENS_4pairIiS6_EENS_4lessIS6_EENS4_INS7_IKS6_S8_EEEEED1B9nqe210106Ev, symObjAddr: 0x1C8, symBinAddr: 0x41C8, symSize: 0x28 }
  - { offset: 0xAC125, size: 0x8, addend: 0x0, symName: __ZNSt3__16__treeINS_12__value_typeINS_12basic_stringIcNS_11char_traitsIcEENS_9allocatorIcEEEENS_4pairIiS7_EEEENS_19__map_value_compareIS7_NS8_IKS7_S9_EENS_4lessIS7_EELb1EEENS5_ISD_EEE7destroyEPNS_11__tree_nodeISA_PvEE, symObjAddr: 0x33D38, symBinAddr: 0x37D38, symSize: 0x78 }
  - { offset: 0xAC4F5, size: 0x8, addend: 0x0, symName: __ZNSt3__13mapI30whisper_alignment_heads_preset14whisper_aheadsNS_4lessIS1_EENS_9allocatorINS_4pairIKS1_S2_EEEEED1B9nqe210106Ev, symObjAddr: 0x1F0, symBinAddr: 0x41F0, symSize: 0x28 }
  - { offset: 0xAC5B7, size: 0x8, addend: 0x0, symName: __ZNSt3__16__treeINS_12__value_typeI30whisper_alignment_heads_preset14whisper_aheadsEENS_19__map_value_compareIS2_NS_4pairIKS2_S3_EENS_4lessIS2_EELb1EEENS_9allocatorIS8_EEE7destroyEPNS_11__tree_nodeIS4_PvEE, symObjAddr: 0x33F34, symBinAddr: 0x37F34, symSize: 0x44 }
  - { offset: 0xAE11D, size: 0x8, addend: 0x0, symName: __ZN13whisper_stateC2Ev, symObjAddr: 0x1ACCC, symBinAddr: 0x1ECCC, symSize: 0x440 }
  - { offset: 0xAE61E, size: 0x8, addend: 0x0, symName: __ZL20whisper_backend_initRK22whisper_context_params, symObjAddr: 0x14A8, symBinAddr: 0x54A8, symSize: 0x498 }
  - { offset: 0xAF5AB, size: 0x8, addend: 0x0, symName: __ZL21whisper_kv_cache_initR16whisper_kv_cacheP12ggml_backend9ggml_typexxi, symObjAddr: 0x1B48, symBinAddr: 0x5B48, symSize: 0x278 }
  - { offset: 0xAFFDE, size: 0x8, addend: 0x0, symName: __ZL19aheads_masks_nbytesR20whisper_aheads_masks, symObjAddr: 0x1DC0, symBinAddr: 0x5DC0, symSize: 0x6C }
  - { offset: 0xB0007, size: 0x8, addend: 0x0, symName: __ZL20whisper_log_internal14ggml_log_levelPKcz, symObjAddr: 0x1940, symBinAddr: 0x5940, symSize: 0xF4 }
  - { offset: 0xB0117, size: 0x8, addend: 0x0, symName: _whisper_free_state, symObjAddr: 0x1A34, symBinAddr: 0x5A34, symSize: 0x114 }
  - { offset: 0xB03DD, size: 0x8, addend: 0x0, symName: __ZL28get_alignment_heads_by_layerRK22whisper_context_paramsiii, symObjAddr: 0x1B4CC, symBinAddr: 0x1F4CC, symSize: 0x2A0 }
  - { offset: 0xB0EB1, size: 0x8, addend: 0x0, symName: __ZL19aheads_masks_nbytesR20whisper_aheads_masks, symObjAddr: 0x1DC0, symBinAddr: 0x5DC0, symSize: 0x6C }
  - { offset: 0xB0F4C, size: 0x8, addend: 0x0, symName: __ZL24whisper_sched_graph_initR13whisper_schedNSt3__16vectorIP12ggml_backendNS1_9allocatorIS4_EEEEONS1_8functionIFP11ggml_cgraphvEEE, symObjAddr: 0x1E2C, symBinAddr: 0x5E2C, symSize: 0x180 }
  - { offset: 0xB158C, size: 0x8, addend: 0x0, symName: __ZNSt3__16vectorIP12ggml_backendNS_9allocatorIS2_EEEC1B9nqe210106ERKS5_, symObjAddr: 0x1FAC, symBinAddr: 0x5FAC, symSize: 0x88 }
  - { offset: 0xB15DA, size: 0x8, addend: 0x0, symName: __ZL18whisper_sched_sizeR13whisper_sched, symObjAddr: 0x2034, symBinAddr: 0x6034, symSize: 0x74 }
  - { offset: 0xB168E, size: 0x8, addend: 0x0, symName: __ZNSt3__16vectorIP12ggml_backendNS_9allocatorIS2_EEEC1B9nqe210106ERKS5_, symObjAddr: 0x1FAC, symBinAddr: 0x5FAC, symSize: 0x88 }
  - { offset: 0xB1AC3, size: 0x8, addend: 0x0, symName: __ZNSt3__16vectorIP11ggml_tensorNS_9allocatorIS2_EEE20__throw_length_errorB9nqe210106Ev, symObjAddr: 0x1B7F4, symBinAddr: 0x1F7F4, symSize: 0x14 }
  - { offset: 0xB1ADB, size: 0x8, addend: 0x0, symName: __ZNSt3__125__throw_bad_function_callB9nqe210106Ev, symObjAddr: 0x1B808, symBinAddr: 0x1F808, symSize: 0x34 }
  - { offset: 0xB1AE6, size: 0x8, addend: 0x0, symName: __ZNSt3__16vectorIP12ggml_backendNS_9allocatorIS2_EEE20__throw_length_errorB9nqe210106Ev, symObjAddr: 0x1B260, symBinAddr: 0x1F260, symSize: 0x14 }
  - { offset: 0xB1AFE, size: 0x8, addend: 0x0, symName: __ZNSt3__120__throw_length_errorB9nqe210106EPKc, symObjAddr: 0x1B274, symBinAddr: 0x1F274, symSize: 0x50 }
  - { offset: 0xB1B09, size: 0x8, addend: 0x0, symName: __ZNSt3__16vectorIfNS_9allocatorIfEEE20__throw_length_errorB9nqe210106Ev, symObjAddr: 0x32918, symBinAddr: 0x36918, symSize: 0x14 }
  - { offset: 0xB1B21, size: 0x8, addend: 0x0, symName: __ZNSt3__13mapI10asr_tensorPKcNS_4lessIS1_EENS_9allocatorINS_4pairIKS1_S3_EEEEEC2B9nqe210106ESt16initializer_listIS9_ERKS5_, symObjAddr: 0x3292C, symBinAddr: 0x3692C, symSize: 0x178 }
  - { offset: 0xB1B2C, size: 0x8, addend: 0x0, symName: __ZNSt3__16vectorI18whisper_token_dataNS_9allocatorIS1_EEE20__throw_length_errorB9nqe210106Ev, symObjAddr: 0x2FCA8, symBinAddr: 0x33CA8, symSize: 0x14 }
  - { offset: 0xB1B44, size: 0x8, addend: 0x0, symName: __ZNSt3__121discrete_distributionIiE10param_type6__initEv, symObjAddr: 0x2FCBC, symBinAddr: 0x33CBC, symSize: 0x1FC }
  - { offset: 0xB1B4F, size: 0x8, addend: 0x0, symName: __ZNSt3__16vectorI12whisper_pairIdiENS_9allocatorIS2_EEE20__throw_length_errorB9nqe210106Ev, symObjAddr: 0x302C0, symBinAddr: 0x342C0, symSize: 0x14 }
  - { offset: 0xB1B67, size: 0x8, addend: 0x0, symName: __ZNSt3__16vectorIZ23whisper_full_with_stateE14beam_candidateNS_9allocatorIS1_EEE20__throw_length_errorB9nqe210106Ev, symObjAddr: 0x302D4, symBinAddr: 0x342D4, symSize: 0x14 }
  - { offset: 0xB209E, size: 0x8, addend: 0x0, symName: _whisper_vad_free, symObjAddr: 0x4B28, symBinAddr: 0x8B28, symSize: 0xC0 }
  - { offset: 0xB22B4, size: 0x8, addend: 0x0, symName: __ZN13whisper_stateD2Ev, symObjAddr: 0x1C9B8, symBinAddr: 0x209B8, symSize: 0x2DC }
  - { offset: 0xB4EE0, size: 0x8, addend: 0x0, symName: __ZNSt3__16__treeIiNS_4lessIiEENS_9allocatorIiEEE7destroyEPNS_11__tree_nodeIiPvEE, symObjAddr: 0x1B21C, symBinAddr: 0x1F21C, symSize: 0x44 }
  - { offset: 0xB4FE4, size: 0x8, addend: 0x0, symName: __ZNSt3__16vectorI15whisper_kv_cellNS_9allocatorIS1_EEE8__appendEm, symObjAddr: 0x1B2FC, symBinAddr: 0x1F2FC, symSize: 0x1BC }
  - { offset: 0xB57D9, size: 0x8, addend: 0x0, symName: __ZNSt3__16vectorI15whisper_kv_cellNS_9allocatorIS1_EEE20__throw_length_errorB9nqe210106Ev, symObjAddr: 0x1B4B8, symBinAddr: 0x1F4B8, symSize: 0x14 }
  - { offset: 0xB5814, size: 0x8, addend: 0x0, symName: __ZNSt3__16vectorIhNS_9allocatorIhEEE20__throw_length_errorB9nqe210106Ev, symObjAddr: 0x1B2E8, symBinAddr: 0x1F2E8, symSize: 0x14 }
  - { offset: 0xB582C, size: 0x8, addend: 0x0, symName: __ZNSt3__16vectorI15whisper_kv_cellNS_9allocatorIS1_EEE8__appendEm, symObjAddr: 0x1B2FC, symBinAddr: 0x1F2FC, symSize: 0x1BC }
  - { offset: 0xB5959, size: 0x8, addend: 0x0, symName: _whisper_ctx_init_openvino_encoder_with_state, symObjAddr: 0x20A8, symBinAddr: 0x60A8, symSize: 0x8 }
  - { offset: 0xB59C2, size: 0x8, addend: 0x0, symName: _whisper_ctx_init_openvino_encoder, symObjAddr: 0x20B0, symBinAddr: 0x60B0, symSize: 0x8 }
  - { offset: 0xB5A1C, size: 0x8, addend: 0x0, symName: _whisper_context_default_params, symObjAddr: 0x20B8, symBinAddr: 0x60B8, symSize: 0x24 }
  - { offset: 0xB5AAE, size: 0x8, addend: 0x0, symName: _whisper_init_from_file_with_params_no_state, symObjAddr: 0x20DC, symBinAddr: 0x60DC, symSize: 0x18C }
  - { offset: 0xB5CC5, size: 0x8, addend: 0x0, symName: __ZNSt3__114basic_ifstreamIcNS_11char_traitsIcEEEC1EPKcj, symObjAddr: 0x2268, symBinAddr: 0x6268, symSize: 0x118 }
  - { offset: 0xB5DEE, size: 0x8, addend: 0x0, symName: _whisper_init_with_params_no_state, symObjAddr: 0x2380, symBinAddr: 0x6380, symSize: 0x21E4 }
  - { offset: 0xBB188, size: 0x8, addend: 0x0, symName: __ZNSt3__114basic_ifstreamIcNS_11char_traitsIcEEED1Ev, symObjAddr: 0x4564, symBinAddr: 0x8564, symSize: 0x58 }
  - { offset: 0xBD375, size: 0x8, addend: 0x0, symName: __ZNSt3__16vectorIfNS_9allocatorIfEEE8__appendEm, symObjAddr: 0x33F78, symBinAddr: 0x37F78, symSize: 0x118 }
  - { offset: 0xBD803, size: 0x8, addend: 0x0, symName: __ZNSt3__16__treeINS_12__value_typeIP24ggml_backend_buffer_typeP12ggml_contextEENS_19__map_value_compareIS3_NS_4pairIKS3_S5_EENS_4lessIS3_EELb1EEENS_9allocatorISA_EEE7destroyEPNS_11__tree_nodeIS6_PvEE, symObjAddr: 0x34090, symBinAddr: 0x38090, symSize: 0x44 }
  - { offset: 0xBD80E, size: 0x8, addend: 0x0, symName: __ZNSt3__16__treeINS_12__value_typeINS_12basic_stringIcNS_11char_traitsIcEENS_9allocatorIcEEEEiEENS_19__map_value_compareIS7_NS_4pairIKS7_iEENS_4lessIS7_EELb1EEENS5_ISC_EEE25__emplace_unique_key_argsIS7_JRKNS_21piecewise_construct_tENS_5tupleIJRSB_EEENSM_IJEEEEEENSA_INS_15__tree_iteratorIS8_PNS_11__tree_nodeIS8_PvEElEEbEERKT_DpOT0_, symObjAddr: 0x1C05C, symBinAddr: 0x2005C, symSize: 0x1B0 }
  - { offset: 0xBDE73, size: 0x8, addend: 0x0, symName: _whisper_lang_str, symObjAddr: 0x74F4, symBinAddr: 0xB4F4, symSize: 0xBC }
  - { offset: 0xBE04D, size: 0x8, addend: 0x0, symName: __ZL14make_buft_listR22whisper_context_params, symObjAddr: 0x9ECC, symBinAddr: 0xDECC, symSize: 0x36C }
  - { offset: 0xBEFF1, size: 0x8, addend: 0x0, symName: __ZNSt3__16vectorI21whisper_layer_encoderNS_9allocatorIS1_EEE8__appendEm, symObjAddr: 0x1C26C, symBinAddr: 0x2026C, symSize: 0x18C }
  - { offset: 0xBF3C0, size: 0x8, addend: 0x0, symName: __ZNSt3__16vectorI21whisper_layer_encoderNS_9allocatorIS1_EEE20__throw_length_errorB9nqe210106Ev, symObjAddr: 0x1C3F8, symBinAddr: 0x203F8, symSize: 0x14 }
  - { offset: 0xBF3CB, size: 0x8, addend: 0x0, symName: __ZNSt3__16vectorI21whisper_layer_decoderNS_9allocatorIS1_EEE8__appendEm, symObjAddr: 0x1C40C, symBinAddr: 0x2040C, symSize: 0x17C }
  - { offset: 0xBF79A, size: 0x8, addend: 0x0, symName: __ZNSt3__16vectorI21whisper_layer_decoderNS_9allocatorIS1_EEE20__throw_length_errorB9nqe210106Ev, symObjAddr: 0x1C588, symBinAddr: 0x20588, symSize: 0x14 }
  - { offset: 0xBF7A5, size: 0x8, addend: 0x0, symName: '__ZZL18whisper_model_loadP20whisper_model_loaderR15whisper_contextENK3$_1clE10asr_tensor10asr_systemP11ggml_tensori', symObjAddr: 0x1B944, symBinAddr: 0x1F944, symSize: 0x704 }
  - { offset: 0xC0DB2, size: 0x8, addend: 0x0, symName: __ZNSt3__16__treeINS_12__value_typeINS_12basic_stringIcNS_11char_traitsIcEENS_9allocatorIcEEEEP11ggml_tensorEENS_19__map_value_compareIS7_NS_4pairIKS7_S9_EENS_4lessIS7_EELb1EEENS5_ISE_EEE25__emplace_unique_key_argsIS7_JRKNS_21piecewise_construct_tENS_5tupleIJOS7_EEENSO_IJEEEEEENSC_INS_15__tree_iteratorISA_PNS_11__tree_nodeISA_PvEElEEbEERKT_DpOT0_, symObjAddr: 0x340D4, symBinAddr: 0x380D4, symSize: 0x174 }
  - { offset: 0xC140A, size: 0x8, addend: 0x0, symName: __ZNSt3__16vectorIcNS_9allocatorIcEEE6resizeEm, symObjAddr: 0xA8E0, symBinAddr: 0xE8E0, symSize: 0x110 }
  - { offset: 0xC18F0, size: 0x8, addend: 0x0, symName: _whisper_vad_detect_speech, symObjAddr: 0xA9F0, symBinAddr: 0xE9F0, symSize: 0x3E0 }
  - { offset: 0xC190E, size: 0x8, addend: 0x0, symName: __ZNSt3__16__treeINS_12__value_typeIP24ggml_backend_buffer_typeP12ggml_contextEENS_19__map_value_compareIS3_NS_4pairIKS3_S5_EENS_4lessIS3_EELb1EEENS_9allocatorISA_EEE7destroyEPNS_11__tree_nodeIS6_PvEE, symObjAddr: 0x34090, symBinAddr: 0x38090, symSize: 0x44 }
  - { offset: 0xC1A12, size: 0x8, addend: 0x0, symName: __ZN15whisper_contextD2Ev, symObjAddr: 0x1C7F4, symBinAddr: 0x207F4, symSize: 0xA4 }
  - { offset: 0xC22F6, size: 0x8, addend: 0x0, symName: __ZNSt3__16vectorIcNS_9allocatorIcEEE20__throw_length_errorB9nqe210106Ev, symObjAddr: 0x1C048, symBinAddr: 0x20048, symSize: 0x14 }
  - { offset: 0xC230E, size: 0x8, addend: 0x0, symName: __ZNSt3__16__treeINS_12__value_typeINS_12basic_stringIcNS_11char_traitsIcEENS_9allocatorIcEEEEiEENS_19__map_value_compareIS7_NS_4pairIKS7_iEENS_4lessIS7_EELb1EEENS5_ISC_EEE25__emplace_unique_key_argsIS7_JRKNS_21piecewise_construct_tENS_5tupleIJRSB_EEENSM_IJEEEEEENSA_INS_15__tree_iteratorIS8_PNS_11__tree_nodeIS8_PvEElEEbEERKT_DpOT0_, symObjAddr: 0x1C05C, symBinAddr: 0x2005C, symSize: 0x1B0 }
  - { offset: 0xC2319, size: 0x8, addend: 0x0, symName: __ZNSt3__16vectorIP19ggml_backend_bufferNS_9allocatorIS2_EEE20__throw_length_errorB9nqe210106Ev, symObjAddr: 0x34248, symBinAddr: 0x38248, symSize: 0x14 }
  - { offset: 0xC2331, size: 0x8, addend: 0x0, symName: __ZNSt3__128__exception_guard_exceptionsINS_6vectorINS_6threadENS_9allocatorIS2_EEE16__destroy_vectorEED1B9nqe210106Ev, symObjAddr: 0x3425C, symBinAddr: 0x3825C, symSize: 0x70 }
  - { offset: 0xC23D1, size: 0x8, addend: 0x0, symName: _whisper_init_from_file_with_params, symObjAddr: 0x4644, symBinAddr: 0x8644, symSize: 0xC4 }
  - { offset: 0xC25B4, size: 0x8, addend: 0x0, symName: _whisper_free, symObjAddr: 0x4708, symBinAddr: 0x8708, symSize: 0x74 }
  - { offset: 0xC27EB, size: 0x8, addend: 0x0, symName: _whisper_init_from_buffer_with_params, symObjAddr: 0x477C, symBinAddr: 0x877C, symSize: 0x110 }
  - { offset: 0xC2A32, size: 0x8, addend: 0x0, symName: _whisper_init_with_params, symObjAddr: 0x488C, symBinAddr: 0x888C, symSize: 0xC4 }
  - { offset: 0xC2C31, size: 0x8, addend: 0x0, symName: _whisper_init_from_file, symObjAddr: 0x4950, symBinAddr: 0x8950, symSize: 0x40 }
  - { offset: 0xC2C9C, size: 0x8, addend: 0x0, symName: _whisper_init_from_buffer, symObjAddr: 0x4990, symBinAddr: 0x8990, symSize: 0x40 }
  - { offset: 0xC2D20, size: 0x8, addend: 0x0, symName: _whisper_init, symObjAddr: 0x49D0, symBinAddr: 0x89D0, symSize: 0x40 }
  - { offset: 0xC2D8B, size: 0x8, addend: 0x0, symName: _whisper_init_from_file_no_state, symObjAddr: 0x4A10, symBinAddr: 0x8A10, symSize: 0x40 }
  - { offset: 0xC2DF6, size: 0x8, addend: 0x0, symName: _whisper_init_from_buffer_no_state, symObjAddr: 0x4A50, symBinAddr: 0x8A50, symSize: 0x98 }
  - { offset: 0xC2EC4, size: 0x8, addend: 0x0, symName: _whisper_init_no_state, symObjAddr: 0x4AE8, symBinAddr: 0x8AE8, symSize: 0x40 }
  - { offset: 0xC2F56, size: 0x8, addend: 0x0, symName: __ZN19whisper_vad_contextD2Ev, symObjAddr: 0x2A958, symBinAddr: 0x2E958, symSize: 0xD0 }
  - { offset: 0xC39D7, size: 0x8, addend: 0x0, symName: _whisper_free_context_params, symObjAddr: 0x4BE8, symBinAddr: 0x8BE8, symSize: 0xC }
  - { offset: 0xC39FE, size: 0x8, addend: 0x0, symName: _whisper_free_params, symObjAddr: 0x4BF4, symBinAddr: 0x8BF4, symSize: 0xC }
  - { offset: 0xC41F8, size: 0x8, addend: 0x0, symName: _whisper_pcm_to_mel_with_state, symObjAddr: 0x4C00, symBinAddr: 0x8C00, symSize: 0x798 }
  - { offset: 0xC51CD, size: 0x8, addend: 0x0, symName: __ZNSt3__16threadC2B9nqe210106IRFviPKfRKNS_6vectorIfNS_9allocatorIfEEEEiiiiRK15whisper_filtersR11whisper_melEJiRS3_NS_17reference_wrapperIS8_EExRKiSL_SL_NSI_ISB_EENSI_ISD_EEELi0EEEOT_DpOT0_, symObjAddr: 0x1DA90, symBinAddr: 0x21A90, symSize: 0x13C }
  - { offset: 0xC57BA, size: 0x8, addend: 0x0, symName: __ZL33log_mel_spectrogram_worker_threadiPKfRKNSt3__16vectorIfNS1_9allocatorIfEEEEiiiiRK15whisper_filtersR11whisper_mel, symObjAddr: 0x1CC94, symBinAddr: 0x20C94, symSize: 0x848 }
  - { offset: 0xC5FB1, size: 0x8, addend: 0x0, symName: __ZNSt3__16vectorINS_6threadENS_9allocatorIS1_EEE20__throw_length_errorB9nqe210106Ev, symObjAddr: 0x342CC, symBinAddr: 0x382CC, symSize: 0x14 }
  - { offset: 0xC5FC9, size: 0x8, addend: 0x0, symName: __ZNSt3__16vectorIiNS_9allocatorIiEEE20__throw_length_errorB9nqe210106Ev, symObjAddr: 0x342E0, symBinAddr: 0x382E0, symSize: 0x14 }
  - { offset: 0xC5FD4, size: 0x8, addend: 0x0, symName: __ZNSt3__128__exception_guard_exceptionsINS_6vectorINS_6threadENS_9allocatorIS2_EEE16__destroy_vectorEED1B9nqe210106Ev, symObjAddr: 0x3425C, symBinAddr: 0x3825C, symSize: 0x70 }
  - { offset: 0xC6006, size: 0x8, addend: 0x0, symName: __ZNSt3__128__exception_guard_exceptionsINS_6vectorINS_6threadENS_9allocatorIS2_EEE16__destroy_vectorEED1B9nqe210106Ev, symObjAddr: 0x3425C, symBinAddr: 0x3825C, symSize: 0x70 }
  - { offset: 0xC616B, size: 0x8, addend: 0x0, symName: __ZNSt3__16vectorINS_6threadENS_9allocatorIS1_EEED1B9nqe210106Ev, symObjAddr: 0x15F7C, symBinAddr: 0x19F7C, symSize: 0x58 }
  - { offset: 0xC62E6, size: 0x8, addend: 0x0, symName: _whisper_pcm_to_mel, symObjAddr: 0x5398, symBinAddr: 0x9398, symSize: 0x28 }
  - { offset: 0xC6375, size: 0x8, addend: 0x0, symName: _whisper_set_mel_with_state, symObjAddr: 0x53C0, symBinAddr: 0x93C0, symSize: 0xD4 }
  - { offset: 0xC64B7, size: 0x8, addend: 0x0, symName: _whisper_set_mel, symObjAddr: 0x5494, symBinAddr: 0x9494, symSize: 0xCC }
  - { offset: 0xC6611, size: 0x8, addend: 0x0, symName: _whisper_encode_with_state, symObjAddr: 0x5560, symBinAddr: 0x9560, symSize: 0x58 }
  - { offset: 0xC669E, size: 0x8, addend: 0x0, symName: __ZL23whisper_encode_internalR15whisper_contextR13whisper_stateiiPFbPvES3_, symObjAddr: 0x55B8, symBinAddr: 0x95B8, symSize: 0x3F0 }
  - { offset: 0xC6B83, size: 0x8, addend: 0x0, symName: __ZL24whisper_build_graph_convR15whisper_contextR13whisper_state, symObjAddr: 0x1DCF8, symBinAddr: 0x21CF8, symSize: 0x148 }
  - { offset: 0xC6E12, size: 0x8, addend: 0x0, symName: __ZL25ggml_graph_compute_helperP18ggml_backend_schedP11ggml_cgraphib, symObjAddr: 0xB2A8, symBinAddr: 0xF2A8, symSize: 0xD4 }
  - { offset: 0xC6FB5, size: 0x8, addend: 0x0, symName: __ZL25whisper_build_graph_crossR15whisper_contextR13whisper_state, symObjAddr: 0x1E408, symBinAddr: 0x22408, symSize: 0x2C0 }
  - { offset: 0xC743A, size: 0x8, addend: 0x0, symName: _whisper_encode, symObjAddr: 0x59A8, symBinAddr: 0x99A8, symSize: 0x64 }
  - { offset: 0xC7532, size: 0x8, addend: 0x0, symName: _whisper_decode_with_state, symObjAddr: 0x5A0C, symBinAddr: 0x9A0C, symSize: 0x128 }
  - { offset: 0xC7667, size: 0x8, addend: 0x0, symName: __ZL23whisper_kv_cache_seq_rmR16whisper_kv_cacheiii, symObjAddr: 0x5B34, symBinAddr: 0x9B34, symSize: 0x208 }
  - { offset: 0xC7B16, size: 0x8, addend: 0x0, symName: __ZL23whisper_decode_internalR15whisper_contextR13whisper_stateRK13whisper_batchibPFbPvES6_, symObjAddr: 0x5D3C, symBinAddr: 0x9D3C, symSize: 0x7F4 }
  - { offset: 0xC90AF, size: 0x8, addend: 0x0, symName: __ZL27whisper_build_graph_decoderR15whisper_contextR13whisper_stateRK13whisper_batchbb, symObjAddr: 0x1EAE8, symBinAddr: 0x22AE8, symSize: 0xC00 }
  - { offset: 0xCA38D, size: 0x8, addend: 0x0, symName: __ZNSt3__111basic_regexIcNS_12regex_traitsIcEEED1Ev, symObjAddr: 0x1F6E8, symBinAddr: 0x236E8, symSize: 0x64 }
  - { offset: 0xCA3E0, size: 0x8, addend: 0x0, symName: _whisper_decode, symObjAddr: 0x6530, symBinAddr: 0xA530, symSize: 0x54 }
  - { offset: 0xCB8AF, size: 0x8, addend: 0x0, symName: _whisper_tokenize, symObjAddr: 0x6584, symBinAddr: 0xA584, symSize: 0xAE8 }
  - { offset: 0xCECCC, size: 0x8, addend: 0x0, symName: __ZNSt3__112basic_stringIcNS_11char_traitsIcEENS_9allocatorIcEEE25__init_copy_ctor_externalEPKcm, symObjAddr: 0x3366C, symBinAddr: 0x3766C, symSize: 0x8C }
  - { offset: 0xCEE8E, size: 0x8, addend: 0x0, symName: __ZNSt3__13mapINS_12basic_stringIcNS_11char_traitsIcEENS_9allocatorIcEEEENS_4pairIiS6_EENS_4lessIS6_EENS4_INS7_IKS6_S8_EEEEEC2B9nqe210106ESt16initializer_listISC_ERKSA_, symObjAddr: 0x336F8, symBinAddr: 0x376F8, symSize: 0xF0 }
  - { offset: 0xCEE99, size: 0x8, addend: 0x0, symName: __ZNSt3__111basic_regexIcNS_12regex_traitsIcEEEC2B9nqe210106INS_11char_traitsIcEENS_9allocatorIcEEEERKNS_12basic_stringIcT_T0_EENS_15regex_constants18syntax_option_typeE, symObjAddr: 0x1F74C, symBinAddr: 0x2374C, symSize: 0xD4 }
  - { offset: 0xCF084, size: 0x8, addend: 0x0, symName: __ZNKSt3__111basic_regexIcNS_12regex_traitsIcEEE8__searchINS_9allocatorINS_9sub_matchIPKcEEEEEEbS8_S8_RNS_13match_resultsIS8_T_EENS_15regex_constants15match_flag_typeE, symObjAddr: 0x27FB0, symBinAddr: 0x2BFB0, symSize: 0x308 }
  - { offset: 0xCF65F, size: 0x8, addend: 0x0, symName: __ZNSt3__113match_resultsINS_11__wrap_iterIPKcEENS_9allocatorINS_9sub_matchIS4_EEEEE8__assignB9nqe210106IS3_NS5_INS6_IS3_EEEEEEvS4_S4_RKNS0_IT_T0_EEb, symObjAddr: 0x282B8, symBinAddr: 0x2C2B8, symSize: 0x174 }
  - { offset: 0xCFD57, size: 0x8, addend: 0x0, symName: __ZNSt3__16vectorINS_12basic_stringIcNS_11char_traitsIcEENS_9allocatorIcEEEENS4_IS6_EEE20__throw_length_errorB9nqe210106Ev, symObjAddr: 0x265CC, symBinAddr: 0x2A5CC, symSize: 0x14 }
  - { offset: 0xCFD6F, size: 0x8, addend: 0x0, symName: __ZNSt3__119__throw_regex_errorB9nqe210106ILNS_15regex_constants10error_typeE2EEEvv, symObjAddr: 0x265E0, symBinAddr: 0x2A5E0, symSize: 0x4C }
  - { offset: 0xCFD7A, size: 0x8, addend: 0x0, symName: __ZNSt3__112basic_stringIcNS_11char_traitsIcEENS_9allocatorIcEEE20__throw_out_of_rangeB9nqe210106Ev, symObjAddr: 0x2A78C, symBinAddr: 0x2E78C, symSize: 0x14 }
  - { offset: 0xCFD92, size: 0x8, addend: 0x0, symName: '__ZZ38whisper_vad_init_from_file_with_paramsEN3$_08__invokeEPvS0_m', symObjAddr: 0x2A7A0, symBinAddr: 0x2E7A0, symSize: 0x24 }
  - { offset: 0xCFD9D, size: 0x8, addend: 0x0, symName: __ZNSt3__16vectorIiNS_9allocatorIiEEE20__throw_length_errorB9nqe210106Ev, symObjAddr: 0x342E0, symBinAddr: 0x382E0, symSize: 0x14 }
  - { offset: 0xCFDB5, size: 0x8, addend: 0x0, symName: '__ZNSt3__110__function6__funcIZ18whisper_init_stateE3$_0FP11ggml_cgraphvEED1Ev', symObjAddr: 0x342F4, symBinAddr: 0x382F4, symSize: 0x4 }
  - { offset: 0xCFDC0, size: 0x8, addend: 0x0, symName: __ZNSt3__111basic_regexIcNS_12regex_traitsIcEEED1Ev, symObjAddr: 0x1F6E8, symBinAddr: 0x236E8, symSize: 0x64 }
  - { offset: 0xCFECB, size: 0x8, addend: 0x0, symName: _whisper_tokenize.cold.1, symObjAddr: 0x3986C, symBinAddr: 0x146224, symSize: 0x48 }
  - { offset: 0xD0100, size: 0x8, addend: 0x0, symName: _whisper_token_count, symObjAddr: 0x706C, symBinAddr: 0xB06C, symSize: 0x20 }
  - { offset: 0xD01D3, size: 0x8, addend: 0x0, symName: _whisper_lang_max_id, symObjAddr: 0x708C, symBinAddr: 0xB08C, symSize: 0x74 }
  - { offset: 0xD01F1, size: 0x8, addend: 0x0, symName: _whisper_lang_max_id, symObjAddr: 0x708C, symBinAddr: 0xB08C, symSize: 0x74 }
  - { offset: 0xD0225, size: 0x8, addend: 0x0, symName: _whisper_lang_max_id, symObjAddr: 0x708C, symBinAddr: 0xB08C, symSize: 0x74 }
  - { offset: 0xD0245, size: 0x8, addend: 0x0, symName: _whisper_lang_max_id, symObjAddr: 0x708C, symBinAddr: 0xB08C, symSize: 0x74 }
  - { offset: 0xD055F, size: 0x8, addend: 0x0, symName: _whisper_lang_id, symObjAddr: 0x7100, symBinAddr: 0xB100, symSize: 0x3F4 }
  - { offset: 0xD168A, size: 0x8, addend: 0x0, symName: _whisper_lang_str_full, symObjAddr: 0x75B0, symBinAddr: 0xB5B0, symSize: 0xBC }
  - { offset: 0xD1D1D, size: 0x8, addend: 0x0, symName: _whisper_lang_auto_detect_with_state, symObjAddr: 0x766C, symBinAddr: 0xB66C, symSize: 0x4CC }
  - { offset: 0xD2BA9, size: 0x8, addend: 0x0, symName: _whisper_token_sot, symObjAddr: 0x7B38, symBinAddr: 0xBB38, symSize: 0x8 }
  - { offset: 0xD2BC8, size: 0x8, addend: 0x0, symName: _whisper_token_lang, symObjAddr: 0x7B40, symBinAddr: 0xBB40, symSize: 0x10 }
  - { offset: 0xD2BF2, size: 0x8, addend: 0x0, symName: _whisper_token_lang, symObjAddr: 0x7B40, symBinAddr: 0xBB40, symSize: 0x10 }
  - { offset: 0xD2C0E, size: 0x8, addend: 0x0, symName: _whisper_lang_auto_detect, symObjAddr: 0x7B50, symBinAddr: 0xBB50, symSize: 0x14 }
  - { offset: 0xD2C9B, size: 0x8, addend: 0x0, symName: _whisper_model_n_vocab, symObjAddr: 0x7B64, symBinAddr: 0xBB64, symSize: 0x8 }
  - { offset: 0xD2CC8, size: 0x8, addend: 0x0, symName: _whisper_model_n_audio_ctx, symObjAddr: 0x7B6C, symBinAddr: 0xBB6C, symSize: 0x8 }
  - { offset: 0xD2CF5, size: 0x8, addend: 0x0, symName: _whisper_model_n_audio_state, symObjAddr: 0x7B74, symBinAddr: 0xBB74, symSize: 0x8 }
  - { offset: 0xD2D22, size: 0x8, addend: 0x0, symName: _whisper_model_n_audio_head, symObjAddr: 0x7B7C, symBinAddr: 0xBB7C, symSize: 0x8 }
  - { offset: 0xD2D4F, size: 0x8, addend: 0x0, symName: _whisper_model_n_audio_layer, symObjAddr: 0x7B84, symBinAddr: 0xBB84, symSize: 0x8 }
  - { offset: 0xD2D7C, size: 0x8, addend: 0x0, symName: _whisper_model_n_text_ctx, symObjAddr: 0x7B8C, symBinAddr: 0xBB8C, symSize: 0x8 }
  - { offset: 0xD2DA9, size: 0x8, addend: 0x0, symName: _whisper_model_n_text_state, symObjAddr: 0x7B94, symBinAddr: 0xBB94, symSize: 0x8 }
  - { offset: 0xD2DD6, size: 0x8, addend: 0x0, symName: _whisper_model_n_text_head, symObjAddr: 0x7B9C, symBinAddr: 0xBB9C, symSize: 0x8 }
  - { offset: 0xD2E03, size: 0x8, addend: 0x0, symName: _whisper_model_n_text_layer, symObjAddr: 0x7BA4, symBinAddr: 0xBBA4, symSize: 0x8 }
  - { offset: 0xD2E30, size: 0x8, addend: 0x0, symName: _whisper_model_n_mels, symObjAddr: 0x7BAC, symBinAddr: 0xBBAC, symSize: 0x8 }
  - { offset: 0xD2E5D, size: 0x8, addend: 0x0, symName: _whisper_model_ftype, symObjAddr: 0x7BB4, symBinAddr: 0xBBB4, symSize: 0x8 }
  - { offset: 0xD2E8A, size: 0x8, addend: 0x0, symName: _whisper_model_type, symObjAddr: 0x7BBC, symBinAddr: 0xBBBC, symSize: 0x8 }
  - { offset: 0xD2EB7, size: 0x8, addend: 0x0, symName: _whisper_model_type_readable, symObjAddr: 0x7BC4, symBinAddr: 0xBBC4, symSize: 0x2C }
  - { offset: 0xD2EE4, size: 0x8, addend: 0x0, symName: _whisper_n_len_from_state, symObjAddr: 0x7BF0, symBinAddr: 0xBBF0, symSize: 0x8 }
  - { offset: 0xD2F03, size: 0x8, addend: 0x0, symName: _whisper_n_len, symObjAddr: 0x7BF8, symBinAddr: 0xBBF8, symSize: 0xC }
  - { offset: 0xD2F30, size: 0x8, addend: 0x0, symName: _whisper_n_vocab, symObjAddr: 0x7C04, symBinAddr: 0xBC04, symSize: 0x8 }
  - { offset: 0xD2F5D, size: 0x8, addend: 0x0, symName: _whisper_n_text_ctx, symObjAddr: 0x7C0C, symBinAddr: 0xBC0C, symSize: 0x8 }
  - { offset: 0xD2F7C, size: 0x8, addend: 0x0, symName: _whisper_n_audio_ctx, symObjAddr: 0x7C14, symBinAddr: 0xBC14, symSize: 0x8 }
  - { offset: 0xD2F9B, size: 0x8, addend: 0x0, symName: _whisper_is_multilingual, symObjAddr: 0x7C1C, symBinAddr: 0xBC1C, symSize: 0x14 }
  - { offset: 0xD2FBD, size: 0x8, addend: 0x0, symName: _whisper_is_multilingual, symObjAddr: 0x7C1C, symBinAddr: 0xBC1C, symSize: 0x14 }
  - { offset: 0xD2FDC, size: 0x8, addend: 0x0, symName: _whisper_get_logits, symObjAddr: 0x7C30, symBinAddr: 0xBC30, symSize: 0xC }
  - { offset: 0xD302C, size: 0x8, addend: 0x0, symName: _whisper_get_logits_from_state, symObjAddr: 0x7C3C, symBinAddr: 0xBC3C, symSize: 0x8 }
  - { offset: 0xD305C, size: 0x8, addend: 0x0, symName: _whisper_get_logits_from_state, symObjAddr: 0x7C3C, symBinAddr: 0xBC3C, symSize: 0x8 }
  - { offset: 0xD30DC, size: 0x8, addend: 0x0, symName: _whisper_token_to_str, symObjAddr: 0x7C44, symBinAddr: 0xBC44, symSize: 0x64 }
  - { offset: 0xD324B, size: 0x8, addend: 0x0, symName: _whisper_token_eot, symObjAddr: 0x7CA8, symBinAddr: 0xBCA8, symSize: 0x8 }
  - { offset: 0xD326A, size: 0x8, addend: 0x0, symName: _whisper_token_solm, symObjAddr: 0x7CB0, symBinAddr: 0xBCB0, symSize: 0x8 }
  - { offset: 0xD3289, size: 0x8, addend: 0x0, symName: _whisper_token_prev, symObjAddr: 0x7CB8, symBinAddr: 0xBCB8, symSize: 0x8 }
  - { offset: 0xD32A8, size: 0x8, addend: 0x0, symName: _whisper_token_nosp, symObjAddr: 0x7CC0, symBinAddr: 0xBCC0, symSize: 0x8 }
  - { offset: 0xD32C7, size: 0x8, addend: 0x0, symName: _whisper_token_not, symObjAddr: 0x7CC8, symBinAddr: 0xBCC8, symSize: 0x8 }
  - { offset: 0xD32E6, size: 0x8, addend: 0x0, symName: _whisper_token_beg, symObjAddr: 0x7CD0, symBinAddr: 0xBCD0, symSize: 0x8 }
  - { offset: 0xD3305, size: 0x8, addend: 0x0, symName: _whisper_token_translate, symObjAddr: 0x7CD8, symBinAddr: 0xBCD8, symSize: 0x8 }
  - { offset: 0xD3324, size: 0x8, addend: 0x0, symName: _whisper_token_transcribe, symObjAddr: 0x7CE0, symBinAddr: 0xBCE0, symSize: 0x8 }
  - { offset: 0xD3343, size: 0x8, addend: 0x0, symName: _whisper_get_timings, symObjAddr: 0x7CE8, symBinAddr: 0xBCE8, symSize: 0xB8 }
  - { offset: 0xD3446, size: 0x8, addend: 0x0, symName: _whisper_print_timings, symObjAddr: 0x7DA0, symBinAddr: 0xBDA0, symSize: 0x2A0 }
  - { offset: 0xD36EA, size: 0x8, addend: 0x0, symName: _whisper_reset_timings, symObjAddr: 0x8040, symBinAddr: 0xC040, symSize: 0x3C }
  - { offset: 0xD37C2, size: 0x8, addend: 0x0, symName: _whisper_print_system_info.cold.1, symObjAddr: 0x398B4, symBinAddr: 0x14626C, symSize: 0x40 }
  - { offset: 0xD381D, size: 0x8, addend: 0x0, symName: _whisper_vad_default_context_params, symObjAddr: 0x8410, symBinAddr: 0xC410, symSize: 0xC }
  - { offset: 0xD384A, size: 0x8, addend: 0x0, symName: _whisper_vad_default_params, symObjAddr: 0x841C, symBinAddr: 0xC41C, symSize: 0x1C }
  - { offset: 0xD3868, size: 0x8, addend: 0x0, symName: _whisper_vad_init_from_file_with_params, symObjAddr: 0x8438, symBinAddr: 0xC438, symSize: 0x184 }
  - { offset: 0xD3A7E, size: 0x8, addend: 0x0, symName: _whisper_vad_init_with_params, symObjAddr: 0x85BC, symBinAddr: 0xC5BC, symSize: 0x1910 }
  - { offset: 0xD9431, size: 0x8, addend: 0x0, symName: '__ZZ28whisper_vad_init_with_paramsENK3$_1clE10vad_tensorP11ggml_tensor', symObjAddr: 0xA238, symBinAddr: 0xE238, symSize: 0x6A8 }
  - { offset: 0xDB0F5, size: 0x8, addend: 0x0, symName: __ZNSt3__16vectorINS_4pairIP19ggml_backend_deviceP24ggml_backend_buffer_typeEENS_9allocatorIS6_EEE20__throw_length_errorB9nqe210106Ev, symObjAddr: 0x1C7CC, symBinAddr: 0x207CC, symSize: 0x14 }
  - { offset: 0xDB10D, size: 0x8, addend: 0x0, symName: __ZNSt3__16vectorIP12ggml_contextNS_9allocatorIS2_EEE20__throw_length_errorB9nqe210106Ev, symObjAddr: 0x1C7E0, symBinAddr: 0x207E0, symSize: 0x14 }
  - { offset: 0xDC127, size: 0x8, addend: 0x0, symName: __ZNKSt3__13mapI10vad_tensorPKcNS_4lessIS1_EENS_9allocatorINS_4pairIKS1_S3_EEEEE2atERS8_, symObjAddr: 0x2A824, symBinAddr: 0x2E824, symSize: 0x54 }
  - { offset: 0xDC229, size: 0x8, addend: 0x0, symName: __ZL6formatPKcz, symObjAddr: 0x1C59C, symBinAddr: 0x2059C, symSize: 0x154 }
  - { offset: 0xDC84B, size: 0x8, addend: 0x0, symName: '__ZZ28whisper_vad_init_with_paramsENK3$_1clE10vad_tensorP11ggml_tensor.cold.1', symObjAddr: 0x398F4, symBinAddr: 0x1462AC, symSize: 0xC }
  - { offset: 0xDC863, size: 0x8, addend: 0x0, symName: __ZNSt3__16vectorIP12ggml_contextNS_9allocatorIS2_EEE20__throw_length_errorB9nqe210106Ev, symObjAddr: 0x1C7E0, symBinAddr: 0x207E0, symSize: 0x14 }
  - { offset: 0xDC87B, size: 0x8, addend: 0x0, symName: __ZN15whisper_contextD2Ev, symObjAddr: 0x1C7F4, symBinAddr: 0x207F4, symSize: 0xA4 }
  - { offset: 0xDC886, size: 0x8, addend: 0x0, symName: __ZNSt3__110unique_ptrI12ggml_context20ggml_context_deleterED1B9nqe210106Ev, symObjAddr: 0x1C798, symBinAddr: 0x20798, symSize: 0x34 }
  - { offset: 0xDCB96, size: 0x8, addend: 0x0, symName: _whisper_vad_detect_speech, symObjAddr: 0xA9F0, symBinAddr: 0xE9F0, symSize: 0x3E0 }
  - { offset: 0xDD851, size: 0x8, addend: 0x0, symName: __ZL23whisper_vad_build_graphR19whisper_vad_context, symObjAddr: 0xADD0, symBinAddr: 0xEDD0, symSize: 0x4D8 }
  - { offset: 0xDE5AF, size: 0x8, addend: 0x0, symName: _whisper_vad_segments_n_segments, symObjAddr: 0xB37C, symBinAddr: 0xF37C, symSize: 0x10 }
  - { offset: 0xDE5DF, size: 0x8, addend: 0x0, symName: _whisper_vad_segments_n_segments, symObjAddr: 0xB37C, symBinAddr: 0xF37C, symSize: 0x10 }
  - { offset: 0xDE623, size: 0x8, addend: 0x0, symName: _whisper_vad_segments_get_segment_t0, symObjAddr: 0xB38C, symBinAddr: 0xF38C, symSize: 0x14 }
  - { offset: 0xDE660, size: 0x8, addend: 0x0, symName: _whisper_vad_segments_get_segment_t0, symObjAddr: 0xB38C, symBinAddr: 0xF38C, symSize: 0x14 }
  - { offset: 0xDE67C, size: 0x8, addend: 0x0, symName: _whisper_vad_segments_get_segment_t1, symObjAddr: 0xB3A0, symBinAddr: 0xF3A0, symSize: 0x14 }
  - { offset: 0xDE6B9, size: 0x8, addend: 0x0, symName: _whisper_vad_segments_get_segment_t1, symObjAddr: 0xB3A0, symBinAddr: 0xF3A0, symSize: 0x14 }
  - { offset: 0xDE6D5, size: 0x8, addend: 0x0, symName: _whisper_vad_n_probs, symObjAddr: 0xB3B4, symBinAddr: 0xF3B4, symSize: 0x10 }
  - { offset: 0xDE6F7, size: 0x8, addend: 0x0, symName: _whisper_vad_n_probs, symObjAddr: 0xB3B4, symBinAddr: 0xF3B4, symSize: 0x10 }
  - { offset: 0xDE716, size: 0x8, addend: 0x0, symName: _whisper_vad_probs, symObjAddr: 0xB3C4, symBinAddr: 0xF3C4, symSize: 0x8 }
  - { offset: 0xDE746, size: 0x8, addend: 0x0, symName: _whisper_vad_probs, symObjAddr: 0xB3C4, symBinAddr: 0xF3C4, symSize: 0x8 }
  - { offset: 0xDEFED, size: 0x8, addend: 0x0, symName: __ZNSt3__16vectorIZ31whisper_vad_segments_from_probsE16speech_segment_tNS_9allocatorIS1_EEE20__throw_length_errorB9nqe210106Ev, symObjAddr: 0x35C8C, symBinAddr: 0x39C8C, symSize: 0x14 }
  - { offset: 0xDF005, size: 0x8, addend: 0x0, symName: __ZNSt3__16vectorI19whisper_vad_segmentNS_9allocatorIS1_EEE20__throw_length_errorB9nqe210106Ev, symObjAddr: 0x35CA0, symBinAddr: 0x39CA0, symSize: 0x14 }
  - { offset: 0xDF010, size: 0x8, addend: 0x0, symName: __ZNSt3__16vectorI19whisper_vad_segmentNS_9allocatorIS1_EEE20__throw_length_errorB9nqe210106Ev, symObjAddr: 0x35CA0, symBinAddr: 0x39CA0, symSize: 0x14 }
  - { offset: 0xDF028, size: 0x8, addend: 0x0, symName: __ZNSt3__16vectorI18whisper_token_dataNS_9allocatorIS1_EEE8__appendEm, symObjAddr: 0x35CB4, symBinAddr: 0x39CB4, symSize: 0x1AC }
  - { offset: 0xDF033, size: 0x8, addend: 0x0, symName: _whisper_vad_segments_from_samples, symObjAddr: 0xBE6C, symBinAddr: 0xFE6C, symSize: 0xBC }
  - { offset: 0xDF1A2, size: 0x8, addend: 0x0, symName: _whisper_vad_free_segments, symObjAddr: 0xBF28, symBinAddr: 0xFF28, symSize: 0x3C }
  - { offset: 0xDF31D, size: 0x8, addend: 0x0, symName: _whisper_context_default_params_by_ref, symObjAddr: 0xBF64, symBinAddr: 0xFF64, symSize: 0x44 }
  - { offset: 0xDF383, size: 0x8, addend: 0x0, symName: _whisper_full_default_params_by_ref, symObjAddr: 0xBFA8, symBinAddr: 0xFFA8, symSize: 0x1E0 }
  - { offset: 0xDF429, size: 0x8, addend: 0x0, symName: _whisper_full_default_params, symObjAddr: 0xC188, symBinAddr: 0x10188, symSize: 0x13C }
  - { offset: 0xDF46B, size: 0x8, addend: 0x0, symName: __ZNSt3__16vectorINS_12basic_stringIcNS_11char_traitsIcEENS_9allocatorIcEEEENS4_IS6_EEED1B9nqe210106Ev, symObjAddr: 0xC2C4, symBinAddr: 0x102C4, symSize: 0x70 }
  - { offset: 0xE4E68, size: 0x8, addend: 0x0, symName: __ZNSt3__16vectorIiNS_9allocatorIiEEE18__assign_with_sizeB9nqe210106IPKiS6_EEvT_T0_l, symObjAddr: 0x36358, symBinAddr: 0x3A358, symSize: 0x20C }
  - { offset: 0xE569C, size: 0x8, addend: 0x0, symName: __ZNSt3__18__rotateB9nqe210106INS_17_ClassicAlgPolicyENS_11__wrap_iterIPiEES4_EENS_4pairIT0_S6_EES6_S6_T1_, symObjAddr: 0x36564, symBinAddr: 0x3A564, symSize: 0x274 }
  - { offset: 0xE56B9, size: 0x8, addend: 0x0, symName: __ZNSt3__16vectorIiNS_9allocatorIiEEE8__appendEm, symObjAddr: 0x36240, symBinAddr: 0x3A240, symSize: 0x118 }
  - { offset: 0xE5B57, size: 0x8, addend: 0x0, symName: __ZNSt3__16vectorIiNS_9allocatorIiEEE18__assign_with_sizeB9nqe210106IPKiS6_EEvT_T0_l, symObjAddr: 0x36358, symBinAddr: 0x3A358, symSize: 0x20C }
  - { offset: 0xE5B62, size: 0x8, addend: 0x0, symName: __ZNSt3__16vectorIiNS_9allocatorIiEEE6resizeEm, symObjAddr: 0x13174, symBinAddr: 0x17174, symSize: 0x2C }
  - { offset: 0xE5B9A, size: 0x8, addend: 0x0, symName: __ZNSt3__16vectorIiNS_9allocatorIiEEE6resizeEm, symObjAddr: 0x13174, symBinAddr: 0x17174, symSize: 0x2C }
  - { offset: 0xE5C12, size: 0x8, addend: 0x0, symName: __ZL29whisper_grammar_advance_stackRKNSt3__16vectorINS0_I23whisper_grammar_elementNS_9allocatorIS1_EEEENS2_IS4_EEEERKNS0_IPKS1_NS2_ISA_EEEERNS0_ISC_NS2_ISC_EEEE, symObjAddr: 0x2AA28, symBinAddr: 0x2EA28, symSize: 0x41C }
  - { offset: 0xE7248, size: 0x8, addend: 0x0, symName: __ZNSt3__16vectorIiNS_9allocatorIiEEE18__insert_with_sizeB9nqe210106INS_11__wrap_iterIPiEES7_EES7_NS5_IPKiEET_T0_l, symObjAddr: 0x3694C, symBinAddr: 0x3A94C, symSize: 0x420 }
  - { offset: 0xE7E5D, size: 0x8, addend: 0x0, symName: '__ZNSt3__114__thread_proxyB9nqe210106INS_5tupleIJNS_10unique_ptrINS_15__thread_structENS_14default_deleteIS3_EEEEZ23whisper_full_with_stateE3$_0EEEEEPvS9_', symObjAddr: 0x36D6C, symBinAddr: 0x3AD6C, symSize: 0x78 }
  - { offset: 0xE7E7A, size: 0x8, addend: 0x0, symName: __ZL22whisper_process_logitsR15whisper_contextR13whisper_stateR15whisper_decoder19whisper_full_paramsf, symObjAddr: 0x132B8, symBinAddr: 0x172B8, symSize: 0x17D8 }
  - { offset: 0xEC889, size: 0x8, addend: 0x0, symName: '__ZZ23whisper_full_with_stateENK3$_0clEv', symObjAddr: 0x14A90, symBinAddr: 0x18A90, symSize: 0x14EC }
  - { offset: 0xF0B0C, size: 0x8, addend: 0x0, symName: __ZNSt3__16vectorINS0_I23whisper_grammar_elementNS_9allocatorIS1_EEEENS2_IS4_EEE18__assign_with_sizeB9nqe210106IPS4_S8_EEvT_T0_l, symObjAddr: 0x30A34, symBinAddr: 0x34A34, symSize: 0x25C }
  - { offset: 0xF15E3, size: 0x8, addend: 0x0, symName: __ZNSt3__16vectorINS0_IPK23whisper_grammar_elementNS_9allocatorIS3_EEEENS4_IS6_EEE18__assign_with_sizeB9nqe210106IPS6_SA_EEvT_T0_l, symObjAddr: 0x30DD8, symBinAddr: 0x34DD8, symSize: 0x25C }
  - { offset: 0xF20BA, size: 0x8, addend: 0x0, symName: __ZNSt3__16vectorI18whisper_token_dataNS_9allocatorIS1_EEE8__appendEm, symObjAddr: 0x35CB4, symBinAddr: 0x39CB4, symSize: 0x1AC }
  - { offset: 0xF2489, size: 0x8, addend: 0x0, symName: __ZNSt3__16vectorI15whisper_segmentNS_9allocatorIS1_EEE24__emplace_back_slow_pathIJS1_EEEPS1_DpOT_, symObjAddr: 0x35E60, symBinAddr: 0x39E60, symSize: 0x1B8 }
  - { offset: 0xF2494, size: 0x8, addend: 0x0, symName: __ZNSt3__16__treeINS_12__value_typeIiiEENS_19__map_value_compareIiNS_4pairIKiiEENS_4lessIiEELb1EEENS_9allocatorIS6_EEE7destroyEPNS_11__tree_nodeIS2_PvEE, symObjAddr: 0x3117C, symBinAddr: 0x3517C, symSize: 0x44 }
  - { offset: 0xF25D9, size: 0x8, addend: 0x0, symName: __ZNSt3__16vectorI15whisper_segmentNS_9allocatorIS1_EEE24__emplace_back_slow_pathIJS1_EEEPS1_DpOT_, symObjAddr: 0x35E60, symBinAddr: 0x39E60, symSize: 0x1B8 }
  - { offset: 0xF2E48, size: 0x8, addend: 0x0, symName: __ZNSt3__16vectorI15whisper_segmentNS_9allocatorIS1_EEE20__throw_length_errorB9nqe210106Ev, symObjAddr: 0x36018, symBinAddr: 0x3A018, symSize: 0x14 }
  - { offset: 0xF2E53, size: 0x8, addend: 0x0, symName: __ZL42whisper_exp_compute_token_level_timestampsR15whisper_contextR13whisper_stateiff, symObjAddr: 0x16190, symBinAddr: 0x1A190, symSize: 0x7C0 }
  - { offset: 0xF3A5C, size: 0x8, addend: 0x0, symName: __ZL20whisper_wrap_segmentR15whisper_contextR13whisper_stateib, symObjAddr: 0x16950, symBinAddr: 0x1A950, symSize: 0x524 }
  - { offset: 0xF3A67, size: 0x8, addend: 0x0, symName: __ZL20whisper_wrap_segmentR15whisper_contextR13whisper_stateib, symObjAddr: 0x16950, symBinAddr: 0x1A950, symSize: 0x524 }
  - { offset: 0xF4FD8, size: 0x8, addend: 0x0, symName: __ZL12to_timestampxb, symObjAddr: 0x15FD4, symBinAddr: 0x19FD4, symSize: 0x16C }
  - { offset: 0xF53EC, size: 0x8, addend: 0x0, symName: __ZNSt3__116allocator_traitsINS_9allocatorIZ23whisper_full_with_stateE14beam_candidateEEE7destroyB9nqe210106IS2_Li0EEEvRS3_PT_, symObjAddr: 0x302E8, symBinAddr: 0x342E8, symSize: 0xD8 }
  - { offset: 0xF5AE7, size: 0x8, addend: 0x0, symName: __ZNSt3__16vectorINS0_IZ23whisper_full_with_stateE14beam_candidateNS_9allocatorIS1_EEEENS2_IS4_EEE16__destroy_vectorclB9nqe210106Ev, symObjAddr: 0x367D8, symBinAddr: 0x3A7D8, symSize: 0x174 }
  - { offset: 0xF63CF, size: 0x8, addend: 0x0, symName: __ZNSt3__16vectorI23whisper_grammar_elementNS_9allocatorIS1_EEE20__throw_length_errorB9nqe210106Ev, symObjAddr: 0x2AFC4, symBinAddr: 0x2EFC4, symSize: 0x14 }
  - { offset: 0xF63E7, size: 0x8, addend: 0x0, symName: __ZNSt3__16vectorIPK23whisper_grammar_elementNS_9allocatorIS3_EEE20__throw_length_errorB9nqe210106Ev, symObjAddr: 0x2AFD8, symBinAddr: 0x2EFD8, symSize: 0x14 }
  - { offset: 0xF63F2, size: 0x8, addend: 0x0, symName: __ZNSt3__16vectorIPK23whisper_grammar_elementNS_9allocatorIS3_EEE20__throw_length_errorB9nqe210106Ev, symObjAddr: 0x2AFD8, symBinAddr: 0x2EFD8, symSize: 0x14 }
  - { offset: 0xF640A, size: 0x8, addend: 0x0, symName: __ZNSt3__114__split_bufferINS_6vectorIPK23whisper_grammar_elementNS_9allocatorIS4_EEEERNS5_IS7_EEED1Ev, symObjAddr: 0x2AFEC, symBinAddr: 0x2EFEC, symSize: 0x6C }
  - { offset: 0xF641D, size: 0x8, addend: 0x0, symName: __ZNSt3__16vectorINS0_I23whisper_grammar_elementNS_9allocatorIS1_EEEENS2_IS4_EEE20__throw_length_errorB9nqe210106Ev, symObjAddr: 0x2AFB0, symBinAddr: 0x2EFB0, symSize: 0x14 }
  - { offset: 0xF6435, size: 0x8, addend: 0x0, symName: __ZNSt3__16vectorI23whisper_grammar_elementNS_9allocatorIS1_EEE20__throw_length_errorB9nqe210106Ev, symObjAddr: 0x2AFC4, symBinAddr: 0x2EFC4, symSize: 0x14 }
  - { offset: 0xF6440, size: 0x8, addend: 0x0, symName: __ZNSt3__16vectorINS0_IPK23whisper_grammar_elementNS_9allocatorIS3_EEEENS4_IS6_EEE20__throw_length_errorB9nqe210106Ev, symObjAddr: 0x2B058, symBinAddr: 0x2F058, symSize: 0x14 }
  - { offset: 0xF6458, size: 0x8, addend: 0x0, symName: __ZNSt3__16vectorINS0_IPK23whisper_grammar_elementNS_9allocatorIS3_EEEENS4_IS6_EEE24__emplace_back_slow_pathIJRKS6_EEEPS6_DpOT_, symObjAddr: 0x2B06C, symBinAddr: 0x2F06C, symSize: 0x174 }
  - { offset: 0xF6463, size: 0x8, addend: 0x0, symName: __ZNSt3__16vectorIZ23whisper_full_with_stateE14beam_candidateNS_9allocatorIS1_EEE20__throw_length_errorB9nqe210106Ev, symObjAddr: 0x302D4, symBinAddr: 0x342D4, symSize: 0x14 }
  - { offset: 0xF647B, size: 0x8, addend: 0x0, symName: __ZNSt3__116allocator_traitsINS_9allocatorIZ23whisper_full_with_stateE14beam_candidateEEE7destroyB9nqe210106IS2_Li0EEEvRS3_PT_, symObjAddr: 0x302E8, symBinAddr: 0x342E8, symSize: 0xD8 }
  - { offset: 0xF6486, size: 0x8, addend: 0x0, symName: __ZN15whisper_segmentD1Ev, symObjAddr: 0x16140, symBinAddr: 0x1A140, symSize: 0x50 }
  - { offset: 0xF66C9, size: 0x8, addend: 0x0, symName: __ZNSt3__110unique_ptrI12ggml_backend20ggml_backend_deleterED1B9nqe210106Ev, symObjAddr: 0x32554, symBinAddr: 0x36554, symSize: 0x34 }
  - { offset: 0xF6767, size: 0x8, addend: 0x0, symName: __ZNSt3__128__exception_guard_exceptionsINS_6vectorINS1_I23whisper_grammar_elementNS_9allocatorIS2_EEEENS3_IS5_EEE16__destroy_vectorEED1B9nqe210106Ev, symObjAddr: 0x2AF2C, symBinAddr: 0x2EF2C, symSize: 0x84 }
  - { offset: 0xF69DD, size: 0x8, addend: 0x0, symName: '__ZNSt3__110unique_ptrINS_5tupleIJNS0_INS_15__thread_structENS_14default_deleteIS2_EEEEZ23whisper_full_with_stateE3$_2EEENS3_IS7_EEED1B9nqe210106Ev', symObjAddr: 0x39488, symBinAddr: 0x3D488, symSize: 0x48 }
  - { offset: 0xF6BA1, size: 0x8, addend: 0x0, symName: __ZNSt3__110unique_ptrINS_15__thread_structENS_14default_deleteIS1_EEED1B9nqe210106Ev, symObjAddr: 0x1DCA8, symBinAddr: 0x21CA8, symSize: 0x3C }
  - { offset: 0xF6C42, size: 0x8, addend: 0x0, symName: '__ZNSt3__110unique_ptrINS_5tupleIJNS0_INS_15__thread_structENS_14default_deleteIS2_EEEEZ23whisper_full_with_stateE3$_0EEENS3_IS7_EEED1B9nqe210106Ev', symObjAddr: 0x36DE4, symBinAddr: 0x3ADE4, symSize: 0x48 }
  - { offset: 0xF6E06, size: 0x8, addend: 0x0, symName: _whisper_full_with_state.cold.2, symObjAddr: 0x39948, symBinAddr: 0x146300, symSize: 0x48 }
  - { offset: 0xF6FB2, size: 0x8, addend: 0x0, symName: __ZNSt3__16vectorINS0_IPK23whisper_grammar_elementNS_9allocatorIS3_EEEENS4_IS6_EEED1B9nqe210106Ev, symObjAddr: 0x2AE44, symBinAddr: 0x2EE44, symSize: 0x74 }
  - { offset: 0xF7222, size: 0x8, addend: 0x0, symName: __ZNSt3__128__exception_guard_exceptionsINS_6vectorINS1_IPK23whisper_grammar_elementNS_9allocatorIS4_EEEENS5_IS7_EEE16__destroy_vectorEED1B9nqe210106Ev, symObjAddr: 0x306C0, symBinAddr: 0x346C0, symSize: 0x84 }
  - { offset: 0xF7498, size: 0x8, addend: 0x0, symName: __ZNSt3__16vectorINS0_I23whisper_grammar_elementNS_9allocatorIS1_EEEENS2_IS4_EEED1B9nqe210106Ev, symObjAddr: 0x2AEB8, symBinAddr: 0x2EEB8, symSize: 0x74 }
  - { offset: 0xF7708, size: 0x8, addend: 0x0, symName: _whisper_full_with_state.cold.1, symObjAddr: 0x39900, symBinAddr: 0x1462B8, symSize: 0x48 }
  - { offset: 0xF79A1, size: 0x8, addend: 0x0, symName: _whisper_full_with_state.cold.3, symObjAddr: 0x39990, symBinAddr: 0x146348, symSize: 0x48 }
  - { offset: 0xF7B36, size: 0x8, addend: 0x0, symName: __ZNSt3__16vectorIZ23whisper_full_with_stateE14beam_candidateNS_9allocatorIS1_EEED1B9nqe210106Ev, symObjAddr: 0x16E74, symBinAddr: 0x1AE74, symSize: 0x60 }
  - { offset: 0xF7C56, size: 0x8, addend: 0x0, symName: __ZN15whisper_grammaraSEOS_, symObjAddr: 0x131A0, symBinAddr: 0x171A0, symSize: 0x118 }
  - { offset: 0xF8F1C, size: 0x8, addend: 0x0, symName: __ZNSt3__111basic_regexIcNS_12regex_traitsIcEEEC2B9nqe210106EPKcNS_15regex_constants18syntax_option_typeE, symObjAddr: 0x2B1E0, symBinAddr: 0x2F1E0, symSize: 0xC8 }
  - { offset: 0xF90F5, size: 0x8, addend: 0x0, symName: __ZL33whisper_grammar_reject_candidatesRKNSt3__16vectorINS0_I23whisper_grammar_elementNS_9allocatorIS1_EEEENS2_IS4_EEEERKNS0_INS0_IPKS1_NS2_ISA_EEEENS2_ISC_EEEERKNS0_I25whisper_grammar_candidateNS2_ISH_EEEE, symObjAddr: 0x2EFB0, symBinAddr: 0x32FB0, symSize: 0xF8 }
  - { offset: 0xF949D, size: 0x8, addend: 0x0, symName: __ZL22whisper_process_logitsR15whisper_contextR13whisper_stateR15whisper_decoder19whisper_full_paramsf.cold.1, symObjAddr: 0x399D8, symBinAddr: 0x146390, symSize: 0x20 }
  - { offset: 0xF94B5, size: 0x8, addend: 0x0, symName: __ZNSt3__16vectorI25whisper_grammar_candidateNS_9allocatorIS1_EEE20__throw_length_errorB9nqe210106Ev, symObjAddr: 0x2F130, symBinAddr: 0x33130, symSize: 0x14 }
  - { offset: 0xF94CD, size: 0x8, addend: 0x0, symName: __ZL43whisper_grammar_reject_candidates_for_stackRKNSt3__16vectorINS0_I23whisper_grammar_elementNS_9allocatorIS1_EEEENS2_IS4_EEEERKNS0_IPKS1_NS2_ISA_EEEERKNS0_I25whisper_grammar_candidateNS2_ISF_EEEE, symObjAddr: 0x2F144, symBinAddr: 0x33144, symSize: 0xA94 }
  - { offset: 0xF94D8, size: 0x8, addend: 0x0, symName: __ZNSt3__16vectorINS_4pairINS0_IjNS_9allocatorIjEEEE20whisper_partial_utf8EENS2_IS6_EEE20__throw_length_errorB9nqe210106Ev, symObjAddr: 0x2F11C, symBinAddr: 0x3311C, symSize: 0x14 }
  - { offset: 0xF94F0, size: 0x8, addend: 0x0, symName: __ZNSt3__16vectorI25whisper_grammar_candidateNS_9allocatorIS1_EEE20__throw_length_errorB9nqe210106Ev, symObjAddr: 0x2F130, symBinAddr: 0x33130, symSize: 0x14 }
  - { offset: 0xF94FB, size: 0x8, addend: 0x0, symName: __ZNSt3__16vectorINS_4pairINS0_IjNS_9allocatorIjEEEE20whisper_partial_utf8EENS2_IS6_EEED1B9nqe210106Ev, symObjAddr: 0x2F0A8, symBinAddr: 0x330A8, symSize: 0x74 }
  - { offset: 0xFA2FE, size: 0x8, addend: 0x0, symName: __ZNSt3__16vectorI12whisper_pairIdiENS_9allocatorIS2_EEE8__appendEm, symObjAddr: 0x300F4, symBinAddr: 0x340F4, symSize: 0x1CC }
  - { offset: 0xFA786, size: 0x8, addend: 0x0, symName: __ZNSt3__16vectorI12whisper_pairIdiENS_9allocatorIS2_EEE20__throw_length_errorB9nqe210106Ev, symObjAddr: 0x302C0, symBinAddr: 0x342C0, symSize: 0x14 }
  - { offset: 0xFA791, size: 0x8, addend: 0x0, symName: __ZNSt3__121discrete_distributionIiE10param_type6__initEv, symObjAddr: 0x2FCBC, symBinAddr: 0x33CBC, symSize: 0x1FC }
  - { offset: 0xFAB47, size: 0x8, addend: 0x0, symName: __ZNSt3__16vectorIdNS_9allocatorIdEEE20__throw_length_errorB9nqe210106Ev, symObjAddr: 0x2FEB8, symBinAddr: 0x33EB8, symSize: 0x14 }
  - { offset: 0xFAB52, size: 0x8, addend: 0x0, symName: __ZNSt3__121discrete_distributionIiEclINS_23mersenne_twister_engineIjLm32ELm624ELm397ELm31ELj2567483615ELm11ELj4294967295ELm7ELj2636928640ELm15ELj4022730752ELm18ELj1812433253EEEEEiRT_RKNS1_10param_typeE, symObjAddr: 0x2FF84, symBinAddr: 0x33F84, symSize: 0x170 }
  - { offset: 0xFABA8, size: 0x8, addend: 0x0, symName: __ZNSt3__121discrete_distributionIiEclINS_23mersenne_twister_engineIjLm32ELm624ELm397ELm31ELj2567483615ELm11ELj4294967295ELm7ELj2636928640ELm15ELj4022730752ELm18ELj1812433253EEEEEiRT_RKNS1_10param_typeE, symObjAddr: 0x2FF84, symBinAddr: 0x33F84, symSize: 0x170 }
  - { offset: 0xFAED5, size: 0x8, addend: 0x0, symName: __ZN15whisper_grammarC2ERKS_, symObjAddr: 0x303C0, symBinAddr: 0x343C0, symSize: 0x19C }
  - { offset: 0xFB4C3, size: 0x8, addend: 0x0, symName: __ZNSt3__16vectorIdNS_9allocatorIdEEE20__throw_length_errorB9nqe210106Ev, symObjAddr: 0x2FEB8, symBinAddr: 0x33EB8, symSize: 0x14 }
  - { offset: 0xFB4DB, size: 0x8, addend: 0x0, symName: __ZNSt3__16vectorIdNS_9allocatorIdEEE13shrink_to_fitEv, symObjAddr: 0x2FECC, symBinAddr: 0x33ECC, symSize: 0xB8 }
  - { offset: 0xFB4E6, size: 0x8, addend: 0x0, symName: __ZZ23whisper_full_with_stateEN14beam_candidateD1Ev, symObjAddr: 0x2FBD8, symBinAddr: 0x33BD8, symSize: 0xD0 }
  - { offset: 0xFBDC0, size: 0x8, addend: 0x0, symName: __ZNSt3__16vectorI18whisper_token_dataNS_9allocatorIS1_EEE18__insert_with_sizeB9nqe210106INS_11__wrap_iterIPS1_EES8_EES8_NS6_IPKS1_EET_T0_l, symObjAddr: 0x311C0, symBinAddr: 0x351C0, symSize: 0x30C }
  - { offset: 0xFC923, size: 0x8, addend: 0x0, symName: __ZNSt3__16vectorIN13whisper_state16vad_segment_infoENS_9allocatorIS2_EEE20__throw_length_errorB9nqe210106Ev, symObjAddr: 0x314CC, symBinAddr: 0x354CC, symSize: 0x14 }
  - { offset: 0xFC940, size: 0x8, addend: 0x0, symName: __ZNSt3__16vectorI18whisper_token_dataNS_9allocatorIS1_EEE18__assign_with_sizeB9nqe210106IPS1_S6_EEvT_T0_l, symObjAddr: 0x308A8, symBinAddr: 0x348A8, symSize: 0x18C }
  - { offset: 0xFD3B4, size: 0x8, addend: 0x0, symName: __ZNSt3__16vectorINS0_I23whisper_grammar_elementNS_9allocatorIS1_EEEENS2_IS4_EEE18__assign_with_sizeB9nqe210106IPS4_S8_EEvT_T0_l, symObjAddr: 0x30A34, symBinAddr: 0x34A34, symSize: 0x25C }
  - { offset: 0xFD3D5, size: 0x8, addend: 0x0, symName: _whisper_full, symObjAddr: 0x16ED4, symBinAddr: 0x1AED4, symSize: 0x19C }
  - { offset: 0xFDA8A, size: 0x8, addend: 0x0, symName: __ZL11whisper_vadP15whisper_contextP13whisper_state19whisper_full_paramsPKfiRNSt3__16vectorIfNS6_9allocatorIfEEEE, symObjAddr: 0x17070, symBinAddr: 0x1B070, symSize: 0xB40 }
  - { offset: 0x100E3E, size: 0x8, addend: 0x0, symName: __ZNSt3__16vectorI16vad_time_mappingNS_9allocatorIS1_EEE20__throw_length_errorB9nqe210106Ev, symObjAddr: 0x314E0, symBinAddr: 0x354E0, symSize: 0x14 }
  - { offset: 0x100E56, size: 0x8, addend: 0x0, symName: '__ZNSt3__111__introsortINS_17_ClassicAlgPolicyERZL11whisper_vadP15whisper_contextP13whisper_state19whisper_full_paramsPKfiRNS_6vectorIfNS_9allocatorIfEEEEE3$_0P16vad_time_mappingLb0EEEvT1_SI_T0_NS_15iterator_traitsISI_E15difference_typeEb', symObjAddr: 0x314F4, symBinAddr: 0x354F4, symSize: 0xB60 }
  - { offset: 0x100E61, size: 0x8, addend: 0x0, symName: __ZNSt3__16vectorIN13whisper_state16vad_segment_infoENS_9allocatorIS2_EEE20__throw_length_errorB9nqe210106Ev, symObjAddr: 0x314CC, symBinAddr: 0x354CC, symSize: 0x14 }
  - { offset: 0x100E79, size: 0x8, addend: 0x0, symName: __ZNSt3__16vectorI16vad_time_mappingNS_9allocatorIS1_EEE20__throw_length_errorB9nqe210106Ev, symObjAddr: 0x314E0, symBinAddr: 0x354E0, symSize: 0x14 }
  - { offset: 0x101584, size: 0x8, addend: 0x0, symName: _whisper_full_parallel, symObjAddr: 0x17BB0, symBinAddr: 0x1BBB0, symSize: 0xA94 }
  - { offset: 0x103684, size: 0x8, addend: 0x0, symName: __ZNSt3__16threadC2B9nqe210106IRFiP15whisper_contextP13whisper_state19whisper_full_paramsPKfiEJRS3_RS5_S6_S8_RKiELi0EEEOT_DpOT0_, symObjAddr: 0x394E4, symBinAddr: 0x3D4E4, symSize: 0x128 }
  - { offset: 0x103B60, size: 0x8, addend: 0x0, symName: __ZNSt3__16vectorI15whisper_segmentNS_9allocatorIS1_EEE20__throw_length_errorB9nqe210106Ev, symObjAddr: 0x36018, symBinAddr: 0x3A018, symSize: 0x14 }
  - { offset: 0x103B78, size: 0x8, addend: 0x0, symName: __ZNSt3__16vectorINS_12basic_stringIcNS_11char_traitsIcEENS_9allocatorIcEEEENS4_IS6_EEE16__init_with_sizeB9nqe210106IPKS6_SB_EEvT_T0_m, symObjAddr: 0x3602C, symBinAddr: 0x3A02C, symSize: 0x138 }
  - { offset: 0x103B83, size: 0x8, addend: 0x0, symName: __ZNSt3__16vectorIP13whisper_stateNS_9allocatorIS2_EEE20__throw_length_errorB9nqe210106Ev, symObjAddr: 0x394D0, symBinAddr: 0x3D4D0, symSize: 0x14 }
  - { offset: 0x103B9B, size: 0x8, addend: 0x0, symName: __ZNSt3__16threadC2B9nqe210106IRFiP15whisper_contextP13whisper_state19whisper_full_paramsPKfiEJRS3_RS5_S6_S8_RKiELi0EEEOT_DpOT0_, symObjAddr: 0x394E4, symBinAddr: 0x3D4E4, symSize: 0x128 }
  - { offset: 0x103BA6, size: 0x8, addend: 0x0, symName: _whisper_full_n_segments_from_state, symObjAddr: 0x18644, symBinAddr: 0x1C644, symSize: 0x20 }
  - { offset: 0x103BD6, size: 0x8, addend: 0x0, symName: _whisper_full_n_segments_from_state, symObjAddr: 0x18644, symBinAddr: 0x1C644, symSize: 0x20 }
  - { offset: 0x103BF6, size: 0x8, addend: 0x0, symName: _whisper_full_n_segments, symObjAddr: 0x18664, symBinAddr: 0x1C664, symSize: 0x24 }
  - { offset: 0x103C44, size: 0x8, addend: 0x0, symName: _whisper_full_lang_id_from_state, symObjAddr: 0x18688, symBinAddr: 0x1C688, symSize: 0xC }
  - { offset: 0x103C71, size: 0x8, addend: 0x0, symName: _whisper_full_lang_id, symObjAddr: 0x18694, symBinAddr: 0x1C694, symSize: 0x10 }
  - { offset: 0x103D9A, size: 0x8, addend: 0x0, symName: _whisper_full_get_segment_t0_from_state, symObjAddr: 0x186A4, symBinAddr: 0x1C6A4, symSize: 0xCC }
  - { offset: 0x104061, size: 0x8, addend: 0x0, symName: _whisper_full_get_segment_t1_from_state, symObjAddr: 0x18770, symBinAddr: 0x1C770, symSize: 0x1A4 }
  - { offset: 0x104579, size: 0x8, addend: 0x0, symName: _whisper_full_get_segment_t0, symObjAddr: 0x18914, symBinAddr: 0x1C914, symSize: 0xD0 }
  - { offset: 0x104836, size: 0x8, addend: 0x0, symName: _whisper_full_get_segment_t1, symObjAddr: 0x189E4, symBinAddr: 0x1C9E4, symSize: 0x8 }
  - { offset: 0x104889, size: 0x8, addend: 0x0, symName: _whisper_full_get_segment_speaker_turn_next_from_state, symObjAddr: 0x189EC, symBinAddr: 0x1C9EC, symSize: 0x14 }
  - { offset: 0x1048C8, size: 0x8, addend: 0x0, symName: _whisper_full_get_segment_speaker_turn_next_from_state, symObjAddr: 0x189EC, symBinAddr: 0x1C9EC, symSize: 0x14 }
  - { offset: 0x1048E8, size: 0x8, addend: 0x0, symName: _whisper_full_get_segment_speaker_turn_next, symObjAddr: 0x18A00, symBinAddr: 0x1CA00, symSize: 0x18 }
  - { offset: 0x104947, size: 0x8, addend: 0x0, symName: _whisper_full_get_segment_text_from_state, symObjAddr: 0x18A18, symBinAddr: 0x1CA18, symSize: 0x24 }
  - { offset: 0x104986, size: 0x8, addend: 0x0, symName: _whisper_full_get_segment_text_from_state, symObjAddr: 0x18A18, symBinAddr: 0x1CA18, symSize: 0x24 }
  - { offset: 0x104A2F, size: 0x8, addend: 0x0, symName: _whisper_full_get_segment_text, symObjAddr: 0x18A3C, symBinAddr: 0x1CA3C, symSize: 0x28 }
  - { offset: 0x104B17, size: 0x8, addend: 0x0, symName: _whisper_full_n_tokens_from_state, symObjAddr: 0x18A64, symBinAddr: 0x1CA64, symSize: 0x28 }
  - { offset: 0x104B56, size: 0x8, addend: 0x0, symName: _whisper_full_n_tokens_from_state, symObjAddr: 0x18A64, symBinAddr: 0x1CA64, symSize: 0x28 }
  - { offset: 0x104B97, size: 0x8, addend: 0x0, symName: _whisper_full_n_tokens, symObjAddr: 0x18A8C, symBinAddr: 0x1CA8C, symSize: 0x2C }
  - { offset: 0x104C17, size: 0x8, addend: 0x0, symName: _whisper_full_get_token_text_from_state, symObjAddr: 0x18AB8, symBinAddr: 0x1CAB8, symSize: 0x100 }
  - { offset: 0x105047, size: 0x8, addend: 0x0, symName: _whisper_full_get_token_text, symObjAddr: 0x18BB8, symBinAddr: 0x1CBB8, symSize: 0x104 }
  - { offset: 0x105466, size: 0x8, addend: 0x0, symName: _whisper_full_get_token_id_from_state, symObjAddr: 0x18CBC, symBinAddr: 0x1CCBC, symSize: 0x20 }
  - { offset: 0x1054B4, size: 0x8, addend: 0x0, symName: _whisper_full_get_token_id_from_state, symObjAddr: 0x18CBC, symBinAddr: 0x1CCBC, symSize: 0x20 }
  - { offset: 0x1054F5, size: 0x8, addend: 0x0, symName: _whisper_full_get_token_id, symObjAddr: 0x18CDC, symBinAddr: 0x1CCDC, symSize: 0x24 }
  - { offset: 0x105584, size: 0x8, addend: 0x0, symName: _whisper_full_get_token_data_from_state, symObjAddr: 0x18D00, symBinAddr: 0x1CD00, symSize: 0x34 }
  - { offset: 0x1055D0, size: 0x8, addend: 0x0, symName: _whisper_full_get_token_data_from_state, symObjAddr: 0x18D00, symBinAddr: 0x1CD00, symSize: 0x34 }
  - { offset: 0x105611, size: 0x8, addend: 0x0, symName: _whisper_full_get_token_data, symObjAddr: 0x18D34, symBinAddr: 0x1CD34, symSize: 0x38 }
  - { offset: 0x10569E, size: 0x8, addend: 0x0, symName: _whisper_full_get_token_p_from_state, symObjAddr: 0x18D6C, symBinAddr: 0x1CD6C, symSize: 0x20 }
  - { offset: 0x1056EA, size: 0x8, addend: 0x0, symName: _whisper_full_get_token_p_from_state, symObjAddr: 0x18D6C, symBinAddr: 0x1CD6C, symSize: 0x20 }
  - { offset: 0x10572B, size: 0x8, addend: 0x0, symName: _whisper_full_get_token_p, symObjAddr: 0x18D8C, symBinAddr: 0x1CD8C, symSize: 0x24 }
  - { offset: 0x1057B8, size: 0x8, addend: 0x0, symName: _whisper_full_get_segment_no_speech_prob, symObjAddr: 0x18DB0, symBinAddr: 0x1CDB0, symSize: 0x18 }
  - { offset: 0x105815, size: 0x8, addend: 0x0, symName: _whisper_full_get_segment_no_speech_prob_from_state, symObjAddr: 0x18DC8, symBinAddr: 0x1CDC8, symSize: 0x14 }
  - { offset: 0x105852, size: 0x8, addend: 0x0, symName: _whisper_full_get_segment_no_speech_prob_from_state, symObjAddr: 0x18DC8, symBinAddr: 0x1CDC8, symSize: 0x14 }
  - { offset: 0x105872, size: 0x8, addend: 0x0, symName: _whisper_bench_memcpy, symObjAddr: 0x18DDC, symBinAddr: 0x1CDDC, symSize: 0x28 }
  - { offset: 0x105D30, size: 0x8, addend: 0x0, symName: _whisper_bench_memcpy_str.cold.1, symObjAddr: 0x399F8, symBinAddr: 0x1463B0, symSize: 0x40 }
  - { offset: 0x105D8B, size: 0x8, addend: 0x0, symName: '__ZNSt3__110unique_ptrINS_5tupleIJNS0_INS_15__thread_structENS_14default_deleteIS2_EEEEZ24whisper_bench_memcpy_strE3$_0iEEENS3_IS7_EEED1B9nqe210106Ev', symObjAddr: 0x39824, symBinAddr: 0x3D824, symSize: 0x48 }
  - { offset: 0x105F4F, size: 0x8, addend: 0x0, symName: _whisper_bench_ggml_mul_mat, symObjAddr: 0x1A080, symBinAddr: 0x1E080, symSize: 0x28 }
  - { offset: 0x1063BE, size: 0x8, addend: 0x0, symName: _whisper_bench_ggml_mul_mat_str.cold.1, symObjAddr: 0x39A38, symBinAddr: 0x1463F0, symSize: 0x40 }
  - { offset: 0x106419, size: 0x8, addend: 0x0, symName: _whisper_log_set, symObjAddr: 0x1A788, symBinAddr: 0x1E788, symSize: 0x24 }
  - { offset: 0x106468, size: 0x8, addend: 0x0, symName: __ZL28whisper_log_callback_default14ggml_log_levelPKcPv, symObjAddr: 0x1A7AC, symBinAddr: 0x1E7AC, symSize: 0x40 }
  - { offset: 0x1064CE, size: 0x8, addend: 0x0, symName: _whisper_version, symObjAddr: 0x1A7EC, symBinAddr: 0x1E7EC, symSize: 0xC }
  - { offset: 0x106857, size: 0x8, addend: 0x0, symName: __ZNSt3__13mapI10asr_tensorPKcNS_4lessIS1_EENS_9allocatorINS_4pairIKS1_S3_EEEEE6insertB9nqe210106INS_20__map_const_iteratorINS_21__tree_const_iteratorINS_12__value_typeIS1_S3_EEPNS_11__tree_nodeISG_PvEElEEEEEEvT_SN_, symObjAddr: 0x1A7F8, symBinAddr: 0x1E7F8, symSize: 0xF4 }
  - { offset: 0x10689F, size: 0x8, addend: 0x0, symName: __ZNSt3__13mapI10asr_tensorPKcNS_4lessIS1_EENS_9allocatorINS_4pairIKS1_S3_EEEEE6insertB9nqe210106INS_20__map_const_iteratorINS_21__tree_const_iteratorINS_12__value_typeIS1_S3_EEPNS_11__tree_nodeISG_PvEElEEEEEEvT_SN_, symObjAddr: 0x1A7F8, symBinAddr: 0x1E7F8, symSize: 0xF4 }
  - { offset: 0x106BF2, size: 0x8, addend: 0x0, symName: __ZNSt3__16__treeINS_12__value_typeI10asr_tensorPKcEENS_19__map_value_compareIS2_NS_4pairIKS2_S4_EENS_4lessIS2_EELb1EEENS_9allocatorIS9_EEE12__find_equalIS2_EERPNS_16__tree_node_baseIPvEENS_21__tree_const_iteratorIS5_PNS_11__tree_nodeIS5_SI_EElEERPNS_15__tree_end_nodeISK_EESL_RKT_, symObjAddr: 0x1A8EC, symBinAddr: 0x1E8EC, symSize: 0x1A0 }
  - { offset: 0x106C38, size: 0x8, addend: 0x0, symName: __ZNSt3__16__treeINS_12__value_typeI10asr_tensorPKcEENS_19__map_value_compareIS2_NS_4pairIKS2_S4_EENS_4lessIS2_EELb1EEENS_9allocatorIS9_EEE12__find_equalIS2_EERPNS_16__tree_node_baseIPvEENS_21__tree_const_iteratorIS5_PNS_11__tree_nodeIS5_SI_EElEERPNS_15__tree_end_nodeISK_EESL_RKT_, symObjAddr: 0x1A8EC, symBinAddr: 0x1E8EC, symSize: 0x1A0 }
  - { offset: 0x106C56, size: 0x8, addend: 0x0, symName: __ZNSt3__16__treeINS_12__value_typeI10asr_tensorPKcEENS_19__map_value_compareIS2_NS_4pairIKS2_S4_EENS_4lessIS2_EELb1EEENS_9allocatorIS9_EEE12__find_equalIS2_EERPNS_16__tree_node_baseIPvEENS_21__tree_const_iteratorIS5_PNS_11__tree_nodeIS5_SI_EElEERPNS_15__tree_end_nodeISK_EESL_RKT_, symObjAddr: 0x1A8EC, symBinAddr: 0x1E8EC, symSize: 0x1A0 }
  - { offset: 0x107185, size: 0x8, addend: 0x0, symName: __ZNSt3__16__treeINS_12__value_typeI10asr_tensorPKcEENS_19__map_value_compareIS2_NS_4pairIKS2_S4_EENS_4lessIS2_EELb1EEENS_9allocatorIS9_EEE7destroyEPNS_11__tree_nodeIS5_PvEE, symObjAddr: 0x1AC88, symBinAddr: 0x1EC88, symSize: 0x44 }
  - { offset: 0x1074EF, size: 0x8, addend: 0x0, symName: __ZN15whisper_decoderD2Ev, symObjAddr: 0x1B10C, symBinAddr: 0x1F10C, symSize: 0x110 }
  - { offset: 0x108025, size: 0x8, addend: 0x0, symName: __ZNSt12length_errorC1B9nqe210106EPKc, symObjAddr: 0x1B2C4, symBinAddr: 0x1F2C4, symSize: 0x24 }
  - { offset: 0x108668, size: 0x8, addend: 0x0, symName: __ZNSt3__16vectorI15whisper_kv_cellNS_9allocatorIS1_EEE20__throw_length_errorB9nqe210106Ev, symObjAddr: 0x1B4B8, symBinAddr: 0x1F4B8, symSize: 0x14 }
  - { offset: 0x108680, size: 0x8, addend: 0x0, symName: __ZL28get_alignment_heads_by_layerRK22whisper_context_paramsiii, symObjAddr: 0x1B4CC, symBinAddr: 0x1F4CC, symSize: 0x2A0 }
  - { offset: 0x1089AC, size: 0x8, addend: 0x0, symName: __ZNSt3__16vectorIjNS_9allocatorIjEEE20__throw_length_errorB9nqe210106Ev, symObjAddr: 0x1B7E0, symBinAddr: 0x1F7E0, symSize: 0x14 }
  - { offset: 0x1089C4, size: 0x8, addend: 0x0, symName: __ZNSt3__16vectorIP11ggml_tensorNS_9allocatorIS2_EEE20__throw_length_errorB9nqe210106Ev, symObjAddr: 0x1B7F4, symBinAddr: 0x1F7F4, symSize: 0x14 }
  - { offset: 0x1089CF, size: 0x8, addend: 0x0, symName: __ZNSt12out_of_rangeC1B9nqe210106EPKc, symObjAddr: 0x1B7BC, symBinAddr: 0x1F7BC, symSize: 0x24 }
  - { offset: 0x108AB3, size: 0x8, addend: 0x0, symName: __ZNSt3__117bad_function_callD1Ev, symObjAddr: 0x1B83C, symBinAddr: 0x1F83C, symSize: 0x4 }
  - { offset: 0x108AD7, size: 0x8, addend: 0x0, symName: __ZNSt3__117bad_function_callD1Ev, symObjAddr: 0x1B83C, symBinAddr: 0x1F83C, symSize: 0x4 }
  - { offset: 0x108B10, size: 0x8, addend: 0x0, symName: __ZNSt3__117bad_function_callD0Ev, symObjAddr: 0x1B840, symBinAddr: 0x1F840, symSize: 0x14 }
  - { offset: 0x108BD1, size: 0x8, addend: 0x0, symName: '__ZZ43whisper_init_from_file_with_params_no_stateEN3$_08__invokeEPvS0_m', symObjAddr: 0x1B854, symBinAddr: 0x1F854, symSize: 0x24 }
  - { offset: 0x108CCC, size: 0x8, addend: 0x0, symName: '__ZZ43whisper_init_from_file_with_params_no_stateEN3$_18__invokeEPv', symObjAddr: 0x1B878, symBinAddr: 0x1F878, symSize: 0x18 }
  - { offset: 0x108CF9, size: 0x8, addend: 0x0, symName: '__ZZ43whisper_init_from_file_with_params_no_stateEN3$_18__invokeEPv', symObjAddr: 0x1B878, symBinAddr: 0x1F878, symSize: 0x18 }
  - { offset: 0x108DBB, size: 0x8, addend: 0x0, symName: '__ZZ43whisper_init_from_file_with_params_no_stateEN3$_28__invokeEPv', symObjAddr: 0x1B890, symBinAddr: 0x1F890, symSize: 0x48 }
  - { offset: 0x108ED6, size: 0x8, addend: 0x0, symName: '__ZZ45whisper_init_from_buffer_with_params_no_stateEN3$_08__invokeEPvS0_m', symObjAddr: 0x1B8D8, symBinAddr: 0x1F8D8, symSize: 0x58 }
  - { offset: 0x108FA5, size: 0x8, addend: 0x0, symName: '__ZZ45whisper_init_from_buffer_with_params_no_stateEN3$_18__invokeEPv', symObjAddr: 0x1B930, symBinAddr: 0x1F930, symSize: 0x10 }
  - { offset: 0x108FE5, size: 0x8, addend: 0x0, symName: '__ZZ45whisper_init_from_buffer_with_params_no_stateEN3$_28__invokeEPv', symObjAddr: 0x1B940, symBinAddr: 0x1F940, symSize: 0x4 }
  - { offset: 0x109480, size: 0x8, addend: 0x0, symName: __ZNKSt3__13mapI10asr_systemNS0_I10asr_tensorPKcNS_4lessIS2_EENS_9allocatorINS_4pairIKS2_S4_EEEEEENS5_IS1_EENS7_INS8_IKS1_SC_EEEEE2atERSE_, symObjAddr: 0x1C6F0, symBinAddr: 0x206F0, symSize: 0x54 }
  - { offset: 0x109582, size: 0x8, addend: 0x0, symName: __ZNKSt3__13mapI10asr_tensorPKcNS_4lessIS1_EENS_9allocatorINS_4pairIKS1_S3_EEEEE2atERS8_, symObjAddr: 0x1C744, symBinAddr: 0x20744, symSize: 0x54 }
  - { offset: 0x109684, size: 0x8, addend: 0x0, symName: '__ZZL18whisper_model_loadP20whisper_model_loaderR15whisper_contextENK3$_1clE10asr_tensor10asr_systemP11ggml_tensori.cold.1', symObjAddr: 0x39A78, symBinAddr: 0x146430, symSize: 0xC }
  - { offset: 0x109A3D, size: 0x8, addend: 0x0, symName: __ZNSt3__110unique_ptrINS_11__tree_nodeINS_12__value_typeINS_12basic_stringIcNS_11char_traitsIcEENS_9allocatorIcEEEEiEEPvEENS_22__tree_node_destructorINS6_ISB_EEEEED1B9nqe210106Ev, symObjAddr: 0x1C20C, symBinAddr: 0x2020C, symSize: 0x60 }
  - { offset: 0x10A168, size: 0x8, addend: 0x0, symName: __ZNSt3__16vectorI21whisper_layer_encoderNS_9allocatorIS1_EEE20__throw_length_errorB9nqe210106Ev, symObjAddr: 0x1C3F8, symBinAddr: 0x203F8, symSize: 0x14 }
  - { offset: 0x10A180, size: 0x8, addend: 0x0, symName: __ZNSt3__16vectorI21whisper_layer_decoderNS_9allocatorIS1_EEE8__appendEm, symObjAddr: 0x1C40C, symBinAddr: 0x2040C, symSize: 0x17C }
  - { offset: 0x10A4BE, size: 0x8, addend: 0x0, symName: __ZNSt3__16vectorI21whisper_layer_decoderNS_9allocatorIS1_EEE20__throw_length_errorB9nqe210106Ev, symObjAddr: 0x1C588, symBinAddr: 0x20588, symSize: 0x14 }
  - { offset: 0x10A4D6, size: 0x8, addend: 0x0, symName: __ZL6formatPKcz, symObjAddr: 0x1C59C, symBinAddr: 0x2059C, symSize: 0x154 }
  - { offset: 0x10A965, size: 0x8, addend: 0x0, symName: __ZNSt3__16__treeINS_12__value_typeIiNS_12basic_stringIcNS_11char_traitsIcEENS_9allocatorIcEEEEEENS_19__map_value_compareIiNS_4pairIKiS7_EENS_4lessIiEELb1EEENS5_ISC_EEE7destroyEPNS_11__tree_nodeIS8_PvEE, symObjAddr: 0x1C898, symBinAddr: 0x20898, symSize: 0x60 }
  - { offset: 0x10AB9F, size: 0x8, addend: 0x0, symName: __ZNSt3__16__treeINS_12__value_typeINS_12basic_stringIcNS_11char_traitsIcEENS_9allocatorIcEEEEiEENS_19__map_value_compareIS7_NS_4pairIKS7_iEENS_4lessIS7_EELb1EEENS5_ISC_EEE7destroyEPNS_11__tree_nodeIS8_PvEE, symObjAddr: 0x1C8F8, symBinAddr: 0x208F8, symSize: 0x60 }
  - { offset: 0x10ADD9, size: 0x8, addend: 0x0, symName: __ZNSt3__16__treeINS_12__value_typeINS_12basic_stringIcNS_11char_traitsIcEENS_9allocatorIcEEEEP11ggml_tensorEENS_19__map_value_compareIS7_NS_4pairIKS7_S9_EENS_4lessIS7_EELb1EEENS5_ISE_EEE7destroyEPNS_11__tree_nodeISA_PvEE, symObjAddr: 0x1C958, symBinAddr: 0x20958, symSize: 0x60 }
  - { offset: 0x10B50F, size: 0x8, addend: 0x0, symName: __ZL3fftPfiS_, symObjAddr: 0x1D4DC, symBinAddr: 0x214DC, symSize: 0x5B4 }
  - { offset: 0x10BF2D, size: 0x8, addend: 0x0, symName: __ZNSt3__110unique_ptrINS_5tupleIJNS0_INS_15__thread_structENS_14default_deleteIS2_EEEEPFviPKfRKNS_6vectorIfNS_9allocatorIfEEEEiiiiRK15whisper_filtersR11whisper_melEiS7_NS_17reference_wrapperISC_EExiiiNSL_ISF_EENSL_ISH_EEEEENS3_ISP_EEED1B9nqe210106Ev, symObjAddr: 0x1DC60, symBinAddr: 0x21C60, symSize: 0x48 }
  - { offset: 0x10C53C, size: 0x8, addend: 0x0, symName: __ZL27whisper_build_graph_encoderR15whisper_contextR13whisper_state.cold.1, symObjAddr: 0x39A84, symBinAddr: 0x14643C, symSize: 0x20 }
  - { offset: 0x10C598, size: 0x8, addend: 0x0, symName: __ZL27whisper_build_graph_decoderR15whisper_contextR13whisper_stateRK13whisper_batchbb.cold.1, symObjAddr: 0x39AA4, symBinAddr: 0x14645C, symSize: 0x20 }
  - { offset: 0x10C64A, size: 0x8, addend: 0x0, symName: __ZNSt3__111basic_regexIcNS_12regex_traitsIcEEE7__parseINS_11__wrap_iterIPKcEEEET_S9_S9_, symObjAddr: 0x1F884, symBinAddr: 0x23884, symSize: 0x208 }
  - { offset: 0x10CB88, size: 0x8, addend: 0x0, symName: __ZNSt3__110shared_ptrINS_13__empty_stateIcEEED1B9nqe210106Ev, symObjAddr: 0x1F820, symBinAddr: 0x23820, symSize: 0x64 }
  - { offset: 0x10D0CC, size: 0x8, addend: 0x0, symName: __ZNSt3__111basic_regexIcNS_12regex_traitsIcEEE13__parse_egrepINS_11__wrap_iterIPKcEEEET_S9_S9_, symObjAddr: 0x20184, symBinAddr: 0x24184, symSize: 0x1A0 }
  - { offset: 0x10D6CB, size: 0x8, addend: 0x0, symName: __ZNSt3__111basic_regexIcNS_12regex_traitsIcEEE24__parse_extended_reg_expINS_11__wrap_iterIPKcEEEET_S9_S9_, symObjAddr: 0x1FE80, symBinAddr: 0x23E80, symSize: 0x164 }
  - { offset: 0x10DA45, size: 0x8, addend: 0x0, symName: __ZNSt3__111basic_regexIcNS_12regex_traitsIcEEE12__parse_grepINS_11__wrap_iterIPKcEEEET_S9_S9_, symObjAddr: 0x1FFE4, symBinAddr: 0x23FE4, symSize: 0x1A0 }
  - { offset: 0x10DA59, size: 0x8, addend: 0x0, symName: __ZNSt3__111basic_regexIcNS_12regex_traitsIcEEE21__parse_basic_reg_expINS_11__wrap_iterIPKcEEEET_S9_S9_, symObjAddr: 0x1FD20, symBinAddr: 0x23D20, symSize: 0x160 }
  - { offset: 0x10DE2E, size: 0x8, addend: 0x0, symName: __ZNSt3__111basic_regexIcNS_12regex_traitsIcEEE24__parse_extended_reg_expINS_11__wrap_iterIPKcEEEET_S9_S9_, symObjAddr: 0x1FE80, symBinAddr: 0x23E80, symSize: 0x164 }
  - { offset: 0x10DE42, size: 0x8, addend: 0x0, symName: __ZNSt3__111basic_regexIcNS_12regex_traitsIcEEE12__parse_grepINS_11__wrap_iterIPKcEEEET_S9_S9_, symObjAddr: 0x1FFE4, symBinAddr: 0x23FE4, symSize: 0x1A0 }
  - { offset: 0x10E441, size: 0x8, addend: 0x0, symName: __ZNSt3__111basic_regexIcNS_12regex_traitsIcEEE16__parse_ecma_expINS_11__wrap_iterIPKcEEEET_S9_S9_, symObjAddr: 0x1FAD8, symBinAddr: 0x23AD8, symSize: 0x248 }
  - { offset: 0x10EC20, size: 0x8, addend: 0x0, symName: __ZNSt3__111basic_regexIcNS_12regex_traitsIcEEE17__parse_assertionINS_11__wrap_iterIPKcEEEET_S9_S9_, symObjAddr: 0x20564, symBinAddr: 0x24564, symSize: 0x364 }
  - { offset: 0x10F362, size: 0x8, addend: 0x0, symName: __ZNSt3__111basic_regexIcNS_12regex_traitsIcEEE12__parse_atomINS_11__wrap_iterIPKcEEEET_S9_S9_, symObjAddr: 0x208C8, symBinAddr: 0x248C8, symSize: 0x268 }
  - { offset: 0x10F767, size: 0x8, addend: 0x0, symName: __ZNSt3__111basic_regexIcNS_12regex_traitsIcEEE23__parse_ERE_dupl_symbolINS_11__wrap_iterIPKcEEEET_S9_S9_PNS_16__owns_one_stateIcEEjj, symObjAddr: 0x20B30, symBinAddr: 0x24B30, symSize: 0x3D0 }
  - { offset: 0x10F77B, size: 0x8, addend: 0x0, symName: __ZNSt3__111basic_regexIcNS_12regex_traitsIcEEE23__parse_ERE_dupl_symbolINS_11__wrap_iterIPKcEEEET_S9_S9_PNS_16__owns_one_stateIcEEjj, symObjAddr: 0x20B30, symBinAddr: 0x24B30, symSize: 0x3D0 }
  - { offset: 0x10FE9E, size: 0x8, addend: 0x0, symName: __ZNSt3__111basic_regexIcNS_12regex_traitsIcEEEC1B9nqe210106Ev, symObjAddr: 0x20F00, symBinAddr: 0x24F00, symSize: 0x6C }
  - { offset: 0x110097, size: 0x8, addend: 0x0, symName: __ZNSt3__111basic_regexIcNS_12regex_traitsIcEEE18__parse_nondupl_REINS_11__wrap_iterIPKcEEEET_S9_S9_, symObjAddr: 0x27528, symBinAddr: 0x2B528, symSize: 0x334 }
  - { offset: 0x11080E, size: 0x8, addend: 0x0, symName: __ZNSt3__111basic_regexIcNS_12regex_traitsIcEEE22__parse_RE_dupl_symbolINS_11__wrap_iterIPKcEEEET_S9_S9_PNS_16__owns_one_stateIcEEjj, symObjAddr: 0x2785C, symBinAddr: 0x2B85C, symSize: 0x268 }
  - { offset: 0x110822, size: 0x8, addend: 0x0, symName: __ZNSt3__111basic_regexIcNS_12regex_traitsIcEEE22__parse_RE_dupl_symbolINS_11__wrap_iterIPKcEEEET_S9_S9_PNS_16__owns_one_stateIcEEjj, symObjAddr: 0x2785C, symBinAddr: 0x2B85C, symSize: 0x268 }
  - { offset: 0x110E50, size: 0x8, addend: 0x0, symName: __ZNSt3__111__match_anyIcED1Ev, symObjAddr: 0x27AC4, symBinAddr: 0x2BAC4, symSize: 0x48 }
  - { offset: 0x110EA8, size: 0x8, addend: 0x0, symName: __ZNSt3__111basic_regexIcNS_12regex_traitsIcEEE22__parse_ERE_expressionINS_11__wrap_iterIPKcEEEET_S9_S9_, symObjAddr: 0x27BF0, symBinAddr: 0x2BBF0, symSize: 0x258 }
  - { offset: 0x1113FA, size: 0x8, addend: 0x0, symName: __ZNSt3__111basic_regexIcNS_12regex_traitsIcEEE20__parse_ORD_CHAR_EREINS_11__wrap_iterIPKcEEEET_S9_S9_, symObjAddr: 0x27E48, symBinAddr: 0x2BE48, symSize: 0x94 }
  - { offset: 0x11142A, size: 0x8, addend: 0x0, symName: __ZNSt3__111__end_stateIcED1Ev, symObjAddr: 0x20370, symBinAddr: 0x24370, symSize: 0x4 }
  - { offset: 0x11145A, size: 0x8, addend: 0x0, symName: __ZNSt3__111__end_stateIcED0Ev, symObjAddr: 0x20374, symBinAddr: 0x24374, symSize: 0x4 }
  - { offset: 0x11147B, size: 0x8, addend: 0x0, symName: __ZNKSt3__111__end_stateIcE6__execERNS_7__stateIcEE, symObjAddr: 0x20378, symBinAddr: 0x24378, symSize: 0xC }
  - { offset: 0x1114AF, size: 0x8, addend: 0x0, symName: __ZNKSt3__16__nodeIcE12__exec_splitEbRNS_7__stateIcEE, symObjAddr: 0x20384, symBinAddr: 0x24384, symSize: 0x4 }
  - { offset: 0x1114EF, size: 0x8, addend: 0x0, symName: __ZNKSt3__16__nodeIcE6__execERNS_7__stateIcEE, symObjAddr: 0x20388, symBinAddr: 0x24388, symSize: 0x4 }
  - { offset: 0x11153F, size: 0x8, addend: 0x0, symName: __ZNSt3__120__shared_ptr_pointerIPNS_13__empty_stateIcEENS_10shared_ptrIS2_E27__shared_ptr_default_deleteIS2_S2_EENS_9allocatorIS2_EEED1Ev, symObjAddr: 0x2038C, symBinAddr: 0x2438C, symSize: 0x4 }
  - { offset: 0x111563, size: 0x8, addend: 0x0, symName: __ZNSt3__120__shared_ptr_pointerIPNS_13__empty_stateIcEENS_10shared_ptrIS2_E27__shared_ptr_default_deleteIS2_S2_EENS_9allocatorIS2_EEED1Ev, symObjAddr: 0x2038C, symBinAddr: 0x2438C, symSize: 0x4 }
  - { offset: 0x11159E, size: 0x8, addend: 0x0, symName: __ZNSt3__120__shared_ptr_pointerIPNS_13__empty_stateIcEENS_10shared_ptrIS2_E27__shared_ptr_default_deleteIS2_S2_EENS_9allocatorIS2_EEED0Ev, symObjAddr: 0x20390, symBinAddr: 0x24390, symSize: 0x14 }
  - { offset: 0x111605, size: 0x8, addend: 0x0, symName: __ZNSt3__120__shared_ptr_pointerIPNS_13__empty_stateIcEENS_10shared_ptrIS2_E27__shared_ptr_default_deleteIS2_S2_EENS_9allocatorIS2_EEE16__on_zero_sharedEv, symObjAddr: 0x203A4, symBinAddr: 0x243A4, symSize: 0x18 }
  - { offset: 0x1116AF, size: 0x8, addend: 0x0, symName: __ZNKSt3__120__shared_ptr_pointerIPNS_13__empty_stateIcEENS_10shared_ptrIS2_E27__shared_ptr_default_deleteIS2_S2_EENS_9allocatorIS2_EEE13__get_deleterERKSt9type_info, symObjAddr: 0x203BC, symBinAddr: 0x243BC, symSize: 0x70 }
  - { offset: 0x1117C6, size: 0x8, addend: 0x0, symName: __ZNSt3__120__shared_ptr_pointerIPNS_13__empty_stateIcEENS_10shared_ptrIS2_E27__shared_ptr_default_deleteIS2_S2_EENS_9allocatorIS2_EEE21__on_zero_shared_weakEv, symObjAddr: 0x2042C, symBinAddr: 0x2442C, symSize: 0x4 }
  - { offset: 0x1117FA, size: 0x8, addend: 0x0, symName: __ZNSt3__120__shared_ptr_pointerIPNS_13__empty_stateIcEENS_10shared_ptrIS2_E27__shared_ptr_default_deleteIS2_S2_EENS_9allocatorIS2_EEE21__on_zero_shared_weakEv, symObjAddr: 0x2042C, symBinAddr: 0x2442C, symSize: 0x4 }
  - { offset: 0x11181E, size: 0x8, addend: 0x0, symName: __ZNSt3__120__shared_ptr_pointerIPNS_13__empty_stateIcEENS_10shared_ptrIS2_E27__shared_ptr_default_deleteIS2_S2_EENS_9allocatorIS2_EEE21__on_zero_shared_weakEv, symObjAddr: 0x2042C, symBinAddr: 0x2442C, symSize: 0x4 }
  - { offset: 0x11185F, size: 0x8, addend: 0x0, symName: __ZNSt3__113__empty_stateIcED1Ev, symObjAddr: 0x20430, symBinAddr: 0x24430, symSize: 0x48 }
  - { offset: 0x111885, size: 0x8, addend: 0x0, symName: __ZNSt3__113__empty_stateIcED1Ev, symObjAddr: 0x20430, symBinAddr: 0x24430, symSize: 0x48 }
  - { offset: 0x1118A5, size: 0x8, addend: 0x0, symName: __ZNSt3__113__empty_stateIcED1Ev, symObjAddr: 0x20430, symBinAddr: 0x24430, symSize: 0x48 }
  - { offset: 0x1118D0, size: 0x8, addend: 0x0, symName: __ZNSt3__113__empty_stateIcED0Ev, symObjAddr: 0x20478, symBinAddr: 0x24478, symSize: 0x48 }
  - { offset: 0x1118F6, size: 0x8, addend: 0x0, symName: __ZNSt3__113__empty_stateIcED0Ev, symObjAddr: 0x20478, symBinAddr: 0x24478, symSize: 0x48 }
  - { offset: 0x111916, size: 0x8, addend: 0x0, symName: __ZNSt3__113__empty_stateIcED0Ev, symObjAddr: 0x20478, symBinAddr: 0x24478, symSize: 0x48 }
  - { offset: 0x111936, size: 0x8, addend: 0x0, symName: __ZNSt3__113__empty_stateIcED0Ev, symObjAddr: 0x20478, symBinAddr: 0x24478, symSize: 0x48 }
  - { offset: 0x11197E, size: 0x8, addend: 0x0, symName: __ZNKSt3__113__empty_stateIcE6__execERNS_7__stateIcEE, symObjAddr: 0x204C0, symBinAddr: 0x244C0, symSize: 0x14 }
  - { offset: 0x1119D1, size: 0x8, addend: 0x0, symName: __ZNSt3__116__owns_one_stateIcED1Ev, symObjAddr: 0x204D4, symBinAddr: 0x244D4, symSize: 0x48 }
  - { offset: 0x1119F7, size: 0x8, addend: 0x0, symName: __ZNSt3__116__owns_one_stateIcED1Ev, symObjAddr: 0x204D4, symBinAddr: 0x244D4, symSize: 0x48 }
  - { offset: 0x111A3F, size: 0x8, addend: 0x0, symName: __ZNSt3__116__owns_one_stateIcED0Ev, symObjAddr: 0x2051C, symBinAddr: 0x2451C, symSize: 0x48 }
  - { offset: 0x111A6D, size: 0x8, addend: 0x0, symName: __ZNSt3__116__owns_one_stateIcED0Ev, symObjAddr: 0x2051C, symBinAddr: 0x2451C, symSize: 0x48 }
  - { offset: 0x111A8D, size: 0x8, addend: 0x0, symName: __ZNSt3__116__owns_one_stateIcED0Ev, symObjAddr: 0x2051C, symBinAddr: 0x2451C, symSize: 0x48 }
  - { offset: 0x111BA0, size: 0x8, addend: 0x0, symName: __ZNSt3__111basic_regexIcNS_12regex_traitsIcEEEC1B9nqe210106Ev, symObjAddr: 0x20F00, symBinAddr: 0x24F00, symSize: 0x6C }
  - { offset: 0x111C73, size: 0x8, addend: 0x0, symName: __ZNSt3__111basic_regexIcNS_12regex_traitsIcEEE16__push_lookaheadERKS3_bj, symObjAddr: 0x20F6C, symBinAddr: 0x24F6C, symSize: 0xB4 }
  - { offset: 0x11200E, size: 0x8, addend: 0x0, symName: __ZNSt3__111basic_regexIcNS_12regex_traitsIcEEE26__parse_bracket_expressionINS_11__wrap_iterIPKcEEEET_S9_S9_, symObjAddr: 0x2279C, symBinAddr: 0x2679C, symSize: 0x160 }
  - { offset: 0x112263, size: 0x8, addend: 0x0, symName: __ZNSt3__111basic_regexIcNS_12regex_traitsIcEEE19__parse_atom_escapeINS_11__wrap_iterIPKcEEEET_S9_S9_, symObjAddr: 0x22620, symBinAddr: 0x26620, symSize: 0x17C }
  - { offset: 0x112445, size: 0x8, addend: 0x0, symName: __ZNSt3__111basic_regexIcNS_12regex_traitsIcEEE26__parse_bracket_expressionINS_11__wrap_iterIPKcEEEET_S9_S9_, symObjAddr: 0x2279C, symBinAddr: 0x2679C, symSize: 0x160 }
  - { offset: 0x112459, size: 0x8, addend: 0x0, symName: __ZNSt3__111basic_regexIcNS_12regex_traitsIcEEE25__parse_pattern_characterINS_11__wrap_iterIPKcEEEET_S9_S9_, symObjAddr: 0x22948, symBinAddr: 0x26948, symSize: 0x7C }
  - { offset: 0x112630, size: 0x8, addend: 0x0, symName: __ZNSt3__111basic_regexIcNS_12regex_traitsIcEEE11__push_loopEmmPNS_16__owns_one_stateIcEEmmb, symObjAddr: 0x26D98, symBinAddr: 0x2AD98, symSize: 0x13C }
  - { offset: 0x112C29, size: 0x8, addend: 0x0, symName: __ZNSt3__120__l_anchor_multilineIcED1Ev, symObjAddr: 0x2106C, symBinAddr: 0x2506C, symSize: 0x48 }
  - { offset: 0x112C4F, size: 0x8, addend: 0x0, symName: __ZNSt3__120__l_anchor_multilineIcED1Ev, symObjAddr: 0x2106C, symBinAddr: 0x2506C, symSize: 0x48 }
  - { offset: 0x112C6F, size: 0x8, addend: 0x0, symName: __ZNSt3__120__l_anchor_multilineIcED1Ev, symObjAddr: 0x2106C, symBinAddr: 0x2506C, symSize: 0x48 }
  - { offset: 0x112CBB, size: 0x8, addend: 0x0, symName: __ZNSt3__120__l_anchor_multilineIcED0Ev, symObjAddr: 0x210B4, symBinAddr: 0x250B4, symSize: 0x48 }
  - { offset: 0x112CEC, size: 0x8, addend: 0x0, symName: __ZNSt3__120__l_anchor_multilineIcED0Ev, symObjAddr: 0x210B4, symBinAddr: 0x250B4, symSize: 0x48 }
  - { offset: 0x112D0C, size: 0x8, addend: 0x0, symName: __ZNSt3__120__l_anchor_multilineIcED0Ev, symObjAddr: 0x210B4, symBinAddr: 0x250B4, symSize: 0x48 }
  - { offset: 0x112D2C, size: 0x8, addend: 0x0, symName: __ZNSt3__120__l_anchor_multilineIcED0Ev, symObjAddr: 0x210B4, symBinAddr: 0x250B4, symSize: 0x48 }
  - { offset: 0x112D58, size: 0x8, addend: 0x0, symName: __ZNKSt3__120__l_anchor_multilineIcE6__execERNS_7__stateIcEE, symObjAddr: 0x210FC, symBinAddr: 0x250FC, symSize: 0x68 }
  - { offset: 0x112DC1, size: 0x8, addend: 0x0, symName: __ZNSt3__120__r_anchor_multilineIcED1Ev, symObjAddr: 0x21164, symBinAddr: 0x25164, symSize: 0x48 }
  - { offset: 0x112DE7, size: 0x8, addend: 0x0, symName: __ZNSt3__120__r_anchor_multilineIcED1Ev, symObjAddr: 0x21164, symBinAddr: 0x25164, symSize: 0x48 }
  - { offset: 0x112E07, size: 0x8, addend: 0x0, symName: __ZNSt3__120__r_anchor_multilineIcED1Ev, symObjAddr: 0x21164, symBinAddr: 0x25164, symSize: 0x48 }
  - { offset: 0x112E53, size: 0x8, addend: 0x0, symName: __ZNSt3__120__r_anchor_multilineIcED0Ev, symObjAddr: 0x211AC, symBinAddr: 0x251AC, symSize: 0x48 }
  - { offset: 0x112E84, size: 0x8, addend: 0x0, symName: __ZNSt3__120__r_anchor_multilineIcED0Ev, symObjAddr: 0x211AC, symBinAddr: 0x251AC, symSize: 0x48 }
  - { offset: 0x112EA4, size: 0x8, addend: 0x0, symName: __ZNSt3__120__r_anchor_multilineIcED0Ev, symObjAddr: 0x211AC, symBinAddr: 0x251AC, symSize: 0x48 }
  - { offset: 0x112EC4, size: 0x8, addend: 0x0, symName: __ZNSt3__120__r_anchor_multilineIcED0Ev, symObjAddr: 0x211AC, symBinAddr: 0x251AC, symSize: 0x48 }
  - { offset: 0x112EF0, size: 0x8, addend: 0x0, symName: __ZNKSt3__120__r_anchor_multilineIcE6__execERNS_7__stateIcEE, symObjAddr: 0x211F4, symBinAddr: 0x251F4, symSize: 0x54 }
  - { offset: 0x112F59, size: 0x8, addend: 0x0, symName: __ZNSt3__115__word_boundaryIcNS_12regex_traitsIcEEED1Ev, symObjAddr: 0x21248, symBinAddr: 0x25248, symSize: 0x58 }
  - { offset: 0x113014, size: 0x8, addend: 0x0, symName: __ZNSt3__115__word_boundaryIcNS_12regex_traitsIcEEED0Ev, symObjAddr: 0x212A0, symBinAddr: 0x252A0, symSize: 0x58 }
  - { offset: 0x113134, size: 0x8, addend: 0x0, symName: __ZNKSt3__115__word_boundaryIcNS_12regex_traitsIcEEE6__execERNS_7__stateIcEE, symObjAddr: 0x212F8, symBinAddr: 0x252F8, symSize: 0x154 }
  - { offset: 0x11330C, size: 0x8, addend: 0x0, symName: __ZNSt3__111__lookaheadIcNS_12regex_traitsIcEEED1Ev, symObjAddr: 0x2144C, symBinAddr: 0x2544C, symSize: 0x94 }
  - { offset: 0x113482, size: 0x8, addend: 0x0, symName: __ZNSt3__111__lookaheadIcNS_12regex_traitsIcEEED0Ev, symObjAddr: 0x214E0, symBinAddr: 0x254E0, symSize: 0x94 }
  - { offset: 0x1136C4, size: 0x8, addend: 0x0, symName: __ZNKSt3__111__lookaheadIcNS_12regex_traitsIcEEE6__execERNS_7__stateIcEE, symObjAddr: 0x21574, symBinAddr: 0x25574, symSize: 0x184 }
  - { offset: 0x113C7A, size: 0x8, addend: 0x0, symName: __ZNSt3__16vectorINS_9sub_matchIPKcEENS_9allocatorIS4_EEE6assignEmRKS4_, symObjAddr: 0x21B78, symBinAddr: 0x25B78, symSize: 0x1DC }
  - { offset: 0x114286, size: 0x8, addend: 0x0, symName: __ZNSt3__16vectorINS_9sub_matchIPKcEENS_9allocatorIS4_EEE20__throw_length_errorB9nqe210106Ev, symObjAddr: 0x21D54, symBinAddr: 0x25D54, symSize: 0x14 }
  - { offset: 0x114291, size: 0x8, addend: 0x0, symName: __ZNKSt3__111basic_regexIcNS_12regex_traitsIcEEE21__match_at_start_ecmaINS_9allocatorINS_9sub_matchIPKcEEEEEEbS8_S8_RNS_13match_resultsIS8_T_EENS_15regex_constants15match_flag_typeEb, symObjAddr: 0x216F8, symBinAddr: 0x256F8, symSize: 0x480 }
  - { offset: 0x115BB8, size: 0x8, addend: 0x0, symName: __ZNSt3__16vectorINS_7__stateIcEENS_9allocatorIS2_EEE24__emplace_back_slow_pathIJS2_EEEPS2_DpOT_, symObjAddr: 0x21EC0, symBinAddr: 0x25EC0, symSize: 0x17C }
  - { offset: 0x116244, size: 0x8, addend: 0x0, symName: __ZNSt3__16vectorINS_9sub_matchIPKcEENS_9allocatorIS4_EEE8__appendEmRKS4_, symObjAddr: 0x221E8, symBinAddr: 0x261E8, symSize: 0x1A0 }
  - { offset: 0x116785, size: 0x8, addend: 0x0, symName: __ZNSt3__16vectorINS_4pairImPKcEENS_9allocatorIS4_EEE8__appendEm, symObjAddr: 0x22388, symBinAddr: 0x26388, symSize: 0x118 }
  - { offset: 0x116790, size: 0x8, addend: 0x0, symName: __ZNSt3__16vectorINS_4pairImPKcEENS_9allocatorIS4_EEE8__appendEm, symObjAddr: 0x22388, symBinAddr: 0x26388, symSize: 0x118 }
  - { offset: 0x116C83, size: 0x8, addend: 0x0, symName: __ZNSt3__16vectorINS_4pairImPKcEENS_9allocatorIS4_EEE20__throw_length_errorB9nqe210106Ev, symObjAddr: 0x224A0, symBinAddr: 0x264A0, symSize: 0x14 }
  - { offset: 0x116C8E, size: 0x8, addend: 0x0, symName: __ZNSt3__17__stateIcEC2ERKS1_, symObjAddr: 0x224B4, symBinAddr: 0x264B4, symSize: 0x16C }
  - { offset: 0x1172E2, size: 0x8, addend: 0x0, symName: __ZNSt3__16vectorINS_7__stateIcEENS_9allocatorIS2_EEED1B9nqe210106Ev, symObjAddr: 0x21E40, symBinAddr: 0x25E40, symSize: 0x80 }
  - { offset: 0x1176B8, size: 0x8, addend: 0x0, symName: __ZNSt3__17__stateIcED1Ev, symObjAddr: 0x21D68, symBinAddr: 0x25D68, symSize: 0x40 }
  - { offset: 0x117B8F, size: 0x8, addend: 0x0, symName: __ZNSt3__16vectorINS_9sub_matchIPKcEENS_9allocatorIS4_EEE20__throw_length_errorB9nqe210106Ev, symObjAddr: 0x21D54, symBinAddr: 0x25D54, symSize: 0x14 }
  - { offset: 0x117BA7, size: 0x8, addend: 0x0, symName: __ZNSt3__17__stateIcED1Ev, symObjAddr: 0x21D68, symBinAddr: 0x25D68, symSize: 0x40 }
  - { offset: 0x117D52, size: 0x8, addend: 0x0, symName: __ZNSt3__16vectorINS_7__stateIcEENS_9allocatorIS2_EEE26__swap_out_circular_bufferERNS_14__split_bufferIS2_RS4_EE, symObjAddr: 0x2203C, symBinAddr: 0x2603C, symSize: 0x124 }
  - { offset: 0x1182E8, size: 0x8, addend: 0x0, symName: __ZNSt3__16vectorINS_7__stateIcEENS_9allocatorIS2_EEE20__throw_length_errorB9nqe210106Ev, symObjAddr: 0x221D4, symBinAddr: 0x261D4, symSize: 0x14 }
  - { offset: 0x118300, size: 0x8, addend: 0x0, symName: __ZNSt3__16vectorINS_9sub_matchIPKcEENS_9allocatorIS4_EEE8__appendEmRKS4_, symObjAddr: 0x221E8, symBinAddr: 0x261E8, symSize: 0x1A0 }
  - { offset: 0x11830B, size: 0x8, addend: 0x0, symName: __ZNSt3__114__split_bufferINS_7__stateIcEERNS_9allocatorIS2_EEED1Ev, symObjAddr: 0x22160, symBinAddr: 0x26160, symSize: 0x74 }
  - { offset: 0x118CA5, size: 0x8, addend: 0x0, symName: __ZNSt3__16vectorINS_4pairImPKcEENS_9allocatorIS4_EEE20__throw_length_errorB9nqe210106Ev, symObjAddr: 0x224A0, symBinAddr: 0x264A0, symSize: 0x14 }
  - { offset: 0x118CBD, size: 0x8, addend: 0x0, symName: __ZNSt3__17__stateIcEC2ERKS1_, symObjAddr: 0x224B4, symBinAddr: 0x264B4, symSize: 0x16C }
  - { offset: 0x1190FE, size: 0x8, addend: 0x0, symName: __ZNSt3__111basic_regexIcNS_12regex_traitsIcEEE11__push_charEc, symObjAddr: 0x23110, symBinAddr: 0x27110, symSize: 0x144 }
  - { offset: 0x1194AB, size: 0x8, addend: 0x0, symName: __ZNSt3__111basic_regexIcNS_12regex_traitsIcEEE15__push_back_refEi, symObjAddr: 0x232A0, symBinAddr: 0x272A0, symSize: 0xD4 }
  - { offset: 0x119682, size: 0x8, addend: 0x0, symName: __ZNSt3__111basic_regexIcNS_12regex_traitsIcEEE30__parse_character_class_escapeINS_11__wrap_iterIPKcEEEET_S9_S9_, symObjAddr: 0x22AA0, symBinAddr: 0x26AA0, symSize: 0x25C }
  - { offset: 0x119B4C, size: 0x8, addend: 0x0, symName: __ZNSt3__111basic_regexIcNS_12regex_traitsIcEEE24__parse_character_escapeINS_11__wrap_iterIPKcEEEET_S9_S9_PNS_12basic_stringIcNS_11char_traitsIcEENS_9allocatorIcEEEE, symObjAddr: 0x22CFC, symBinAddr: 0x26CFC, symSize: 0x414 }
  - { offset: 0x11A02A, size: 0x8, addend: 0x0, symName: __ZNSt3__111basic_regexIcNS_12regex_traitsIcEEE11__push_charEc, symObjAddr: 0x23110, symBinAddr: 0x27110, symSize: 0x144 }
  - { offset: 0x11A116, size: 0x8, addend: 0x0, symName: __ZNSt3__120__bracket_expressionIcNS_12regex_traitsIcEEEC2B9nqe210106ERKS2_PNS_6__nodeIcEEbbb, symObjAddr: 0x23C44, symBinAddr: 0x27C44, symSize: 0x19C }
  - { offset: 0x11A741, size: 0x8, addend: 0x0, symName: __ZNSt3__120__bracket_expressionIcNS_12regex_traitsIcEEE10__add_charB9nqe210106Ec, symObjAddr: 0x23AB8, symBinAddr: 0x27AB8, symSize: 0x18C }
  - { offset: 0x11AA89, size: 0x8, addend: 0x0, symName: __ZNSt3__120__bracket_expressionIcNS_12regex_traitsIcEEEC2B9nqe210106ERKS2_PNS_6__nodeIcEEbbb, symObjAddr: 0x23C44, symBinAddr: 0x27C44, symSize: 0x19C }
  - { offset: 0x11AA94, size: 0x8, addend: 0x0, symName: __ZNSt3__111basic_regexIcNS_12regex_traitsIcEEE23__parse_expression_termINS_11__wrap_iterIPKcEEEET_S9_S9_PNS_20__bracket_expressionIcS2_EE, symObjAddr: 0x24D90, symBinAddr: 0x28D90, symSize: 0x42C }
  - { offset: 0x11B7DB, size: 0x8, addend: 0x0, symName: __ZNSt3__123__match_any_but_newlineIcED1Ev, symObjAddr: 0x229C4, symBinAddr: 0x269C4, symSize: 0x48 }
  - { offset: 0x11B801, size: 0x8, addend: 0x0, symName: __ZNSt3__123__match_any_but_newlineIcED1Ev, symObjAddr: 0x229C4, symBinAddr: 0x269C4, symSize: 0x48 }
  - { offset: 0x11B821, size: 0x8, addend: 0x0, symName: __ZNSt3__123__match_any_but_newlineIcED1Ev, symObjAddr: 0x229C4, symBinAddr: 0x269C4, symSize: 0x48 }
  - { offset: 0x11B86D, size: 0x8, addend: 0x0, symName: __ZNSt3__123__match_any_but_newlineIcED0Ev, symObjAddr: 0x22A0C, symBinAddr: 0x26A0C, symSize: 0x48 }
  - { offset: 0x11B89E, size: 0x8, addend: 0x0, symName: __ZNSt3__123__match_any_but_newlineIcED0Ev, symObjAddr: 0x22A0C, symBinAddr: 0x26A0C, symSize: 0x48 }
  - { offset: 0x11B8BE, size: 0x8, addend: 0x0, symName: __ZNSt3__123__match_any_but_newlineIcED0Ev, symObjAddr: 0x22A0C, symBinAddr: 0x26A0C, symSize: 0x48 }
  - { offset: 0x11B8DE, size: 0x8, addend: 0x0, symName: __ZNSt3__123__match_any_but_newlineIcED0Ev, symObjAddr: 0x22A0C, symBinAddr: 0x26A0C, symSize: 0x48 }
  - { offset: 0x11BC83, size: 0x8, addend: 0x0, symName: __ZNSt3__118__match_char_icaseIcNS_12regex_traitsIcEEED1Ev, symObjAddr: 0x23374, symBinAddr: 0x27374, symSize: 0x58 }
  - { offset: 0x11BD3E, size: 0x8, addend: 0x0, symName: __ZNSt3__118__match_char_icaseIcNS_12regex_traitsIcEEED0Ev, symObjAddr: 0x233CC, symBinAddr: 0x273CC, symSize: 0x58 }
  - { offset: 0x11BE02, size: 0x8, addend: 0x0, symName: __ZNKSt3__118__match_char_icaseIcNS_12regex_traitsIcEEE6__execERNS_7__stateIcEE, symObjAddr: 0x23424, symBinAddr: 0x27424, symSize: 0x84 }
  - { offset: 0x11BEC6, size: 0x8, addend: 0x0, symName: __ZNSt3__120__match_char_collateIcNS_12regex_traitsIcEEED1Ev, symObjAddr: 0x234A8, symBinAddr: 0x274A8, symSize: 0x58 }
  - { offset: 0x11BF81, size: 0x8, addend: 0x0, symName: __ZNSt3__120__match_char_collateIcNS_12regex_traitsIcEEED0Ev, symObjAddr: 0x23500, symBinAddr: 0x27500, symSize: 0x58 }
  - { offset: 0x11C045, size: 0x8, addend: 0x0, symName: __ZNKSt3__120__match_char_collateIcNS_12regex_traitsIcEEE6__execERNS_7__stateIcEE, symObjAddr: 0x23558, symBinAddr: 0x27558, symSize: 0x44 }
  - { offset: 0x11C0B9, size: 0x8, addend: 0x0, symName: __ZNSt3__112__match_charIcED1Ev, symObjAddr: 0x2359C, symBinAddr: 0x2759C, symSize: 0x48 }
  - { offset: 0x11C0DF, size: 0x8, addend: 0x0, symName: __ZNSt3__112__match_charIcED1Ev, symObjAddr: 0x2359C, symBinAddr: 0x2759C, symSize: 0x48 }
  - { offset: 0x11C0FF, size: 0x8, addend: 0x0, symName: __ZNSt3__112__match_charIcED1Ev, symObjAddr: 0x2359C, symBinAddr: 0x2759C, symSize: 0x48 }
  - { offset: 0x11C14B, size: 0x8, addend: 0x0, symName: __ZNSt3__112__match_charIcED0Ev, symObjAddr: 0x235E4, symBinAddr: 0x275E4, symSize: 0x48 }
  - { offset: 0x11C17C, size: 0x8, addend: 0x0, symName: __ZNSt3__112__match_charIcED0Ev, symObjAddr: 0x235E4, symBinAddr: 0x275E4, symSize: 0x48 }
  - { offset: 0x11C19C, size: 0x8, addend: 0x0, symName: __ZNSt3__112__match_charIcED0Ev, symObjAddr: 0x235E4, symBinAddr: 0x275E4, symSize: 0x48 }
  - { offset: 0x11C1BC, size: 0x8, addend: 0x0, symName: __ZNSt3__112__match_charIcED0Ev, symObjAddr: 0x235E4, symBinAddr: 0x275E4, symSize: 0x48 }
  - { offset: 0x11C1E8, size: 0x8, addend: 0x0, symName: __ZNKSt3__112__match_charIcE6__execERNS_7__stateIcEE, symObjAddr: 0x2362C, symBinAddr: 0x2762C, symSize: 0x44 }
  - { offset: 0x11C25C, size: 0x8, addend: 0x0, symName: __ZNSt3__116__back_ref_icaseIcNS_12regex_traitsIcEEED1Ev, symObjAddr: 0x23670, symBinAddr: 0x27670, symSize: 0x58 }
  - { offset: 0x11C317, size: 0x8, addend: 0x0, symName: __ZNSt3__116__back_ref_icaseIcNS_12regex_traitsIcEEED0Ev, symObjAddr: 0x236C8, symBinAddr: 0x276C8, symSize: 0x58 }
  - { offset: 0x11C3DB, size: 0x8, addend: 0x0, symName: __ZNKSt3__116__back_ref_icaseIcNS_12regex_traitsIcEEE6__execERNS_7__stateIcEE, symObjAddr: 0x23720, symBinAddr: 0x27720, symSize: 0xFC }
  - { offset: 0x11C557, size: 0x8, addend: 0x0, symName: __ZNSt3__118__back_ref_collateIcNS_12regex_traitsIcEEED1Ev, symObjAddr: 0x2381C, symBinAddr: 0x2781C, symSize: 0x58 }
  - { offset: 0x11C612, size: 0x8, addend: 0x0, symName: __ZNSt3__118__back_ref_collateIcNS_12regex_traitsIcEEED0Ev, symObjAddr: 0x23874, symBinAddr: 0x27874, symSize: 0x58 }
  - { offset: 0x11C6D6, size: 0x8, addend: 0x0, symName: __ZNKSt3__118__back_ref_collateIcNS_12regex_traitsIcEEE6__execERNS_7__stateIcEE, symObjAddr: 0x238CC, symBinAddr: 0x278CC, symSize: 0x8C }
  - { offset: 0x11C7B4, size: 0x8, addend: 0x0, symName: __ZNSt3__110__back_refIcED1Ev, symObjAddr: 0x23958, symBinAddr: 0x27958, symSize: 0x48 }
  - { offset: 0x11C7DA, size: 0x8, addend: 0x0, symName: __ZNSt3__110__back_refIcED1Ev, symObjAddr: 0x23958, symBinAddr: 0x27958, symSize: 0x48 }
  - { offset: 0x11C7FA, size: 0x8, addend: 0x0, symName: __ZNSt3__110__back_refIcED1Ev, symObjAddr: 0x23958, symBinAddr: 0x27958, symSize: 0x48 }
  - { offset: 0x11C846, size: 0x8, addend: 0x0, symName: __ZNSt3__110__back_refIcED0Ev, symObjAddr: 0x239A0, symBinAddr: 0x279A0, symSize: 0x48 }
  - { offset: 0x11C877, size: 0x8, addend: 0x0, symName: __ZNSt3__110__back_refIcED0Ev, symObjAddr: 0x239A0, symBinAddr: 0x279A0, symSize: 0x48 }
  - { offset: 0x11C897, size: 0x8, addend: 0x0, symName: __ZNSt3__110__back_refIcED0Ev, symObjAddr: 0x239A0, symBinAddr: 0x279A0, symSize: 0x48 }
  - { offset: 0x11C8B7, size: 0x8, addend: 0x0, symName: __ZNSt3__110__back_refIcED0Ev, symObjAddr: 0x239A0, symBinAddr: 0x279A0, symSize: 0x48 }
  - { offset: 0x11C8E9, size: 0x8, addend: 0x0, symName: __ZNKSt3__110__back_refIcE6__execERNS_7__stateIcEE, symObjAddr: 0x239E8, symBinAddr: 0x279E8, symSize: 0xD0 }
  - { offset: 0x11CA7C, size: 0x8, addend: 0x0, symName: __ZNSt3__120__bracket_expressionIcNS_12regex_traitsIcEEE10__add_charB9nqe210106Ec, symObjAddr: 0x23AB8, symBinAddr: 0x27AB8, symSize: 0x18C }
  - { offset: 0x11CD0D, size: 0x8, addend: 0x0, symName: __ZNSt3__16vectorINS_4pairINS_12basic_stringIcNS_11char_traitsIcEENS_9allocatorIcEEEES7_EENS5_IS8_EEED1B9nqe210106Ev, symObjAddr: 0x23DE0, symBinAddr: 0x27DE0, symSize: 0x94 }
  - { offset: 0x11D20F, size: 0x8, addend: 0x0, symName: __ZNSt3__120__bracket_expressionIcNS_12regex_traitsIcEEED1Ev, symObjAddr: 0x23E74, symBinAddr: 0x27E74, symSize: 0x4 }
  - { offset: 0x11D233, size: 0x8, addend: 0x0, symName: __ZNSt3__120__bracket_expressionIcNS_12regex_traitsIcEEED1Ev, symObjAddr: 0x23E74, symBinAddr: 0x27E74, symSize: 0x4 }
  - { offset: 0x11D247, size: 0x8, addend: 0x0, symName: __ZNSt3__120__bracket_expressionIcNS_12regex_traitsIcEEED2Ev, symObjAddr: 0x246F4, symBinAddr: 0x286F4, symSize: 0x148 }
  - { offset: 0x11DC10, size: 0x8, addend: 0x0, symName: __ZNSt3__120__bracket_expressionIcNS_12regex_traitsIcEEED0Ev, symObjAddr: 0x23E78, symBinAddr: 0x27E78, symSize: 0x14 }
  - { offset: 0x11E083, size: 0x8, addend: 0x0, symName: __ZNKSt3__120__bracket_expressionIcNS_12regex_traitsIcEEE6__execERNS_7__stateIcEE, symObjAddr: 0x23E8C, symBinAddr: 0x27E8C, symSize: 0x810 }
  - { offset: 0x11F96C, size: 0x8, addend: 0x0, symName: __ZNKSt3__112regex_traitsIcE20__lookup_collatenameIPcEENS_12basic_stringIcNS_11char_traitsIcEENS_9allocatorIcEEEET_SA_c, symObjAddr: 0x2496C, symBinAddr: 0x2896C, symSize: 0x244 }
  - { offset: 0x12047D, size: 0x8, addend: 0x0, symName: __ZNKSt3__112regex_traitsIcE9transformIPcEENS_12basic_stringIcNS_11char_traitsIcEENS_9allocatorIcEEEET_SA_, symObjAddr: 0x2483C, symBinAddr: 0x2883C, symSize: 0x130 }
  - { offset: 0x120A5A, size: 0x8, addend: 0x0, symName: __ZNKSt3__112regex_traitsIcE19__transform_primaryIPcEENS_12basic_stringIcNS_11char_traitsIcEENS_9allocatorIcEEEET_SA_c, symObjAddr: 0x24BB0, symBinAddr: 0x28BB0, symSize: 0x194 }
  - { offset: 0x1211B0, size: 0x8, addend: 0x0, symName: __ZNSt3__14pairINS_12basic_stringIcNS_11char_traitsIcEENS_9allocatorIcEEEES6_ED1Ev, symObjAddr: 0x2469C, symBinAddr: 0x2869C, symSize: 0x58 }
  - { offset: 0x12142C, size: 0x8, addend: 0x0, symName: __ZNSt3__111basic_regexIcNS_12regex_traitsIcEEE25__parse_equivalence_classINS_11__wrap_iterIPKcEEEET_S9_S9_PNS_20__bracket_expressionIcS2_EE, symObjAddr: 0x251BC, symBinAddr: 0x291BC, symSize: 0x278 }
  - { offset: 0x121EC8, size: 0x8, addend: 0x0, symName: __ZNSt3__111basic_regexIcNS_12regex_traitsIcEEE18__parse_awk_escapeINS_11__wrap_iterIPKcEEEET_S9_S9_PNS_12basic_stringIcNS_11char_traitsIcEENS_9allocatorIcEEEE, symObjAddr: 0x25750, symBinAddr: 0x29750, symSize: 0x2B4 }
  - { offset: 0x1220BB, size: 0x8, addend: 0x0, symName: __ZNSt3__120__bracket_expressionIcNS_12regex_traitsIcEEE11__add_rangeB9nqe210106ENS_12basic_stringIcNS_11char_traitsIcEENS_9allocatorIcEEEES9_, symObjAddr: 0x25A04, symBinAddr: 0x29A04, symSize: 0x438 }
  - { offset: 0x1220CF, size: 0x8, addend: 0x0, symName: __ZNSt3__111basic_regexIcNS_12regex_traitsIcEEE24__parse_collating_symbolINS_11__wrap_iterIPKcEEEET_S9_S9_RNS_12basic_stringIcNS_11char_traitsIcEENS_9allocatorIcEEEE, symObjAddr: 0x254E4, symBinAddr: 0x294E4, symSize: 0xE4 }
  - { offset: 0x122454, size: 0x8, addend: 0x0, symName: __ZNSt3__111basic_regexIcNS_12regex_traitsIcEEE20__parse_class_escapeINS_11__wrap_iterIPKcEEEET_S9_S9_RNS_12basic_stringIcNS_11char_traitsIcEENS_9allocatorIcEEEEPNS_20__bracket_expressionIcS2_EE, symObjAddr: 0x255C8, symBinAddr: 0x295C8, symSize: 0x188 }
  - { offset: 0x122468, size: 0x8, addend: 0x0, symName: __ZNSt3__111basic_regexIcNS_12regex_traitsIcEEE23__parse_character_classINS_11__wrap_iterIPKcEEEET_S9_S9_PNS_20__bracket_expressionIcS2_EE, symObjAddr: 0x25434, symBinAddr: 0x29434, symSize: 0xB0 }
  - { offset: 0x122703, size: 0x8, addend: 0x0, symName: __ZNSt3__111basic_regexIcNS_12regex_traitsIcEEE24__parse_collating_symbolINS_11__wrap_iterIPKcEEEET_S9_S9_RNS_12basic_stringIcNS_11char_traitsIcEENS_9allocatorIcEEEE, symObjAddr: 0x254E4, symBinAddr: 0x294E4, symSize: 0xE4 }
  - { offset: 0x122723, size: 0x8, addend: 0x0, symName: __ZNSt3__120__bracket_expressionIcNS_12regex_traitsIcEEE13__add_digraphB9nqe210106Ecc, symObjAddr: 0x25E3C, symBinAddr: 0x29E3C, symSize: 0x1C0 }
  - { offset: 0x122F2C, size: 0x8, addend: 0x0, symName: __ZNSt3__119__throw_regex_errorB9nqe210106ILNS_15regex_constants10error_typeE1EEEvv, symObjAddr: 0x25FFC, symBinAddr: 0x29FFC, symSize: 0x4C }
  - { offset: 0x122F37, size: 0x8, addend: 0x0, symName: __ZNSt3__111basic_regexIcNS_12regex_traitsIcEEE20__parse_class_escapeINS_11__wrap_iterIPKcEEEET_S9_S9_RNS_12basic_stringIcNS_11char_traitsIcEENS_9allocatorIcEEEEPNS_20__bracket_expressionIcS2_EE, symObjAddr: 0x255C8, symBinAddr: 0x295C8, symSize: 0x188 }
  - { offset: 0x123123, size: 0x8, addend: 0x0, symName: __ZNSt3__111basic_regexIcNS_12regex_traitsIcEEE18__parse_awk_escapeINS_11__wrap_iterIPKcEEEET_S9_S9_PNS_12basic_stringIcNS_11char_traitsIcEENS_9allocatorIcEEEE, symObjAddr: 0x25750, symBinAddr: 0x29750, symSize: 0x2B4 }
  - { offset: 0x123137, size: 0x8, addend: 0x0, symName: __ZNSt3__120__bracket_expressionIcNS_12regex_traitsIcEEE11__add_rangeB9nqe210106ENS_12basic_stringIcNS_11char_traitsIcEENS_9allocatorIcEEEES9_, symObjAddr: 0x25A04, symBinAddr: 0x29A04, symSize: 0x438 }
  - { offset: 0x1245B6, size: 0x8, addend: 0x0, symName: __ZNKSt3__112regex_traitsIcE20__lookup_collatenameINS_11__wrap_iterIPKcEEEENS_12basic_stringIcNS_11char_traitsIcEENS_9allocatorIcEEEET_SD_c, symObjAddr: 0x26048, symBinAddr: 0x2A048, symSize: 0x244 }
  - { offset: 0x1250DC, size: 0x8, addend: 0x0, symName: __ZNKSt3__112regex_traitsIcE19__transform_primaryINS_11__wrap_iterIPcEEEENS_12basic_stringIcNS_11char_traitsIcEENS_9allocatorIcEEEET_SC_c, symObjAddr: 0x2628C, symBinAddr: 0x2A28C, symSize: 0x194 }
  - { offset: 0x125847, size: 0x8, addend: 0x0, symName: __ZNSt3__16vectorINS_12basic_stringIcNS_11char_traitsIcEENS_9allocatorIcEEEENS4_IS6_EEE24__emplace_back_slow_pathIJRKS6_EEEPS6_DpOT_, symObjAddr: 0x26420, symBinAddr: 0x2A420, symSize: 0x148 }
  - { offset: 0x125CE1, size: 0x8, addend: 0x0, symName: __ZNKSt3__112regex_traitsIcE18__lookup_classnameINS_11__wrap_iterIPKcEEEEjT_S7_bc, symObjAddr: 0x2662C, symBinAddr: 0x2A62C, symSize: 0x150 }
  - { offset: 0x1263D4, size: 0x8, addend: 0x0, symName: __ZNSt3__120__bracket_expressionIcNS_12regex_traitsIcEEE14__add_neg_charB9nqe210106Ec, symObjAddr: 0x2677C, symBinAddr: 0x2A77C, symSize: 0x18C }
  - { offset: 0x126726, size: 0x8, addend: 0x0, symName: __ZNSt3__16vectorINS_4pairINS_12basic_stringIcNS_11char_traitsIcEENS_9allocatorIcEEEES7_EENS5_IS8_EEE9push_backB9nqe210106EOS8_, symObjAddr: 0x26908, symBinAddr: 0x2A908, symSize: 0x164 }
  - { offset: 0x1267EB, size: 0x8, addend: 0x0, symName: __ZNKSt3__112regex_traitsIcE9transformINS_11__wrap_iterIPcEEEENS_12basic_stringIcNS_11char_traitsIcEENS_9allocatorIcEEEET_SC_, symObjAddr: 0x26A6C, symBinAddr: 0x2AA6C, symSize: 0x130 }
  - { offset: 0x126DFF, size: 0x8, addend: 0x0, symName: __ZNSt3__16vectorINS_4pairINS_12basic_stringIcNS_11char_traitsIcEENS_9allocatorIcEEEES7_EENS5_IS8_EEE9push_backB9nqe210106EOS8_, symObjAddr: 0x26908, symBinAddr: 0x2A908, symSize: 0x164 }
  - { offset: 0x1273B1, size: 0x8, addend: 0x0, symName: __ZNKSt3__112regex_traitsIcE9transformINS_11__wrap_iterIPcEEEENS_12basic_stringIcNS_11char_traitsIcEENS_9allocatorIcEEEET_SC_, symObjAddr: 0x26A6C, symBinAddr: 0x2AA6C, symSize: 0x130 }
  - { offset: 0x1276BF, size: 0x8, addend: 0x0, symName: __ZNSt3__16vectorINS_4pairIccEENS_9allocatorIS2_EEE20__throw_length_errorB9nqe210106Ev, symObjAddr: 0x26BFC, symBinAddr: 0x2ABFC, symSize: 0x14 }
  - { offset: 0x1276D7, size: 0x8, addend: 0x0, symName: __ZNSt3__128__begin_marked_subexpressionIcED1Ev, symObjAddr: 0x26C10, symBinAddr: 0x2AC10, symSize: 0x48 }
  - { offset: 0x12786B, size: 0x8, addend: 0x0, symName: __ZNSt3__114__split_bufferINS_12basic_stringIcNS_11char_traitsIcEENS_9allocatorIcEEEERNS4_IS6_EEED1Ev, symObjAddr: 0x26568, symBinAddr: 0x2A568, symSize: 0x64 }
  - { offset: 0x127DF3, size: 0x8, addend: 0x0, symName: __ZNSt3__16vectorINS_4pairINS_12basic_stringIcNS_11char_traitsIcEENS_9allocatorIcEEEES7_EENS5_IS8_EEE20__throw_length_errorB9nqe210106Ev, symObjAddr: 0x26BE8, symBinAddr: 0x2ABE8, symSize: 0x14 }
  - { offset: 0x127E0B, size: 0x8, addend: 0x0, symName: __ZNSt3__16vectorINS_4pairIccEENS_9allocatorIS2_EEE20__throw_length_errorB9nqe210106Ev, symObjAddr: 0x26BFC, symBinAddr: 0x2ABFC, symSize: 0x14 }
  - { offset: 0x127E37, size: 0x8, addend: 0x0, symName: __ZNSt3__128__begin_marked_subexpressionIcED1Ev, symObjAddr: 0x26C10, symBinAddr: 0x2AC10, symSize: 0x48 }
  - { offset: 0x127E5D, size: 0x8, addend: 0x0, symName: __ZNSt3__128__begin_marked_subexpressionIcED1Ev, symObjAddr: 0x26C10, symBinAddr: 0x2AC10, symSize: 0x48 }
  - { offset: 0x127E7D, size: 0x8, addend: 0x0, symName: __ZNSt3__128__begin_marked_subexpressionIcED1Ev, symObjAddr: 0x26C10, symBinAddr: 0x2AC10, symSize: 0x48 }
  - { offset: 0x127EC9, size: 0x8, addend: 0x0, symName: __ZNSt3__128__begin_marked_subexpressionIcED0Ev, symObjAddr: 0x26C58, symBinAddr: 0x2AC58, symSize: 0x48 }
  - { offset: 0x127EFA, size: 0x8, addend: 0x0, symName: __ZNSt3__128__begin_marked_subexpressionIcED0Ev, symObjAddr: 0x26C58, symBinAddr: 0x2AC58, symSize: 0x48 }
  - { offset: 0x127F1A, size: 0x8, addend: 0x0, symName: __ZNSt3__128__begin_marked_subexpressionIcED0Ev, symObjAddr: 0x26C58, symBinAddr: 0x2AC58, symSize: 0x48 }
  - { offset: 0x127F3A, size: 0x8, addend: 0x0, symName: __ZNSt3__128__begin_marked_subexpressionIcED0Ev, symObjAddr: 0x26C58, symBinAddr: 0x2AC58, symSize: 0x48 }
  - { offset: 0x127F66, size: 0x8, addend: 0x0, symName: __ZNKSt3__128__begin_marked_subexpressionIcE6__execERNS_7__stateIcEE, symObjAddr: 0x26CA0, symBinAddr: 0x2ACA0, symSize: 0x30 }
  - { offset: 0x127FFB, size: 0x8, addend: 0x0, symName: __ZNSt3__126__end_marked_subexpressionIcED1Ev, symObjAddr: 0x26CD0, symBinAddr: 0x2ACD0, symSize: 0x48 }
  - { offset: 0x128021, size: 0x8, addend: 0x0, symName: __ZNSt3__126__end_marked_subexpressionIcED1Ev, symObjAddr: 0x26CD0, symBinAddr: 0x2ACD0, symSize: 0x48 }
  - { offset: 0x128041, size: 0x8, addend: 0x0, symName: __ZNSt3__126__end_marked_subexpressionIcED1Ev, symObjAddr: 0x26CD0, symBinAddr: 0x2ACD0, symSize: 0x48 }
  - { offset: 0x12808D, size: 0x8, addend: 0x0, symName: __ZNSt3__126__end_marked_subexpressionIcED0Ev, symObjAddr: 0x26D18, symBinAddr: 0x2AD18, symSize: 0x48 }
  - { offset: 0x1280BE, size: 0x8, addend: 0x0, symName: __ZNSt3__126__end_marked_subexpressionIcED0Ev, symObjAddr: 0x26D18, symBinAddr: 0x2AD18, symSize: 0x48 }
  - { offset: 0x1280DE, size: 0x8, addend: 0x0, symName: __ZNSt3__126__end_marked_subexpressionIcED0Ev, symObjAddr: 0x26D18, symBinAddr: 0x2AD18, symSize: 0x48 }
  - { offset: 0x1280FE, size: 0x8, addend: 0x0, symName: __ZNSt3__126__end_marked_subexpressionIcED0Ev, symObjAddr: 0x26D18, symBinAddr: 0x2AD18, symSize: 0x48 }
  - { offset: 0x12812A, size: 0x8, addend: 0x0, symName: __ZNKSt3__126__end_marked_subexpressionIcE6__execERNS_7__stateIcEE, symObjAddr: 0x26D60, symBinAddr: 0x2AD60, symSize: 0x38 }
  - { offset: 0x1283C7, size: 0x8, addend: 0x0, symName: __ZNSt3__16__loopIcED0Ev, symObjAddr: 0x26FD4, symBinAddr: 0x2AFD4, symSize: 0x68 }
  - { offset: 0x1284C8, size: 0x8, addend: 0x0, symName: __ZNSt3__16__loopIcED1Ev, symObjAddr: 0x26F6C, symBinAddr: 0x2AF6C, symSize: 0x68 }
  - { offset: 0x1285F7, size: 0x8, addend: 0x0, symName: __ZNKSt3__16__loopIcE6__execERNS_7__stateIcEE, symObjAddr: 0x2703C, symBinAddr: 0x2B03C, symSize: 0x1D0 }
  - { offset: 0x128747, size: 0x8, addend: 0x0, symName: __ZNKSt3__16__loopIcE12__exec_splitEbRNS_7__stateIcEE, symObjAddr: 0x2720C, symBinAddr: 0x2B20C, symSize: 0xC8 }
  - { offset: 0x128827, size: 0x8, addend: 0x0, symName: __ZNSt3__117__owns_two_statesIcED1Ev, symObjAddr: 0x272D4, symBinAddr: 0x2B2D4, symSize: 0x68 }
  - { offset: 0x1288BE, size: 0x8, addend: 0x0, symName: __ZNSt3__117__owns_two_statesIcED0Ev, symObjAddr: 0x2733C, symBinAddr: 0x2B33C, symSize: 0x68 }
  - { offset: 0x12895E, size: 0x8, addend: 0x0, symName: __ZNSt3__117__repeat_one_loopIcED1Ev, symObjAddr: 0x273A4, symBinAddr: 0x2B3A4, symSize: 0x4 }
  - { offset: 0x12898E, size: 0x8, addend: 0x0, symName: __ZNSt3__117__repeat_one_loopIcED0Ev, symObjAddr: 0x273A8, symBinAddr: 0x2B3A8, symSize: 0x4 }
  - { offset: 0x1289BA, size: 0x8, addend: 0x0, symName: __ZNKSt3__117__repeat_one_loopIcE6__execERNS_7__stateIcEE, symObjAddr: 0x273AC, symBinAddr: 0x2B3AC, symSize: 0x14 }
  - { offset: 0x128A2E, size: 0x8, addend: 0x0, symName: __ZNSt3__111__alternateIcED1Ev, symObjAddr: 0x273C0, symBinAddr: 0x2B3C0, symSize: 0x68 }
  - { offset: 0x128AE7, size: 0x8, addend: 0x0, symName: __ZNSt3__111__alternateIcED0Ev, symObjAddr: 0x27428, symBinAddr: 0x2B428, symSize: 0x68 }
  - { offset: 0x128BA9, size: 0x8, addend: 0x0, symName: __ZNKSt3__111__alternateIcE6__execERNS_7__stateIcEE, symObjAddr: 0x27490, symBinAddr: 0x2B490, symSize: 0xC }
  - { offset: 0x128BDD, size: 0x8, addend: 0x0, symName: __ZNKSt3__111__alternateIcE12__exec_splitEbRNS_7__stateIcEE, symObjAddr: 0x2749C, symBinAddr: 0x2B49C, symSize: 0x24 }
  - { offset: 0x128C25, size: 0x8, addend: 0x0, symName: __ZNSt3__121__empty_non_own_stateIcED1Ev, symObjAddr: 0x274C0, symBinAddr: 0x2B4C0, symSize: 0x4 }
  - { offset: 0x128C55, size: 0x8, addend: 0x0, symName: __ZNSt3__121__empty_non_own_stateIcED0Ev, symObjAddr: 0x274C4, symBinAddr: 0x2B4C4, symSize: 0x4 }
  - { offset: 0x128C81, size: 0x8, addend: 0x0, symName: __ZNKSt3__121__empty_non_own_stateIcE6__execERNS_7__stateIcEE, symObjAddr: 0x274C8, symBinAddr: 0x2B4C8, symSize: 0x14 }
  - { offset: 0x128FC1, size: 0x8, addend: 0x0, symName: __ZNSt3__111__match_anyIcED1Ev, symObjAddr: 0x27AC4, symBinAddr: 0x2BAC4, symSize: 0x48 }
  - { offset: 0x128FE7, size: 0x8, addend: 0x0, symName: __ZNSt3__111__match_anyIcED1Ev, symObjAddr: 0x27AC4, symBinAddr: 0x2BAC4, symSize: 0x48 }
  - { offset: 0x129007, size: 0x8, addend: 0x0, symName: __ZNSt3__111__match_anyIcED1Ev, symObjAddr: 0x27AC4, symBinAddr: 0x2BAC4, symSize: 0x48 }
  - { offset: 0x129053, size: 0x8, addend: 0x0, symName: __ZNSt3__111__match_anyIcED0Ev, symObjAddr: 0x27B0C, symBinAddr: 0x2BB0C, symSize: 0x48 }
  - { offset: 0x129084, size: 0x8, addend: 0x0, symName: __ZNSt3__111__match_anyIcED0Ev, symObjAddr: 0x27B0C, symBinAddr: 0x2BB0C, symSize: 0x48 }
  - { offset: 0x1290A4, size: 0x8, addend: 0x0, symName: __ZNSt3__111__match_anyIcED0Ev, symObjAddr: 0x27B0C, symBinAddr: 0x2BB0C, symSize: 0x48 }
  - { offset: 0x1290C4, size: 0x8, addend: 0x0, symName: __ZNSt3__111__match_anyIcED0Ev, symObjAddr: 0x27B0C, symBinAddr: 0x2BB0C, symSize: 0x48 }
  - { offset: 0x1290F0, size: 0x8, addend: 0x0, symName: __ZNKSt3__111__match_anyIcE6__execERNS_7__stateIcEE, symObjAddr: 0x27B54, symBinAddr: 0x2BB54, symSize: 0x3C }
  - { offset: 0x129143, size: 0x8, addend: 0x0, symName: __ZNSt3__111basic_regexIcNS_12regex_traitsIcEEE15__test_back_refEc, symObjAddr: 0x27B90, symBinAddr: 0x2BB90, symSize: 0x60 }
  - { offset: 0x12921A, size: 0x8, addend: 0x0, symName: __ZNSt3__111basic_regexIcNS_12regex_traitsIcEEE22__parse_ERE_expressionINS_11__wrap_iterIPKcEEEET_S9_S9_, symObjAddr: 0x27BF0, symBinAddr: 0x2BBF0, symSize: 0x258 }
  - { offset: 0x129269, size: 0x8, addend: 0x0, symName: __ZNSt3__111basic_regexIcNS_12regex_traitsIcEEE20__parse_ORD_CHAR_EREINS_11__wrap_iterIPKcEEEET_S9_S9_, symObjAddr: 0x27E48, symBinAddr: 0x2BE48, symSize: 0x94 }
  - { offset: 0x1292DD, size: 0x8, addend: 0x0, symName: __ZNSt3__111basic_regexIcNS_12regex_traitsIcEEE23__parse_QUOTED_CHAR_EREINS_11__wrap_iterIPKcEEEET_S9_S9_, symObjAddr: 0x27EDC, symBinAddr: 0x2BEDC, symSize: 0xD4 }
  - { offset: 0x1294D2, size: 0x8, addend: 0x0, symName: __ZNKSt3__111basic_regexIcNS_12regex_traitsIcEEE27__match_at_start_posix_subsINS_9allocatorINS_9sub_matchIPKcEEEEEEbS8_S8_RNS_13match_resultsIS8_T_EENS_15regex_constants15match_flag_typeEb, symObjAddr: 0x28CB4, symBinAddr: 0x2CCB4, symSize: 0x5B8 }
  - { offset: 0x12B200, size: 0x8, addend: 0x0, symName: __ZNKSt3__111basic_regexIcNS_12regex_traitsIcEEE29__match_at_start_posix_nosubsINS_9allocatorINS_9sub_matchIPKcEEEEEEbS8_S8_RNS_13match_resultsIS8_T_EENS_15regex_constants15match_flag_typeEb, symObjAddr: 0x2842C, symBinAddr: 0x2C42C, symSize: 0x888 }
  - { offset: 0x12D09E, size: 0x8, addend: 0x0, symName: __ZNSt3__16vectorINS_9sub_matchINS_11__wrap_iterIPKcEEEENS_9allocatorIS6_EEE8__appendEm, symObjAddr: 0x2A5E8, symBinAddr: 0x2E5E8, symSize: 0x190 }
  - { offset: 0x12D616, size: 0x8, addend: 0x0, symName: __ZNSt3__16vectorINS_9sub_matchINS_11__wrap_iterIPKcEEEENS_9allocatorIS6_EEE20__throw_length_errorB9nqe210106Ev, symObjAddr: 0x2A778, symBinAddr: 0x2E778, symSize: 0x14 }
  - { offset: 0x12DA9E, size: 0x8, addend: 0x0, symName: __ZNSt3__15dequeINS_7__stateIcEENS_9allocatorIS2_EEE19__add_back_capacityEv, symObjAddr: 0x29438, symBinAddr: 0x2D438, symSize: 0x338 }
  - { offset: 0x12E6CD, size: 0x8, addend: 0x0, symName: __ZNSt3__15dequeINS_7__stateIcEENS_9allocatorIS2_EEE20__add_front_capacityEv, symObjAddr: 0x29BF0, symBinAddr: 0x2DBF0, symSize: 0x3A4 }
  - { offset: 0x12F422, size: 0x8, addend: 0x0, symName: __ZNSt3__15dequeINS_7__stateIcEENS_9allocatorIS2_EEED1B9nqe210106Ev, symObjAddr: 0x293C8, symBinAddr: 0x2D3C8, symSize: 0x70 }
  - { offset: 0x12F75C, size: 0x8, addend: 0x0, symName: __ZNSt3__16vectorINS_9sub_matchIPKcEENS_9allocatorIS4_EEE18__assign_with_sizeB9nqe210106IPS4_S9_EEvT_T0_l, symObjAddr: 0x2A11C, symBinAddr: 0x2E11C, symSize: 0x200 }
  - { offset: 0x12FF3C, size: 0x8, addend: 0x0, symName: __ZNSt3__16vectorINS_4pairImPKcEENS_9allocatorIS4_EEE18__assign_with_sizeB9nqe210106IPS4_S9_EEvT_T0_l, symObjAddr: 0x2A31C, symBinAddr: 0x2E31C, symSize: 0x2CC }
  - { offset: 0x12FF59, size: 0x8, addend: 0x0, symName: __ZNSt3__16vectorINS_4pairImPKcEENS_9allocatorIS4_EEE18__assign_with_sizeB9nqe210106IPS4_S9_EEvT_T0_l, symObjAddr: 0x2A31C, symBinAddr: 0x2E31C, symSize: 0x2CC }
  - { offset: 0x1306F8, size: 0x8, addend: 0x0, symName: __ZNSt3__16vectorINS_9sub_matchINS_11__wrap_iterIPKcEEEENS_9allocatorIS6_EEE8__appendEm, symObjAddr: 0x2A5E8, symBinAddr: 0x2E5E8, symSize: 0x190 }
  - { offset: 0x13072B, size: 0x8, addend: 0x0, symName: __ZNSt3__15dequeINS_7__stateIcEENS_9allocatorIS2_EEE5clearEv, symObjAddr: 0x2926C, symBinAddr: 0x2D26C, symSize: 0x15C }
  - { offset: 0x1310F8, size: 0x8, addend: 0x0, symName: __ZNSt3__114__split_bufferIPNS_7__stateIcEENS_9allocatorIS3_EEE12emplace_backIJRS3_EEEvDpOT_, symObjAddr: 0x29770, symBinAddr: 0x2D770, symSize: 0x17C }
  - { offset: 0x131549, size: 0x8, addend: 0x0, symName: __ZNSt3__114__split_bufferIPNS_7__stateIcEENS_9allocatorIS3_EEE12emplace_backIJS3_EEEvDpOT_, symObjAddr: 0x298EC, symBinAddr: 0x2D8EC, symSize: 0x17C }
  - { offset: 0x13155F, size: 0x8, addend: 0x0, symName: __ZNSt3__114__split_bufferIPNS_7__stateIcEENS_9allocatorIS3_EEE12emplace_backIJS3_EEEvDpOT_, symObjAddr: 0x298EC, symBinAddr: 0x2D8EC, symSize: 0x17C }
  - { offset: 0x1319B0, size: 0x8, addend: 0x0, symName: __ZNSt3__114__split_bufferIPNS_7__stateIcEENS_9allocatorIS3_EEE13emplace_frontIJS3_EEEvDpOT_, symObjAddr: 0x29A68, symBinAddr: 0x2DA68, symSize: 0x188 }
  - { offset: 0x1319C6, size: 0x8, addend: 0x0, symName: __ZNSt3__114__split_bufferIPNS_7__stateIcEENS_9allocatorIS3_EEE13emplace_frontIJS3_EEEvDpOT_, symObjAddr: 0x29A68, symBinAddr: 0x2DA68, symSize: 0x188 }
  - { offset: 0x131E43, size: 0x8, addend: 0x0, symName: __ZNSt3__15dequeINS_7__stateIcEENS_9allocatorIS2_EEE20__add_front_capacityEv, symObjAddr: 0x29BF0, symBinAddr: 0x2DBF0, symSize: 0x3A4 }
  - { offset: 0x131F17, size: 0x8, addend: 0x0, symName: __ZNSt3__114__split_bufferIPNS_7__stateIcEENS_9allocatorIS3_EEE13emplace_frontIJRS3_EEEvDpOT_, symObjAddr: 0x29F94, symBinAddr: 0x2DF94, symSize: 0x188 }
  - { offset: 0x132394, size: 0x8, addend: 0x0, symName: __ZNSt3__16vectorINS_9sub_matchIPKcEENS_9allocatorIS4_EEE18__assign_with_sizeB9nqe210106IPS4_S9_EEvT_T0_l, symObjAddr: 0x2A11C, symBinAddr: 0x2E11C, symSize: 0x200 }
  - { offset: 0x132831, size: 0x8, addend: 0x0, symName: __ZNSt3__16vectorINS_9sub_matchINS_11__wrap_iterIPKcEEEENS_9allocatorIS6_EEE20__throw_length_errorB9nqe210106Ev, symObjAddr: 0x2A778, symBinAddr: 0x2E778, symSize: 0x14 }
  - { offset: 0x132849, size: 0x8, addend: 0x0, symName: __ZNSt3__112basic_stringIcNS_11char_traitsIcEENS_9allocatorIcEEE20__throw_out_of_rangeB9nqe210106Ev, symObjAddr: 0x2A78C, symBinAddr: 0x2E78C, symSize: 0x14 }
  - { offset: 0x1328B0, size: 0x8, addend: 0x0, symName: '__ZZ38whisper_vad_init_from_file_with_paramsEN3$_08__invokeEPvS0_m', symObjAddr: 0x2A7A0, symBinAddr: 0x2E7A0, symSize: 0x24 }
  - { offset: 0x132971, size: 0x8, addend: 0x0, symName: '__ZZ38whisper_vad_init_from_file_with_paramsEN3$_18__invokeEPv', symObjAddr: 0x2A7C4, symBinAddr: 0x2E7C4, symSize: 0x18 }
  - { offset: 0x13299E, size: 0x8, addend: 0x0, symName: '__ZZ38whisper_vad_init_from_file_with_paramsEN3$_18__invokeEPv', symObjAddr: 0x2A7C4, symBinAddr: 0x2E7C4, symSize: 0x18 }
  - { offset: 0x132A48, size: 0x8, addend: 0x0, symName: '__ZZ38whisper_vad_init_from_file_with_paramsEN3$_28__invokeEPv', symObjAddr: 0x2A7DC, symBinAddr: 0x2E7DC, symSize: 0x48 }
  - { offset: 0x132AFA, size: 0x8, addend: 0x0, symName: '__ZNSt3__110__function6__funcIZL24whisper_vad_init_contextP19whisper_vad_contextE3$_0FP11ggml_cgraphvEED1Ev', symObjAddr: 0x2A878, symBinAddr: 0x2E878, symSize: 0x4 }
  - { offset: 0x132B29, size: 0x8, addend: 0x0, symName: '__ZNSt3__110__function6__funcIZL24whisper_vad_init_contextP19whisper_vad_contextE3$_0FP11ggml_cgraphvEED0Ev', symObjAddr: 0x2A87C, symBinAddr: 0x2E87C, symSize: 0x4 }
  - { offset: 0x132B9E, size: 0x8, addend: 0x0, symName: '__ZNKSt3__110__function6__funcIZL24whisper_vad_init_contextP19whisper_vad_contextE3$_0FP11ggml_cgraphvEE7__cloneEv', symObjAddr: 0x2A880, symBinAddr: 0x2E880, symSize: 0x34 }
  - { offset: 0x132C01, size: 0x8, addend: 0x0, symName: '__ZNKSt3__110__function6__funcIZL24whisper_vad_init_contextP19whisper_vad_contextE3$_0FP11ggml_cgraphvEE7__cloneEPNS0_6__baseIS7_EE', symObjAddr: 0x2A8B4, symBinAddr: 0x2E8B4, symSize: 0x14 }
  - { offset: 0x132C70, size: 0x8, addend: 0x0, symName: '__ZNSt3__110__function6__funcIZL24whisper_vad_init_contextP19whisper_vad_contextE3$_0FP11ggml_cgraphvEE7destroyEv', symObjAddr: 0x2A8C8, symBinAddr: 0x2E8C8, symSize: 0x4 }
  - { offset: 0x132C93, size: 0x8, addend: 0x0, symName: '__ZNSt3__110__function6__funcIZL24whisper_vad_init_contextP19whisper_vad_contextE3$_0FP11ggml_cgraphvEE18destroy_deallocateEv', symObjAddr: 0x2A8CC, symBinAddr: 0x2E8CC, symSize: 0x14 }
  - { offset: 0x132D0F, size: 0x8, addend: 0x0, symName: '__ZNSt3__110__function6__funcIZL24whisper_vad_init_contextP19whisper_vad_contextE3$_0FP11ggml_cgraphvEEclEv', symObjAddr: 0x2A8E0, symBinAddr: 0x2E8E0, symSize: 0xC }
  - { offset: 0x132D9D, size: 0x8, addend: 0x0, symName: '__ZNKSt3__110__function6__funcIZL24whisper_vad_init_contextP19whisper_vad_contextE3$_0FP11ggml_cgraphvEE6targetERKSt9type_info', symObjAddr: 0x2A8EC, symBinAddr: 0x2E8EC, symSize: 0x60 }
  - { offset: 0x132E59, size: 0x8, addend: 0x0, symName: '__ZNKSt3__110__function6__funcIZL24whisper_vad_init_contextP19whisper_vad_contextE3$_0FP11ggml_cgraphvEE11target_typeEv', symObjAddr: 0x2A94C, symBinAddr: 0x2E94C, symSize: 0xC }
  - { offset: 0x1333CF, size: 0x8, addend: 0x0, symName: __ZNSt3__16vectorINS0_IPK23whisper_grammar_elementNS_9allocatorIS3_EEEENS4_IS6_EEE24__emplace_back_slow_pathIJRKS6_EEEPS6_DpOT_, symObjAddr: 0x2B06C, symBinAddr: 0x2F06C, symSize: 0x174 }
  - { offset: 0x133BAD, size: 0x8, addend: 0x0, symName: __ZL29whisper_grammar_advance_stackRKNSt3__16vectorINS0_I23whisper_grammar_elementNS_9allocatorIS1_EEEENS2_IS4_EEEERKNS0_IPKS1_NS2_ISA_EEEERNS0_ISC_NS2_ISC_EEEE.cold.1, symObjAddr: 0x39AC4, symBinAddr: 0x14647C, symSize: 0x20 }
  - { offset: 0x133C27, size: 0x8, addend: 0x0, symName: __ZNSt3__114__split_bufferINS_6vectorIPK23whisper_grammar_elementNS_9allocatorIS4_EEEERNS5_IS7_EEED1Ev, symObjAddr: 0x2AFEC, symBinAddr: 0x2EFEC, symSize: 0x6C }
  - { offset: 0x133E98, size: 0x8, addend: 0x0, symName: __ZNSt3__111basic_regexIcNS_12regex_traitsIcEEE7__parseIPKcEET_S7_S7_, symObjAddr: 0x2B2A8, symBinAddr: 0x2F2A8, symSize: 0x348 }
  - { offset: 0x13480C, size: 0x8, addend: 0x0, symName: __ZNSt3__111basic_regexIcNS_12regex_traitsIcEEE13__parse_egrepIPKcEET_S7_S7_, symObjAddr: 0x2BBD8, symBinAddr: 0x2FBD8, symSize: 0x1A0 }
  - { offset: 0x134DC3, size: 0x8, addend: 0x0, symName: __ZNSt3__111basic_regexIcNS_12regex_traitsIcEEE24__parse_extended_reg_expIPKcEET_S7_S7_, symObjAddr: 0x2B8DC, symBinAddr: 0x2F8DC, symSize: 0x15C }
  - { offset: 0x135127, size: 0x8, addend: 0x0, symName: __ZNSt3__111basic_regexIcNS_12regex_traitsIcEEE12__parse_grepIPKcEET_S7_S7_, symObjAddr: 0x2BA38, symBinAddr: 0x2FA38, symSize: 0x1A0 }
  - { offset: 0x13513B, size: 0x8, addend: 0x0, symName: __ZNSt3__111basic_regexIcNS_12regex_traitsIcEEE21__parse_basic_reg_expIPKcEET_S7_S7_, symObjAddr: 0x2B77C, symBinAddr: 0x2F77C, symSize: 0x160 }
  - { offset: 0x1354DD, size: 0x8, addend: 0x0, symName: __ZNSt3__111basic_regexIcNS_12regex_traitsIcEEE24__parse_extended_reg_expIPKcEET_S7_S7_, symObjAddr: 0x2B8DC, symBinAddr: 0x2F8DC, symSize: 0x15C }
  - { offset: 0x1354F1, size: 0x8, addend: 0x0, symName: __ZNSt3__111basic_regexIcNS_12regex_traitsIcEEE12__parse_grepIPKcEET_S7_S7_, symObjAddr: 0x2BA38, symBinAddr: 0x2FA38, symSize: 0x1A0 }
  - { offset: 0x135AA8, size: 0x8, addend: 0x0, symName: __ZNSt3__111basic_regexIcNS_12regex_traitsIcEEE19__parse_alternativeIPKcEET_S7_S7_, symObjAddr: 0x2BD78, symBinAddr: 0x2FD78, symSize: 0xA0 }
  - { offset: 0x135C0D, size: 0x8, addend: 0x0, symName: __ZNSt3__111basic_regexIcNS_12regex_traitsIcEEE16__parse_ecma_expIPKcEET_S7_S7_, symObjAddr: 0x2B5F0, symBinAddr: 0x2F5F0, symSize: 0x18C }
  - { offset: 0x13607C, size: 0x8, addend: 0x0, symName: __ZNSt3__111basic_regexIcNS_12regex_traitsIcEEE12__parse_termIPKcEET_S7_S7_, symObjAddr: 0x2BE18, symBinAddr: 0x2FE18, symSize: 0x94 }
  - { offset: 0x1361E5, size: 0x8, addend: 0x0, symName: __ZNSt3__111basic_regexIcNS_12regex_traitsIcEEE18__parse_nondupl_REIPKcEET_S7_S7_, symObjAddr: 0x2E1CC, symBinAddr: 0x321CC, symSize: 0x2F8 }
  - { offset: 0x136901, size: 0x8, addend: 0x0, symName: __ZNSt3__111basic_regexIcNS_12regex_traitsIcEEE22__parse_RE_dupl_symbolIPKcEET_S7_S7_PNS_16__owns_one_stateIcEEjj, symObjAddr: 0x2E4C4, symBinAddr: 0x324C4, symSize: 0x27C }
  - { offset: 0x136915, size: 0x8, addend: 0x0, symName: __ZNSt3__111basic_regexIcNS_12regex_traitsIcEEE22__parse_RE_dupl_symbolIPKcEET_S7_S7_PNS_16__owns_one_stateIcEEjj, symObjAddr: 0x2E4C4, symBinAddr: 0x324C4, symSize: 0x27C }
  - { offset: 0x136EE4, size: 0x8, addend: 0x0, symName: __ZNSt3__111basic_regexIcNS_12regex_traitsIcEEE22__parse_ERE_expressionIPKcEET_S7_S7_, symObjAddr: 0x2E740, symBinAddr: 0x32740, symSize: 0x268 }
  - { offset: 0x136F3C, size: 0x8, addend: 0x0, symName: __ZNSt3__111basic_regexIcNS_12regex_traitsIcEEE22__parse_ERE_expressionIPKcEET_S7_S7_, symObjAddr: 0x2E740, symBinAddr: 0x32740, symSize: 0x268 }
  - { offset: 0x137448, size: 0x8, addend: 0x0, symName: __ZNSt3__111basic_regexIcNS_12regex_traitsIcEEE20__parse_ORD_CHAR_EREIPKcEET_S7_S7_, symObjAddr: 0x2E9A8, symBinAddr: 0x329A8, symSize: 0x94 }
  - { offset: 0x1374BD, size: 0x8, addend: 0x0, symName: __ZNSt3__111basic_regexIcNS_12regex_traitsIcEEE23__parse_ERE_dupl_symbolIPKcEET_S7_S7_PNS_16__owns_one_stateIcEEjj, symObjAddr: 0x2C440, symBinAddr: 0x30440, symSize: 0x3E4 }
  - { offset: 0x137ABA, size: 0x8, addend: 0x0, symName: __ZNSt3__111basic_regexIcNS_12regex_traitsIcEEE19__parse_atom_escapeIPKcEET_S7_S7_, symObjAddr: 0x2C824, symBinAddr: 0x30824, symSize: 0x180 }
  - { offset: 0x137ACE, size: 0x8, addend: 0x0, symName: __ZNSt3__111basic_regexIcNS_12regex_traitsIcEEE17__parse_assertionIPKcEET_S7_S7_, symObjAddr: 0x2BEAC, symBinAddr: 0x2FEAC, symSize: 0x364 }
  - { offset: 0x138158, size: 0x8, addend: 0x0, symName: __ZNSt3__111basic_regexIcNS_12regex_traitsIcEEE12__parse_atomIPKcEET_S7_S7_, symObjAddr: 0x2C210, symBinAddr: 0x30210, symSize: 0x230 }
  - { offset: 0x1384F2, size: 0x8, addend: 0x0, symName: __ZNSt3__111basic_regexIcNS_12regex_traitsIcEEE23__parse_ERE_dupl_symbolIPKcEET_S7_S7_PNS_16__owns_one_stateIcEEjj, symObjAddr: 0x2C440, symBinAddr: 0x30440, symSize: 0x3E4 }
  - { offset: 0x138506, size: 0x8, addend: 0x0, symName: __ZNSt3__111basic_regexIcNS_12regex_traitsIcEEE26__parse_bracket_expressionIPKcEET_S7_S7_, symObjAddr: 0x2C9A4, symBinAddr: 0x309A4, symSize: 0x160 }
  - { offset: 0x138703, size: 0x8, addend: 0x0, symName: __ZNSt3__111basic_regexIcNS_12regex_traitsIcEEE19__parse_atom_escapeIPKcEET_S7_S7_, symObjAddr: 0x2C824, symBinAddr: 0x30824, symSize: 0x180 }
  - { offset: 0x1388AC, size: 0x8, addend: 0x0, symName: __ZNSt3__111basic_regexIcNS_12regex_traitsIcEEE26__parse_bracket_expressionIPKcEET_S7_S7_, symObjAddr: 0x2C9A4, symBinAddr: 0x309A4, symSize: 0x160 }
  - { offset: 0x1388C0, size: 0x8, addend: 0x0, symName: __ZNSt3__111basic_regexIcNS_12regex_traitsIcEEE25__parse_pattern_characterIPKcEET_S7_S7_, symObjAddr: 0x2CB04, symBinAddr: 0x30B04, symSize: 0x7C }
  - { offset: 0x1389BA, size: 0x8, addend: 0x0, symName: __ZNSt3__111basic_regexIcNS_12regex_traitsIcEEE30__parse_character_class_escapeIPKcEET_S7_S7_, symObjAddr: 0x2CB80, symBinAddr: 0x30B80, symSize: 0x25C }
  - { offset: 0x138E70, size: 0x8, addend: 0x0, symName: __ZNSt3__111basic_regexIcNS_12regex_traitsIcEEE24__parse_character_escapeIPKcEET_S7_S7_PNS_12basic_stringIcNS_11char_traitsIcEENS_9allocatorIcEEEE, symObjAddr: 0x2CDDC, symBinAddr: 0x30DDC, symSize: 0x404 }
  - { offset: 0x1392B1, size: 0x8, addend: 0x0, symName: __ZNSt3__111basic_regexIcNS_12regex_traitsIcEEE23__parse_expression_termIPKcEET_S7_S7_PNS_20__bracket_expressionIcS2_EE, symObjAddr: 0x2D1E0, symBinAddr: 0x311E0, symSize: 0x50C }
  - { offset: 0x139318, size: 0x8, addend: 0x0, symName: __ZNSt3__111basic_regexIcNS_12regex_traitsIcEEE23__parse_expression_termIPKcEET_S7_S7_PNS_20__bracket_expressionIcS2_EE, symObjAddr: 0x2D1E0, symBinAddr: 0x311E0, symSize: 0x50C }
  - { offset: 0x13A6DB, size: 0x8, addend: 0x0, symName: __ZNSt3__111basic_regexIcNS_12regex_traitsIcEEE25__parse_equivalence_classIPKcEET_S7_S7_PNS_20__bracket_expressionIcS2_EE, symObjAddr: 0x2D6EC, symBinAddr: 0x316EC, symSize: 0x258 }
  - { offset: 0x13B19B, size: 0x8, addend: 0x0, symName: __ZNSt3__111basic_regexIcNS_12regex_traitsIcEEE18__parse_awk_escapeIPKcEET_S7_S7_PNS_12basic_stringIcNS_11char_traitsIcEENS_9allocatorIcEEEE, symObjAddr: 0x2DB98, symBinAddr: 0x31B98, symSize: 0x2A0 }
  - { offset: 0x13B2BF, size: 0x8, addend: 0x0, symName: __ZNKSt3__112regex_traitsIcE20__lookup_collatenameIPKcEENS_12basic_stringIcNS_11char_traitsIcEENS_9allocatorIcEEEET_SB_c, symObjAddr: 0x2DE38, symBinAddr: 0x31E38, symSize: 0x244 }
  - { offset: 0x13B2D3, size: 0x8, addend: 0x0, symName: __ZNSt3__111basic_regexIcNS_12regex_traitsIcEEE24__parse_collating_symbolIPKcEET_S7_S7_RNS_12basic_stringIcNS_11char_traitsIcEENS_9allocatorIcEEEE, symObjAddr: 0x2D944, symBinAddr: 0x31944, symSize: 0xD0 }
  - { offset: 0x13B66E, size: 0x8, addend: 0x0, symName: __ZNSt3__111basic_regexIcNS_12regex_traitsIcEEE20__parse_class_escapeIPKcEET_S7_S7_RNS_12basic_stringIcNS_11char_traitsIcEENS_9allocatorIcEEEEPNS_20__bracket_expressionIcS2_EE, symObjAddr: 0x2DA14, symBinAddr: 0x31A14, symSize: 0x184 }
  - { offset: 0x13B679, size: 0x8, addend: 0x0, symName: __ZNKSt3__112regex_traitsIcE20__lookup_collatenameIPKcEENS_12basic_stringIcNS_11char_traitsIcEENS_9allocatorIcEEEET_SB_c, symObjAddr: 0x2DE38, symBinAddr: 0x31E38, symSize: 0x244 }
  - { offset: 0x13C18A, size: 0x8, addend: 0x0, symName: __ZNKSt3__112regex_traitsIcE18__lookup_classnameIPKcEEjT_S5_bc, symObjAddr: 0x2E07C, symBinAddr: 0x3207C, symSize: 0x150 }
  - { offset: 0x13C846, size: 0x8, addend: 0x0, symName: __ZNSt3__111basic_regexIcNS_12regex_traitsIcEEE20__parse_class_escapeIPKcEET_S7_S7_RNS_12basic_stringIcNS_11char_traitsIcEENS_9allocatorIcEEEEPNS_20__bracket_expressionIcS2_EE, symObjAddr: 0x2DA14, symBinAddr: 0x31A14, symSize: 0x184 }
  - { offset: 0x13C9F2, size: 0x8, addend: 0x0, symName: __ZNSt3__111basic_regexIcNS_12regex_traitsIcEEE18__parse_awk_escapeIPKcEET_S7_S7_PNS_12basic_stringIcNS_11char_traitsIcEENS_9allocatorIcEEEE, symObjAddr: 0x2DB98, symBinAddr: 0x31B98, symSize: 0x2A0 }
  - { offset: 0x13CE02, size: 0x8, addend: 0x0, symName: __ZNSt3__111basic_regexIcNS_12regex_traitsIcEEE20__parse_ORD_CHAR_EREIPKcEET_S7_S7_, symObjAddr: 0x2E9A8, symBinAddr: 0x329A8, symSize: 0x94 }
  - { offset: 0x13CE62, size: 0x8, addend: 0x0, symName: __ZNSt3__111basic_regexIcNS_12regex_traitsIcEEE23__parse_QUOTED_CHAR_EREIPKcEET_S7_S7_, symObjAddr: 0x2EA3C, symBinAddr: 0x32A3C, symSize: 0xD8 }
  - { offset: 0x13D25E, size: 0x8, addend: 0x0, symName: __ZL43whisper_grammar_reject_candidates_for_stackRKNSt3__16vectorINS0_I23whisper_grammar_elementNS_9allocatorIS1_EEEENS2_IS4_EEEERKNS0_IPKS1_NS2_ISA_EEEERKNS0_I25whisper_grammar_candidateNS2_ISF_EEEE, symObjAddr: 0x2F144, symBinAddr: 0x33144, symSize: 0xA94 }
  - { offset: 0x13FB90, size: 0x8, addend: 0x0, symName: __ZNSt3__16vectorIdNS_9allocatorIdEEE13shrink_to_fitEv, symObjAddr: 0x2FECC, symBinAddr: 0x33ECC, symSize: 0xB8 }
  - { offset: 0x140318, size: 0x8, addend: 0x0, symName: __ZNSt3__128__exception_guard_exceptionsINS_29_AllocatorDestroyRangeReverseINS_9allocatorINS_6vectorI23whisper_grammar_elementNS2_IS4_EEEEEEPS6_EEED1B9nqe210106Ev, symObjAddr: 0x30654, symBinAddr: 0x34654, symSize: 0x6C }
  - { offset: 0x14051E, size: 0x8, addend: 0x0, symName: __ZNSt3__128__exception_guard_exceptionsINS_29_AllocatorDestroyRangeReverseINS_9allocatorINS_6vectorIPK23whisper_grammar_elementNS2_IS6_EEEEEEPS8_EEED1B9nqe210106Ev, symObjAddr: 0x3083C, symBinAddr: 0x3483C, symSize: 0x6C }
  - { offset: 0x140815, size: 0x8, addend: 0x0, symName: __ZNSt3__16vectorI23whisper_grammar_elementNS_9allocatorIS1_EEE18__assign_with_sizeB9nqe210106IPS1_S6_EEvT_T0_l, symObjAddr: 0x30C90, symBinAddr: 0x34C90, symSize: 0x148 }
  - { offset: 0x141286, size: 0x8, addend: 0x0, symName: __ZNSt3__16vectorINS0_IPK23whisper_grammar_elementNS_9allocatorIS3_EEEENS4_IS6_EEE18__assign_with_sizeB9nqe210106IPS6_SA_EEvT_T0_l, symObjAddr: 0x30DD8, symBinAddr: 0x34DD8, symSize: 0x25C }
  - { offset: 0x14139D, size: 0x8, addend: 0x0, symName: __ZNSt3__16vectorIPK23whisper_grammar_elementNS_9allocatorIS3_EEE18__assign_with_sizeB9nqe210106IPS3_S8_EEvT_T0_l, symObjAddr: 0x31034, symBinAddr: 0x35034, symSize: 0x148 }
  - { offset: 0x141E0E, size: 0x8, addend: 0x0, symName: __ZNSt3__16__treeINS_12__value_typeIiiEENS_19__map_value_compareIiNS_4pairIKiiEENS_4lessIiEELb1EEENS_9allocatorIS6_EEE7destroyEPNS_11__tree_nodeIS2_PvEE, symObjAddr: 0x3117C, symBinAddr: 0x3517C, symSize: 0x44 }
  - { offset: 0x1423C9, size: 0x8, addend: 0x0, symName: __ZL13median_filterP11ggml_tensorPKS_iiPv, symObjAddr: 0x32588, symBinAddr: 0x36588, symSize: 0x390 }
  - { offset: 0x142B73, size: 0x8, addend: 0x0, symName: __ZL13median_filterP11ggml_tensorPKS_iiPv.cold.1, symObjAddr: 0x39AE4, symBinAddr: 0x14649C, symSize: 0x20 }
  - { offset: 0x142B8B, size: 0x8, addend: 0x0, symName: __ZL13median_filterP11ggml_tensorPKS_iiPv.cold.4, symObjAddr: 0x39B44, symBinAddr: 0x1464FC, symSize: 0x20 }
  - { offset: 0x142BA3, size: 0x8, addend: 0x0, symName: __ZL13median_filterP11ggml_tensorPKS_iiPv.cold.2, symObjAddr: 0x39B04, symBinAddr: 0x1464BC, symSize: 0x20 }
  - { offset: 0x142BBB, size: 0x8, addend: 0x0, symName: __ZL13median_filterP11ggml_tensorPKS_iiPv.cold.3, symObjAddr: 0x39B24, symBinAddr: 0x1464DC, symSize: 0x20 }
  - { offset: 0x142D19, size: 0x8, addend: 0x0, symName: __ZNSt3__13mapI10asr_tensorPKcNS_4lessIS1_EENS_9allocatorINS_4pairIKS1_S3_EEEEEC2B9nqe210106ESt16initializer_listIS9_ERKS5_, symObjAddr: 0x3292C, symBinAddr: 0x3692C, symSize: 0x178 }
  - { offset: 0x1435BF, size: 0x8, addend: 0x0, symName: __ZNSt3__16__treeINS_12__value_typeI10asr_systemNS_3mapI10asr_tensorPKcNS_4lessIS4_EENS_9allocatorINS_4pairIKS4_S6_EEEEEEEENS_19__map_value_compareIS2_NSA_IKS2_SE_EENS7_IS2_EELb1EEENS9_ISI_EEE30__emplace_hint_unique_key_argsIS2_JRKSI_EEENSA_INS_15__tree_iteratorISF_PNS_11__tree_nodeISF_PvEElEEbEENS_21__tree_const_iteratorISF_SU_lEERKT_DpOT0_, symObjAddr: 0x32AA4, symBinAddr: 0x36AA4, symSize: 0x100 }
  - { offset: 0x143B11, size: 0x8, addend: 0x0, symName: __ZNSt3__16__treeINS_12__value_typeI10asr_systemNS_3mapI10asr_tensorPKcNS_4lessIS4_EENS_9allocatorINS_4pairIKS4_S6_EEEEEEEENS_19__map_value_compareIS2_NSA_IKS2_SE_EENS7_IS2_EELb1EEENS9_ISI_EEE12__find_equalIS2_EERPNS_16__tree_node_baseIPvEENS_21__tree_const_iteratorISF_PNS_11__tree_nodeISF_SP_EElEERPNS_15__tree_end_nodeISR_EESS_RKT_, symObjAddr: 0x32BA4, symBinAddr: 0x36BA4, symSize: 0x1A0 }
  - { offset: 0x143B77, size: 0x8, addend: 0x0, symName: __ZNSt3__16__treeINS_12__value_typeI10asr_systemNS_3mapI10asr_tensorPKcNS_4lessIS4_EENS_9allocatorINS_4pairIKS4_S6_EEEEEEEENS_19__map_value_compareIS2_NSA_IKS2_SE_EENS7_IS2_EELb1EEENS9_ISI_EEE12__find_equalIS2_EERPNS_16__tree_node_baseIPvEENS_21__tree_const_iteratorISF_PNS_11__tree_nodeISF_SP_EElEERPNS_15__tree_end_nodeISR_EESS_RKT_, symObjAddr: 0x32BA4, symBinAddr: 0x36BA4, symSize: 0x1A0 }
  - { offset: 0x143B95, size: 0x8, addend: 0x0, symName: __ZNSt3__16__treeINS_12__value_typeI10asr_systemNS_3mapI10asr_tensorPKcNS_4lessIS4_EENS_9allocatorINS_4pairIKS4_S6_EEEEEEEENS_19__map_value_compareIS2_NSA_IKS2_SE_EENS7_IS2_EELb1EEENS9_ISI_EEE12__find_equalIS2_EERPNS_16__tree_node_baseIPvEENS_21__tree_const_iteratorISF_PNS_11__tree_nodeISF_SP_EElEERPNS_15__tree_end_nodeISR_EESS_RKT_, symObjAddr: 0x32BA4, symBinAddr: 0x36BA4, symSize: 0x1A0 }
  - { offset: 0x143F20, size: 0x8, addend: 0x0, symName: __ZNSt3__110unique_ptrINS_11__tree_nodeINS_12__value_typeI10asr_systemNS_3mapI10asr_tensorPKcNS_4lessIS5_EENS_9allocatorINS_4pairIKS5_S7_EEEEEEEEPvEENS_22__tree_node_destructorINSA_ISI_EEEEED1B9nqe210106Ev, symObjAddr: 0x32D44, symBinAddr: 0x36D44, symSize: 0x4C }
  - { offset: 0x14474F, size: 0x8, addend: 0x0, symName: __ZNSt3__13mapI10asr_tensor7ggml_opNS_4lessIS1_EENS_9allocatorINS_4pairIKS1_S2_EEEEEC2B9nqe210106ESt16initializer_listIS8_ERKS4_, symObjAddr: 0x32DE0, symBinAddr: 0x36DE0, symSize: 0x178 }
  - { offset: 0x1450E1, size: 0x8, addend: 0x0, symName: __ZNSt3__13mapI10vad_tensor7ggml_opNS_4lessIS1_EENS_9allocatorINS_4pairIKS1_S2_EEEEEC2B9nqe210106ESt16initializer_listIS8_ERKS4_, symObjAddr: 0x32F9C, symBinAddr: 0x36F9C, symSize: 0x178 }
  - { offset: 0x145A73, size: 0x8, addend: 0x0, symName: __ZNSt3__13mapI10vad_tensorPKcNS_4lessIS1_EENS_9allocatorINS_4pairIKS1_S3_EEEEEC2B9nqe210106ESt16initializer_listIS9_ERKS5_, symObjAddr: 0x33158, symBinAddr: 0x37158, symSize: 0x178 }
  - { offset: 0x14627B, size: 0x8, addend: 0x0, symName: __ZNSt3__16__treeINS_12__value_typeI7e_modelNS_12basic_stringIcNS_11char_traitsIcEENS_9allocatorIcEEEEEENS_19__map_value_compareIS2_NS_4pairIKS2_S8_EENS_4lessIS2_EELb1EEENS6_ISD_EEE30__emplace_hint_unique_key_argsIS2_JRKSD_EEENSB_INS_15__tree_iteratorIS9_PNS_11__tree_nodeIS9_PvEElEEbEENS_21__tree_const_iteratorIS9_SQ_lEERKT_DpOT0_, symObjAddr: 0x33314, symBinAddr: 0x37314, symSize: 0xF8 }
  - { offset: 0x146652, size: 0x8, addend: 0x0, symName: __ZNSt3__16__treeINS_12__value_typeI7e_modelNS_12basic_stringIcNS_11char_traitsIcEENS_9allocatorIcEEEEEENS_19__map_value_compareIS2_NS_4pairIKS2_S8_EENS_4lessIS2_EELb1EEENS6_ISD_EEE12__find_equalIS2_EERPNS_16__tree_node_baseIPvEENS_21__tree_const_iteratorIS9_PNS_11__tree_nodeIS9_SL_EElEERPNS_15__tree_end_nodeISN_EESO_RKT_, symObjAddr: 0x3340C, symBinAddr: 0x3740C, symSize: 0x1A0 }
  - { offset: 0x1466B8, size: 0x8, addend: 0x0, symName: __ZNSt3__16__treeINS_12__value_typeI7e_modelNS_12basic_stringIcNS_11char_traitsIcEENS_9allocatorIcEEEEEENS_19__map_value_compareIS2_NS_4pairIKS2_S8_EENS_4lessIS2_EELb1EEENS6_ISD_EEE12__find_equalIS2_EERPNS_16__tree_node_baseIPvEENS_21__tree_const_iteratorIS9_PNS_11__tree_nodeIS9_SL_EElEERPNS_15__tree_end_nodeISN_EESO_RKT_, symObjAddr: 0x3340C, symBinAddr: 0x3740C, symSize: 0x1A0 }
  - { offset: 0x1466D6, size: 0x8, addend: 0x0, symName: __ZNSt3__16__treeINS_12__value_typeI7e_modelNS_12basic_stringIcNS_11char_traitsIcEENS_9allocatorIcEEEEEENS_19__map_value_compareIS2_NS_4pairIKS2_S8_EENS_4lessIS2_EELb1EEENS6_ISD_EEE12__find_equalIS2_EERPNS_16__tree_node_baseIPvEENS_21__tree_const_iteratorIS9_PNS_11__tree_nodeIS9_SL_EElEERPNS_15__tree_end_nodeISN_EESO_RKT_, symObjAddr: 0x3340C, symBinAddr: 0x3740C, symSize: 0x1A0 }
  - { offset: 0x146A61, size: 0x8, addend: 0x0, symName: __ZNSt3__110unique_ptrINS_11__tree_nodeINS_12__value_typeI7e_modelNS_12basic_stringIcNS_11char_traitsIcEENS_9allocatorIcEEEEEEPvEENS_22__tree_node_destructorINS7_ISC_EEEEED1B9nqe210106Ev, symObjAddr: 0x335AC, symBinAddr: 0x375AC, symSize: 0x60 }
  - { offset: 0x14712E, size: 0x8, addend: 0x0, symName: __ZNSt3__13mapINS_12basic_stringIcNS_11char_traitsIcEENS_9allocatorIcEEEENS_4pairIiS6_EENS_4lessIS6_EENS4_INS7_IKS6_S8_EEEEEC2B9nqe210106ESt16initializer_listISC_ERKSA_, symObjAddr: 0x336F8, symBinAddr: 0x376F8, symSize: 0xF0 }
  - { offset: 0x14743E, size: 0x8, addend: 0x0, symName: __ZNSt3__16__treeINS_12__value_typeINS_12basic_stringIcNS_11char_traitsIcEENS_9allocatorIcEEEENS_4pairIiS7_EEEENS_19__map_value_compareIS7_NS8_IKS7_S9_EENS_4lessIS7_EELb1EEENS5_ISD_EEE12__find_equalIS7_EERPNS_16__tree_node_baseIPvEENS_21__tree_const_iteratorISA_PNS_11__tree_nodeISA_SL_EElEERPNS_15__tree_end_nodeISN_EESO_RKT_, symObjAddr: 0x337E8, symBinAddr: 0x377E8, symSize: 0x3F8 }
  - { offset: 0x1481B4, size: 0x8, addend: 0x0, symName: __ZNSt3__16__treeINS_12__value_typeINS_12basic_stringIcNS_11char_traitsIcEENS_9allocatorIcEEEENS_4pairIiS7_EEEENS_19__map_value_compareIS7_NS8_IKS7_S9_EENS_4lessIS7_EELb1EEENS5_ISD_EEE16__construct_nodeIJRKSD_EEENS_10unique_ptrINS_11__tree_nodeISA_PvEENS_22__tree_node_destructorINS5_ISP_EEEEEEDpOT_, symObjAddr: 0x33BE0, symBinAddr: 0x37BE0, symSize: 0xEC }
  - { offset: 0x148834, size: 0x8, addend: 0x0, symName: __ZNSt3__110unique_ptrINS_11__tree_nodeINS_12__value_typeINS_12basic_stringIcNS_11char_traitsIcEENS_9allocatorIcEEEENS_4pairIiS8_EEEEPvEENS_22__tree_node_destructorINS6_ISD_EEEEED1B9nqe210106Ev, symObjAddr: 0x33CCC, symBinAddr: 0x37CCC, symSize: 0x6C }
  - { offset: 0x1490D1, size: 0x8, addend: 0x0, symName: __ZNSt3__13mapI30whisper_alignment_heads_preset14whisper_aheadsNS_4lessIS1_EENS_9allocatorINS_4pairIKS1_S2_EEEEEC2B9nqe210106ESt16initializer_listIS8_ERKS4_, symObjAddr: 0x33DB0, symBinAddr: 0x37DB0, symSize: 0x184 }
  - { offset: 0x149A47, size: 0x8, addend: 0x0, symName: '__ZNSt3__110__function6__funcIZ18whisper_init_stateE3$_0FP11ggml_cgraphvEED1Ev', symObjAddr: 0x342F4, symBinAddr: 0x382F4, symSize: 0x4 }
  - { offset: 0x149A76, size: 0x8, addend: 0x0, symName: '__ZNSt3__110__function6__funcIZ18whisper_init_stateE3$_0FP11ggml_cgraphvEED0Ev', symObjAddr: 0x342F8, symBinAddr: 0x382F8, symSize: 0x4 }
  - { offset: 0x149AEB, size: 0x8, addend: 0x0, symName: '__ZNKSt3__110__function6__funcIZ18whisper_init_stateE3$_0FP11ggml_cgraphvEE7__cloneEv', symObjAddr: 0x342FC, symBinAddr: 0x382FC, symSize: 0x38 }
  - { offset: 0x149B62, size: 0x8, addend: 0x0, symName: '__ZNKSt3__110__function6__funcIZ18whisper_init_stateE3$_0FP11ggml_cgraphvEE7__cloneEPNS0_6__baseIS5_EE', symObjAddr: 0x34334, symBinAddr: 0x38334, symSize: 0x18 }
  - { offset: 0x149B98, size: 0x8, addend: 0x0, symName: '__ZNKSt3__110__function6__funcIZ18whisper_init_stateE3$_0FP11ggml_cgraphvEE7__cloneEPNS0_6__baseIS5_EE', symObjAddr: 0x34334, symBinAddr: 0x38334, symSize: 0x18 }
  - { offset: 0x149BBF, size: 0x8, addend: 0x0, symName: '__ZNKSt3__110__function6__funcIZ18whisper_init_stateE3$_0FP11ggml_cgraphvEE7__cloneEPNS0_6__baseIS5_EE', symObjAddr: 0x34334, symBinAddr: 0x38334, symSize: 0x18 }
  - { offset: 0x149BE5, size: 0x8, addend: 0x0, symName: '__ZNSt3__110__function6__funcIZ18whisper_init_stateE3$_0FP11ggml_cgraphvEE7destroyEv', symObjAddr: 0x3434C, symBinAddr: 0x3834C, symSize: 0x4 }
  - { offset: 0x149C08, size: 0x8, addend: 0x0, symName: '__ZNSt3__110__function6__funcIZ18whisper_init_stateE3$_0FP11ggml_cgraphvEE18destroy_deallocateEv', symObjAddr: 0x34350, symBinAddr: 0x38350, symSize: 0x14 }
  - { offset: 0x149C84, size: 0x8, addend: 0x0, symName: '__ZNSt3__110__function6__funcIZ18whisper_init_stateE3$_0FP11ggml_cgraphvEEclEv', symObjAddr: 0x34364, symBinAddr: 0x38364, symSize: 0x10 }
  - { offset: 0x149D12, size: 0x8, addend: 0x0, symName: '__ZNKSt3__110__function6__funcIZ18whisper_init_stateE3$_0FP11ggml_cgraphvEE6targetERKSt9type_info', symObjAddr: 0x34374, symBinAddr: 0x38374, symSize: 0x60 }
  - { offset: 0x149DCE, size: 0x8, addend: 0x0, symName: '__ZNKSt3__110__function6__funcIZ18whisper_init_stateE3$_0FP11ggml_cgraphvEE11target_typeEv', symObjAddr: 0x343D4, symBinAddr: 0x383D4, symSize: 0xC }
  - { offset: 0x149DF1, size: 0x8, addend: 0x0, symName: '__ZNSt3__110__function6__funcIZ18whisper_init_stateE3$_1FP11ggml_cgraphvEED1Ev', symObjAddr: 0x343E0, symBinAddr: 0x383E0, symSize: 0x4 }
  - { offset: 0x149E20, size: 0x8, addend: 0x0, symName: '__ZNSt3__110__function6__funcIZ18whisper_init_stateE3$_1FP11ggml_cgraphvEED0Ev', symObjAddr: 0x343E4, symBinAddr: 0x383E4, symSize: 0x4 }
  - { offset: 0x149E95, size: 0x8, addend: 0x0, symName: '__ZNKSt3__110__function6__funcIZ18whisper_init_stateE3$_1FP11ggml_cgraphvEE7__cloneEv', symObjAddr: 0x343E8, symBinAddr: 0x383E8, symSize: 0x38 }
  - { offset: 0x149F0C, size: 0x8, addend: 0x0, symName: '__ZNKSt3__110__function6__funcIZ18whisper_init_stateE3$_1FP11ggml_cgraphvEE7__cloneEPNS0_6__baseIS5_EE', symObjAddr: 0x34420, symBinAddr: 0x38420, symSize: 0x18 }
  - { offset: 0x149F42, size: 0x8, addend: 0x0, symName: '__ZNKSt3__110__function6__funcIZ18whisper_init_stateE3$_1FP11ggml_cgraphvEE7__cloneEPNS0_6__baseIS5_EE', symObjAddr: 0x34420, symBinAddr: 0x38420, symSize: 0x18 }
  - { offset: 0x149F69, size: 0x8, addend: 0x0, symName: '__ZNKSt3__110__function6__funcIZ18whisper_init_stateE3$_1FP11ggml_cgraphvEE7__cloneEPNS0_6__baseIS5_EE', symObjAddr: 0x34420, symBinAddr: 0x38420, symSize: 0x18 }
  - { offset: 0x149F8F, size: 0x8, addend: 0x0, symName: '__ZNSt3__110__function6__funcIZ18whisper_init_stateE3$_1FP11ggml_cgraphvEE7destroyEv', symObjAddr: 0x34438, symBinAddr: 0x38438, symSize: 0x4 }
  - { offset: 0x149FB2, size: 0x8, addend: 0x0, symName: '__ZNSt3__110__function6__funcIZ18whisper_init_stateE3$_1FP11ggml_cgraphvEE18destroy_deallocateEv', symObjAddr: 0x3443C, symBinAddr: 0x3843C, symSize: 0x14 }
  - { offset: 0x14A02E, size: 0x8, addend: 0x0, symName: '__ZNSt3__110__function6__funcIZ18whisper_init_stateE3$_1FP11ggml_cgraphvEEclEv', symObjAddr: 0x34450, symBinAddr: 0x38450, symSize: 0x10 }
  - { offset: 0x14A0BC, size: 0x8, addend: 0x0, symName: '__ZNKSt3__110__function6__funcIZ18whisper_init_stateE3$_1FP11ggml_cgraphvEE6targetERKSt9type_info', symObjAddr: 0x34460, symBinAddr: 0x38460, symSize: 0x60 }
  - { offset: 0x14A178, size: 0x8, addend: 0x0, symName: '__ZNKSt3__110__function6__funcIZ18whisper_init_stateE3$_1FP11ggml_cgraphvEE11target_typeEv', symObjAddr: 0x344C0, symBinAddr: 0x384C0, symSize: 0xC }
  - { offset: 0x14A19B, size: 0x8, addend: 0x0, symName: '__ZNSt3__110__function6__funcIZ18whisper_init_stateE3$_2FP11ggml_cgraphvEED1Ev', symObjAddr: 0x344CC, symBinAddr: 0x384CC, symSize: 0x4 }
  - { offset: 0x14A1CA, size: 0x8, addend: 0x0, symName: '__ZNSt3__110__function6__funcIZ18whisper_init_stateE3$_2FP11ggml_cgraphvEED0Ev', symObjAddr: 0x344D0, symBinAddr: 0x384D0, symSize: 0x4 }
  - { offset: 0x14A23F, size: 0x8, addend: 0x0, symName: '__ZNKSt3__110__function6__funcIZ18whisper_init_stateE3$_2FP11ggml_cgraphvEE7__cloneEv', symObjAddr: 0x344D4, symBinAddr: 0x384D4, symSize: 0x38 }
  - { offset: 0x14A2B6, size: 0x8, addend: 0x0, symName: '__ZNKSt3__110__function6__funcIZ18whisper_init_stateE3$_2FP11ggml_cgraphvEE7__cloneEPNS0_6__baseIS5_EE', symObjAddr: 0x3450C, symBinAddr: 0x3850C, symSize: 0x18 }
  - { offset: 0x14A2EC, size: 0x8, addend: 0x0, symName: '__ZNKSt3__110__function6__funcIZ18whisper_init_stateE3$_2FP11ggml_cgraphvEE7__cloneEPNS0_6__baseIS5_EE', symObjAddr: 0x3450C, symBinAddr: 0x3850C, symSize: 0x18 }
  - { offset: 0x14A313, size: 0x8, addend: 0x0, symName: '__ZNKSt3__110__function6__funcIZ18whisper_init_stateE3$_2FP11ggml_cgraphvEE7__cloneEPNS0_6__baseIS5_EE', symObjAddr: 0x3450C, symBinAddr: 0x3850C, symSize: 0x18 }
  - { offset: 0x14A339, size: 0x8, addend: 0x0, symName: '__ZNSt3__110__function6__funcIZ18whisper_init_stateE3$_2FP11ggml_cgraphvEE7destroyEv', symObjAddr: 0x34524, symBinAddr: 0x38524, symSize: 0x4 }
  - { offset: 0x14A35C, size: 0x8, addend: 0x0, symName: '__ZNSt3__110__function6__funcIZ18whisper_init_stateE3$_2FP11ggml_cgraphvEE18destroy_deallocateEv', symObjAddr: 0x34528, symBinAddr: 0x38528, symSize: 0x14 }
  - { offset: 0x14A3D8, size: 0x8, addend: 0x0, symName: '__ZNSt3__110__function6__funcIZ18whisper_init_stateE3$_2FP11ggml_cgraphvEEclEv', symObjAddr: 0x3453C, symBinAddr: 0x3853C, symSize: 0x10 }
  - { offset: 0x14A466, size: 0x8, addend: 0x0, symName: '__ZNKSt3__110__function6__funcIZ18whisper_init_stateE3$_2FP11ggml_cgraphvEE6targetERKSt9type_info', symObjAddr: 0x3454C, symBinAddr: 0x3854C, symSize: 0x60 }
  - { offset: 0x14A522, size: 0x8, addend: 0x0, symName: '__ZNKSt3__110__function6__funcIZ18whisper_init_stateE3$_2FP11ggml_cgraphvEE11target_typeEv', symObjAddr: 0x345AC, symBinAddr: 0x385AC, symSize: 0xC }
  - { offset: 0x14A545, size: 0x8, addend: 0x0, symName: '__ZNSt3__110__function6__funcIZ18whisper_init_stateE3$_3FP11ggml_cgraphvEED1Ev', symObjAddr: 0x345B8, symBinAddr: 0x385B8, symSize: 0x4 }
  - { offset: 0x14A574, size: 0x8, addend: 0x0, symName: '__ZNSt3__110__function6__funcIZ18whisper_init_stateE3$_3FP11ggml_cgraphvEED0Ev', symObjAddr: 0x345BC, symBinAddr: 0x385BC, symSize: 0x4 }
  - { offset: 0x14A5E9, size: 0x8, addend: 0x0, symName: '__ZNKSt3__110__function6__funcIZ18whisper_init_stateE3$_3FP11ggml_cgraphvEE7__cloneEv', symObjAddr: 0x345C0, symBinAddr: 0x385C0, symSize: 0x38 }
  - { offset: 0x14A660, size: 0x8, addend: 0x0, symName: '__ZNKSt3__110__function6__funcIZ18whisper_init_stateE3$_3FP11ggml_cgraphvEE7__cloneEPNS0_6__baseIS5_EE', symObjAddr: 0x345F8, symBinAddr: 0x385F8, symSize: 0x18 }
  - { offset: 0x14A696, size: 0x8, addend: 0x0, symName: '__ZNKSt3__110__function6__funcIZ18whisper_init_stateE3$_3FP11ggml_cgraphvEE7__cloneEPNS0_6__baseIS5_EE', symObjAddr: 0x345F8, symBinAddr: 0x385F8, symSize: 0x18 }
  - { offset: 0x14A6BD, size: 0x8, addend: 0x0, symName: '__ZNKSt3__110__function6__funcIZ18whisper_init_stateE3$_3FP11ggml_cgraphvEE7__cloneEPNS0_6__baseIS5_EE', symObjAddr: 0x345F8, symBinAddr: 0x385F8, symSize: 0x18 }
  - { offset: 0x14A6E3, size: 0x8, addend: 0x0, symName: '__ZNSt3__110__function6__funcIZ18whisper_init_stateE3$_3FP11ggml_cgraphvEE7destroyEv', symObjAddr: 0x34610, symBinAddr: 0x38610, symSize: 0x4 }
  - { offset: 0x14A706, size: 0x8, addend: 0x0, symName: '__ZNSt3__110__function6__funcIZ18whisper_init_stateE3$_3FP11ggml_cgraphvEE18destroy_deallocateEv', symObjAddr: 0x34614, symBinAddr: 0x38614, symSize: 0x14 }
  - { offset: 0x14A7A9, size: 0x8, addend: 0x0, symName: '__ZNSt3__110__function6__funcIZ18whisper_init_stateE3$_3FP11ggml_cgraphvEEclEv', symObjAddr: 0x34628, symBinAddr: 0x38628, symSize: 0x78 }
  - { offset: 0x14A7D3, size: 0x8, addend: 0x0, symName: '__ZNSt3__110__function6__funcIZ18whisper_init_stateE3$_3FP11ggml_cgraphvEEclEv', symObjAddr: 0x34628, symBinAddr: 0x38628, symSize: 0x78 }
  - { offset: 0x14A7F2, size: 0x8, addend: 0x0, symName: '__ZNSt3__110__function6__funcIZ18whisper_init_stateE3$_3FP11ggml_cgraphvEEclEv', symObjAddr: 0x34628, symBinAddr: 0x38628, symSize: 0x78 }
  - { offset: 0x14A812, size: 0x8, addend: 0x0, symName: '__ZNSt3__110__function6__funcIZ18whisper_init_stateE3$_3FP11ggml_cgraphvEEclEv', symObjAddr: 0x34628, symBinAddr: 0x38628, symSize: 0x78 }
  - { offset: 0x14A832, size: 0x8, addend: 0x0, symName: '__ZNSt3__110__function6__funcIZ18whisper_init_stateE3$_3FP11ggml_cgraphvEEclEv', symObjAddr: 0x34628, symBinAddr: 0x38628, symSize: 0x78 }
  - { offset: 0x14A8E2, size: 0x8, addend: 0x0, symName: '__ZNKSt3__110__function6__funcIZ18whisper_init_stateE3$_3FP11ggml_cgraphvEE6targetERKSt9type_info', symObjAddr: 0x346A0, symBinAddr: 0x386A0, symSize: 0x60 }
  - { offset: 0x14A99E, size: 0x8, addend: 0x0, symName: '__ZNKSt3__110__function6__funcIZ18whisper_init_stateE3$_3FP11ggml_cgraphvEE11target_typeEv', symObjAddr: 0x34700, symBinAddr: 0x38700, symSize: 0xC }
  - { offset: 0x14AC6D, size: 0x8, addend: 0x0, symName: __ZNSt3__16vectorINS_12basic_stringIcNS_11char_traitsIcEENS_9allocatorIcEEEENS4_IS6_EEE16__init_with_sizeB9nqe210106IPKS6_SB_EEvT_T0_m, symObjAddr: 0x3602C, symBinAddr: 0x3A02C, symSize: 0x138 }
  - { offset: 0x14B0B9, size: 0x8, addend: 0x0, symName: __ZNSt3__128__exception_guard_exceptionsINS_6vectorINS_12basic_stringIcNS_11char_traitsIcEENS_9allocatorIcEEEENS5_IS7_EEE16__destroy_vectorEED1B9nqe210106Ev, symObjAddr: 0x36164, symBinAddr: 0x3A164, symSize: 0x80 }
  - { offset: 0x14B319, size: 0x8, addend: 0x0, symName: __ZNSt3__128__exception_guard_exceptionsINS_29_AllocatorDestroyRangeReverseINS_9allocatorINS_12basic_stringIcNS_11char_traitsIcEENS2_IcEEEEEEPS7_EEED1B9nqe210106Ev, symObjAddr: 0x361E4, symBinAddr: 0x3A1E4, symSize: 0x5C }
  - { offset: 0x14C644, size: 0x8, addend: 0x0, symName: __ZNSt3__110unique_ptrINS_5tupleIJNS0_INS_15__thread_structENS_14default_deleteIS2_EEEEPFiP15whisper_contextP13whisper_state19whisper_full_paramsPKfiES7_S9_SA_SC_iEEENS3_ISF_EEED1B9nqe210106Ev, symObjAddr: 0x396BC, symBinAddr: 0x3D6BC, symSize: 0x48 }
  - { offset: 0x14D3B2, size: 0x8, addend: 0x0, symName: __GLOBAL__sub_I_whisper.cpp, symObjAddr: 0x3C88C, symBinAddr: 0x3D900, symSize: 0x2218 }
  - { offset: 0x159406, size: 0x8, addend: 0x0, symName: _OUTLINED_FUNCTION_0, symObjAddr: 0x39B64, symBinAddr: 0x3D86C, symSize: 0x20 }
  - { offset: 0x15941E, size: 0x8, addend: 0x0, symName: _OUTLINED_FUNCTION_1, symObjAddr: 0x39B84, symBinAddr: 0x3D88C, symSize: 0x14 }
  - { offset: 0x159436, size: 0x8, addend: 0x0, symName: _OUTLINED_FUNCTION_2, symObjAddr: 0x39B98, symBinAddr: 0x3D8A0, symSize: 0x18 }
  - { offset: 0x15944E, size: 0x8, addend: 0x0, symName: _OUTLINED_FUNCTION_3, symObjAddr: 0x39BB0, symBinAddr: 0x3D8B8, symSize: 0xC }
  - { offset: 0x159466, size: 0x8, addend: 0x0, symName: _OUTLINED_FUNCTION_4, symObjAddr: 0x39BBC, symBinAddr: 0x3D8C4, symSize: 0x14 }
  - { offset: 0x15947E, size: 0x8, addend: 0x0, symName: _OUTLINED_FUNCTION_5, symObjAddr: 0x39BD0, symBinAddr: 0x3D8D8, symSize: 0x8 }
  - { offset: 0x159496, size: 0x8, addend: 0x0, symName: _OUTLINED_FUNCTION_6, symObjAddr: 0x39BD8, symBinAddr: 0x3D8E0, symSize: 0x8 }
  - { offset: 0x1594AE, size: 0x8, addend: 0x0, symName: _OUTLINED_FUNCTION_7, symObjAddr: 0x39BE0, symBinAddr: 0x3D8E8, symSize: 0x8 }
  - { offset: 0x1594C6, size: 0x8, addend: 0x0, symName: _OUTLINED_FUNCTION_8, symObjAddr: 0x39BE8, symBinAddr: 0x3D8F0, symSize: 0x8 }
  - { offset: 0x1594DE, size: 0x8, addend: 0x0, symName: _OUTLINED_FUNCTION_9, symObjAddr: 0x39BF0, symBinAddr: 0x3D8F8, symSize: 0x8 }
  - { offset: 0x15B68C, size: 0x8, addend: 0x0, symName: __Z15dl_load_libraryRKNSt3__14__fs10filesystem4pathE, symObjAddr: 0x0, symBinAddr: 0x3FB18, symSize: 0xAC }
  - { offset: 0x165990, size: 0x8, addend: 0x0, symName: __Z15dl_load_libraryRKNSt3__14__fs10filesystem4pathE, symObjAddr: 0x0, symBinAddr: 0x3FB18, symSize: 0xAC }
  - { offset: 0x165E33, size: 0x8, addend: 0x0, symName: __Z10dl_get_symPvPKc, symObjAddr: 0xAC, symBinAddr: 0x3FBC4, symSize: 0x4 }
  - { offset: 0x165E71, size: 0x8, addend: 0x0, symName: __Z10dl_get_symPvPKc, symObjAddr: 0xAC, symBinAddr: 0x3FBC4, symSize: 0x4 }
  - { offset: 0x165EA4, size: 0x8, addend: 0x0, symName: __Z8dl_errorv, symObjAddr: 0xB0, symBinAddr: 0x3FBC8, symSize: 0x24 }
  - { offset: 0x16C661, size: 0x8, addend: 0x0, symName: __ZNSt3__14__fs10filesystemdvB9nqe210106ERKNS1_4pathES4_, symObjAddr: 0x3188, symBinAddr: 0x42C28, symSize: 0xB8 }
  - { offset: 0x17A611, size: 0x8, addend: 0x0, symName: _ggml_backend_register, symObjAddr: 0x0, symBinAddr: 0x3FBEC, symSize: 0xD0 }
  - { offset: 0x17A790, size: 0x8, addend: 0x0, symName: __ZN21ggml_backend_registry16register_backendEP16ggml_backend_regNSt3__110unique_ptrIv17dl_handle_deleterEE, symObjAddr: 0xD0, symBinAddr: 0x3FCBC, symSize: 0x188 }
  - { offset: 0x17AE9C, size: 0x8, addend: 0x0, symName: __ZN21ggml_backend_registryC2Ev, symObjAddr: 0x2B88, symBinAddr: 0x42774, symSize: 0x104 }
  - { offset: 0x17B36C, size: 0x8, addend: 0x0, symName: __ZNSt3__110unique_ptrIv17dl_handle_deleterED1B9nqe210106Ev, symObjAddr: 0x258, symBinAddr: 0x3FE44, symSize: 0x34 }
  - { offset: 0x17B9D7, size: 0x8, addend: 0x0, symName: __ZNSt3__16vectorI22ggml_backend_reg_entryNS_9allocatorIS1_EEE24__emplace_back_slow_pathIJS1_EEEPS1_DpOT_, symObjAddr: 0x2DF8, symBinAddr: 0x429D4, symSize: 0x1C8 }
  - { offset: 0x17C03A, size: 0x8, addend: 0x0, symName: __ZNSt3__16vectorIP19ggml_backend_deviceNS_9allocatorIS2_EEE20__throw_length_errorB9nqe210106Ev, symObjAddr: 0x3070, symBinAddr: 0x42BB0, symSize: 0x14 }
  - { offset: 0x17C05D, size: 0x8, addend: 0x0, symName: __ZN22ggml_backend_reg_entryD1Ev, symObjAddr: 0x2D10, symBinAddr: 0x428EC, symSize: 0x34 }
  - { offset: 0x17C12D, size: 0x8, addend: 0x0, symName: _ggml_backend_device_register, symObjAddr: 0x28C, symBinAddr: 0x3FE78, symSize: 0x158 }
  - { offset: 0x17C4E3, size: 0x8, addend: 0x0, symName: _ggml_backend_reg_count, symObjAddr: 0x3E4, symBinAddr: 0x3FFD0, symSize: 0x98 }
  - { offset: 0x17C587, size: 0x8, addend: 0x0, symName: _ggml_backend_reg_get, symObjAddr: 0x47C, symBinAddr: 0x40068, symSize: 0x148 }
  - { offset: 0x17C6F9, size: 0x8, addend: 0x0, symName: _ggml_backend_reg_by_name, symObjAddr: 0x5C4, symBinAddr: 0x401B0, symSize: 0x134 }
  - { offset: 0x17C89A, size: 0x8, addend: 0x0, symName: _ggml_backend_dev_count, symObjAddr: 0x6F8, symBinAddr: 0x402E4, symSize: 0x98 }
  - { offset: 0x17C933, size: 0x8, addend: 0x0, symName: _ggml_backend_dev_get, symObjAddr: 0x790, symBinAddr: 0x4037C, symSize: 0x144 }
  - { offset: 0x17CA37, size: 0x8, addend: 0x0, symName: _ggml_backend_dev_by_name, symObjAddr: 0x8D4, symBinAddr: 0x404C0, symSize: 0x138 }
  - { offset: 0x17CBAC, size: 0x8, addend: 0x0, symName: _ggml_backend_dev_by_type, symObjAddr: 0xA0C, symBinAddr: 0x405F8, symSize: 0xE8 }
  - { offset: 0x17CCBB, size: 0x8, addend: 0x0, symName: _ggml_backend_init_by_name, symObjAddr: 0xAF4, symBinAddr: 0x406E0, symSize: 0x34 }
  - { offset: 0x17CD46, size: 0x8, addend: 0x0, symName: _ggml_backend_init_by_type, symObjAddr: 0xB28, symBinAddr: 0x40714, symSize: 0x34 }
  - { offset: 0x17CDBA, size: 0x8, addend: 0x0, symName: _ggml_backend_init_best, symObjAddr: 0xB5C, symBinAddr: 0x40748, symSize: 0x3C }
  - { offset: 0x17D099, size: 0x8, addend: 0x0, symName: _ggml_backend_load, symObjAddr: 0xB98, symBinAddr: 0x40784, symSize: 0x114 }
  - { offset: 0x17D382, size: 0x8, addend: 0x0, symName: __ZNSt3__112basic_stringIcNS_11char_traitsIcEENS_9allocatorIcEEE6appendB9nqe210106IPKcLi0EEERS5_T_SA_, symObjAddr: 0x32B0, symBinAddr: 0x42D50, symSize: 0x204 }
  - { offset: 0x17DCD3, size: 0x8, addend: 0x0, symName: __ZN21ggml_backend_registry12load_backendERKNSt3__14__fs10filesystem4pathEb, symObjAddr: 0xCAC, symBinAddr: 0x40898, symSize: 0x460 }
  - { offset: 0x17EF11, size: 0x8, addend: 0x0, symName: _ggml_backend_unload, symObjAddr: 0x110C, symBinAddr: 0x40CF8, symSize: 0x98 }
  - { offset: 0x17EF8D, size: 0x8, addend: 0x0, symName: __ZN21ggml_backend_registry14unload_backendEP16ggml_backend_regb, symObjAddr: 0x11A4, symBinAddr: 0x40D90, symSize: 0x1E8 }
  - { offset: 0x17FAC0, size: 0x8, addend: 0x0, symName: _ggml_backend_load_all, symObjAddr: 0x138C, symBinAddr: 0x40F78, symSize: 0x8 }
  - { offset: 0x17FAED, size: 0x8, addend: 0x0, symName: _ggml_backend_load_all_from_path, symObjAddr: 0x1394, symBinAddr: 0x40F80, symSize: 0x128 }
  - { offset: 0x17FC9B, size: 0x8, addend: 0x0, symName: __ZL22ggml_backend_load_bestPKcbS0_, symObjAddr: 0x14BC, symBinAddr: 0x410A8, symSize: 0x16C8 }
  - { offset: 0x188A21, size: 0x8, addend: 0x0, symName: __ZNSt3__14__fs10filesystem18directory_iteratorD1B9nqe210106Ev, symObjAddr: 0x3124, symBinAddr: 0x42BC4, symSize: 0x64 }
  - { offset: 0x188A2C, size: 0x8, addend: 0x0, symName: __ZNSt3__16vectorINS_4__fs10filesystem4pathENS_9allocatorIS3_EEE20__throw_length_errorB9nqe210106Ev, symObjAddr: 0x34B4, symBinAddr: 0x42F54, symSize: 0x14 }
  - { offset: 0x188A4F, size: 0x8, addend: 0x0, symName: __ZNSt3__14__fs10filesystem18directory_iteratorD1B9nqe210106Ev, symObjAddr: 0x3124, symBinAddr: 0x42BC4, symSize: 0x64 }
  - { offset: 0x188B1E, size: 0x8, addend: 0x0, symName: __ZNSt3__16vectorINS_4__fs10filesystem4pathENS_9allocatorIS3_EEED1B9nqe210106Ev, symObjAddr: 0x3240, symBinAddr: 0x42CE0, symSize: 0x70 }
  - { offset: 0x188D9E, size: 0x8, addend: 0x0, symName: __ZN21ggml_backend_registryD1Ev, symObjAddr: 0x2B84, symBinAddr: 0x42770, symSize: 0x4 }
  - { offset: 0x188DCE, size: 0x8, addend: 0x0, symName: __ZN21ggml_backend_registryD1Ev, symObjAddr: 0x2B84, symBinAddr: 0x42770, symSize: 0x4 }
  - { offset: 0x188DE2, size: 0x8, addend: 0x0, symName: __ZN21ggml_backend_registryD2Ev, symObjAddr: 0x2D44, symBinAddr: 0x42920, symSize: 0xB4 }
  - { offset: 0x1892BB, size: 0x8, addend: 0x0, symName: __ZNSt3__16vectorI22ggml_backend_reg_entryNS_9allocatorIS1_EEED1B9nqe210106Ev, symObjAddr: 0x2C8C, symBinAddr: 0x42878, symSize: 0x74 }
  - { offset: 0x18971F, size: 0x8, addend: 0x0, symName: __ZNSt3__16vectorI22ggml_backend_reg_entryNS_9allocatorIS1_EEE20__throw_length_errorB9nqe210106Ev, symObjAddr: 0x2FC0, symBinAddr: 0x42B9C, symSize: 0x14 }
  - { offset: 0x18BA29, size: 0x8, addend: 0x0, symName: _ggml_op_can_inplace, symObjAddr: 0x0, symBinAddr: 0x42F68, symSize: 0x4C }
  - { offset: 0x18BA57, size: 0x8, addend: 0x0, symName: _GGML_BUFFER_ADDRESS_INVALID, symObjAddr: 0x2F78, symBinAddr: 0x150F40, symSize: 0x0 }
  - { offset: 0x18CCCA, size: 0x8, addend: 0x0, symName: _ggml_op_can_inplace, symObjAddr: 0x0, symBinAddr: 0x42F68, symSize: 0x4C }
  - { offset: 0x18CD33, size: 0x8, addend: 0x0, symName: _ggml_tallocr_new, symObjAddr: 0x4C, symBinAddr: 0x42FB4, symSize: 0x58 }
  - { offset: 0x18CDE9, size: 0x8, addend: 0x0, symName: _ggml_tallocr_alloc, symObjAddr: 0xA4, symBinAddr: 0x4300C, symSize: 0xD0 }
  - { offset: 0x18CEA7, size: 0x8, addend: 0x0, symName: _ggml_gallocr_new_n, symObjAddr: 0x174, symBinAddr: 0x430DC, symSize: 0x208 }
  - { offset: 0x18CF6F, size: 0x8, addend: 0x0, symName: _ggml_gallocr_new_n, symObjAddr: 0x174, symBinAddr: 0x430DC, symSize: 0x208 }
  - { offset: 0x18D151, size: 0x8, addend: 0x0, symName: _ggml_gallocr_new, symObjAddr: 0x37C, symBinAddr: 0x432E4, symSize: 0x28 }
  - { offset: 0x18D1B7, size: 0x8, addend: 0x0, symName: _ggml_dyn_tallocr_reset, symObjAddr: 0x1DF8, symBinAddr: 0x44D60, symSize: 0xE0 }
  - { offset: 0x18D2E0, size: 0x8, addend: 0x0, symName: _ggml_gallocr_new, symObjAddr: 0x37C, symBinAddr: 0x432E4, symSize: 0x28 }
  - { offset: 0x18D351, size: 0x8, addend: 0x0, symName: _ggml_gallocr_free, symObjAddr: 0x3A4, symBinAddr: 0x4330C, symSize: 0x144 }
  - { offset: 0x18D4F1, size: 0x8, addend: 0x0, symName: _ggml_vbuffer_free, symObjAddr: 0x4E8, symBinAddr: 0x43450, symSize: 0xAC }
  - { offset: 0x18D64C, size: 0x8, addend: 0x0, symName: _ggml_gallocr_reserve_n_size, symObjAddr: 0x594, symBinAddr: 0x434FC, symSize: 0xB4 }
  - { offset: 0x18D731, size: 0x8, addend: 0x0, symName: _ggml_gallocr_reserve_n_impl, symObjAddr: 0x648, symBinAddr: 0x435B0, symSize: 0xBC8 }
  - { offset: 0x18D745, size: 0x8, addend: 0x0, symName: _ggml_gallocr_reserve_n_impl, symObjAddr: 0x648, symBinAddr: 0x435B0, symSize: 0xBC8 }
  - { offset: 0x18E6C4, size: 0x8, addend: 0x0, symName: _ggml_gallocr_reserve_n, symObjAddr: 0x1210, symBinAddr: 0x44178, symSize: 0x8 }
  - { offset: 0x18EAB0, size: 0x8, addend: 0x0, symName: _ggml_gallocr_allocate_node, symObjAddr: 0x1F6C, symBinAddr: 0x44ED4, symSize: 0x680 }
  - { offset: 0x18F1B7, size: 0x8, addend: 0x0, symName: _ggml_dyn_tallocr_free_bytes, symObjAddr: 0x27DC, symBinAddr: 0x45744, symSize: 0x1BC }
  - { offset: 0x18F384, size: 0x8, addend: 0x0, symName: _alloc_tensor_range, symObjAddr: 0x2998, symBinAddr: 0x45900, symSize: 0x1D8 }
  - { offset: 0x18F3D9, size: 0x8, addend: 0x0, symName: _ggml_gallocr_reserve_n, symObjAddr: 0x1210, symBinAddr: 0x44178, symSize: 0x8 }
  - { offset: 0x18F486, size: 0x8, addend: 0x0, symName: _ggml_gallocr_reserve, symObjAddr: 0x1218, symBinAddr: 0x44180, symSize: 0x10 }
  - { offset: 0x18F4AE, size: 0x8, addend: 0x0, symName: _ggml_gallocr_reserve, symObjAddr: 0x1218, symBinAddr: 0x44180, symSize: 0x10 }
  - { offset: 0x18F6AC, size: 0x8, addend: 0x0, symName: _ggml_gallocr_alloc_graph, symObjAddr: 0x1228, symBinAddr: 0x44190, symSize: 0x658 }
  - { offset: 0x18FD6B, size: 0x8, addend: 0x0, symName: _ggml_gallocr_get_buffer_size, symObjAddr: 0x1880, symBinAddr: 0x447E8, symSize: 0x218 }
  - { offset: 0x18FEEC, size: 0x8, addend: 0x0, symName: _ggml_backend_alloc_ctx_tensors_from_buft_size, symObjAddr: 0x1A98, symBinAddr: 0x44A00, symSize: 0x54 }
  - { offset: 0x18FF00, size: 0x8, addend: 0x0, symName: _ggml_backend_alloc_ctx_tensors_from_buft_size, symObjAddr: 0x1A98, symBinAddr: 0x44A00, symSize: 0x54 }
  - { offset: 0x18FF8F, size: 0x8, addend: 0x0, symName: _ggml_backend_alloc_ctx_tensors_from_buft_impl, symObjAddr: 0x1AEC, symBinAddr: 0x44A54, symSize: 0x2A0 }
  - { offset: 0x18FFA3, size: 0x8, addend: 0x0, symName: _ggml_backend_alloc_ctx_tensors_from_buft_impl, symObjAddr: 0x1AEC, symBinAddr: 0x44A54, symSize: 0x2A0 }
  - { offset: 0x190261, size: 0x8, addend: 0x0, symName: _ggml_backend_alloc_ctx_tensors_from_buft, symObjAddr: 0x1D8C, symBinAddr: 0x44CF4, symSize: 0x28 }
  - { offset: 0x1902CE, size: 0x8, addend: 0x0, symName: _alloc_tensor_range, symObjAddr: 0x2998, symBinAddr: 0x45900, symSize: 0x1D8 }
  - { offset: 0x1905E2, size: 0x8, addend: 0x0, symName: _ggml_backend_alloc_ctx_tensors_from_buft, symObjAddr: 0x1D8C, symBinAddr: 0x44CF4, symSize: 0x28 }
  - { offset: 0x190677, size: 0x8, addend: 0x0, symName: _ggml_backend_alloc_ctx_tensors, symObjAddr: 0x1DB4, symBinAddr: 0x44D1C, symSize: 0x44 }
  - { offset: 0x190733, size: 0x8, addend: 0x0, symName: _ggml_gallocr_hash_get, symObjAddr: 0x1ED8, symBinAddr: 0x44E40, symSize: 0x94 }
  - { offset: 0x190A3A, size: 0x8, addend: 0x0, symName: _ggml_gallocr_free_extra_space, symObjAddr: 0x25EC, symBinAddr: 0x45554, symSize: 0x1F0 }
  - { offset: 0x190D88, size: 0x8, addend: 0x0, symName: _ggml_dyn_tallocr_free_bytes, symObjAddr: 0x27DC, symBinAddr: 0x45744, symSize: 0x1BC }
  - { offset: 0x190EF9, size: 0x8, addend: 0x0, symName: _ggml_backend_buft_name, symObjAddr: 0x0, symBinAddr: 0x45AD8, symSize: 0x3C }
  - { offset: 0x190F1A, size: 0x8, addend: 0x0, symName: _ggml_backend_cpu_buffer_type, symObjAddr: 0x7A48, symBinAddr: 0x4D520, symSize: 0xC }
  - { offset: 0x190F42, size: 0x8, addend: 0x0, symName: __ZZ28ggml_backend_cpu_buffer_typeE28ggml_backend_cpu_buffer_type, symObjAddr: 0x8DA0, symBinAddr: 0x1842C8, symSize: 0x0 }
  - { offset: 0x190FD5, size: 0x8, addend: 0x0, symName: __ZL27ggml_backend_multi_buffer_i, symObjAddr: 0x8CC8, symBinAddr: 0x181700, symSize: 0x0 }
  - { offset: 0x193F7E, size: 0x8, addend: 0x0, symName: __ZL25ggml_backend_cpu_buffer_i, symObjAddr: 0x8D58, symBinAddr: 0x181790, symSize: 0x0 }
  - { offset: 0x193F99, size: 0x8, addend: 0x0, symName: __ZL34ggml_backend_cpu_buffer_from_ptr_i, symObjAddr: 0x8D10, symBinAddr: 0x181748, symSize: 0x0 }
  - { offset: 0x194446, size: 0x8, addend: 0x0, symName: _ggml_backend_buft_name, symObjAddr: 0x0, symBinAddr: 0x45AD8, symSize: 0x3C }
  - { offset: 0x194474, size: 0x8, addend: 0x0, symName: _ggml_backend_buft_alloc_buffer, symObjAddr: 0x3C, symBinAddr: 0x45B14, symSize: 0x84 }
  - { offset: 0x1944E7, size: 0x8, addend: 0x0, symName: _ggml_backend_buft_alloc_buffer, symObjAddr: 0x3C, symBinAddr: 0x45B14, symSize: 0x84 }
  - { offset: 0x194555, size: 0x8, addend: 0x0, symName: _ggml_backend_buffer_init, symObjAddr: 0xC0, symBinAddr: 0x45B98, symSize: 0x58 }
  - { offset: 0x194568, size: 0x8, addend: 0x0, symName: _ggml_backend_buffer_init, symObjAddr: 0xC0, symBinAddr: 0x45B98, symSize: 0x58 }
  - { offset: 0x1945AF, size: 0x8, addend: 0x0, symName: _ggml_backend_buft_get_alignment, symObjAddr: 0x118, symBinAddr: 0x45BF0, symSize: 0x3C }
  - { offset: 0x1945DD, size: 0x8, addend: 0x0, symName: _ggml_backend_buft_get_max_size, symObjAddr: 0x154, symBinAddr: 0x45C2C, symSize: 0x48 }
  - { offset: 0x1945F0, size: 0x8, addend: 0x0, symName: _ggml_backend_buft_get_max_size, symObjAddr: 0x154, symBinAddr: 0x45C2C, symSize: 0x48 }
  - { offset: 0x19461E, size: 0x8, addend: 0x0, symName: _ggml_backend_buft_get_alloc_size, symObjAddr: 0x19C, symBinAddr: 0x45C74, symSize: 0x48 }
  - { offset: 0x194631, size: 0x8, addend: 0x0, symName: _ggml_backend_buft_get_alloc_size, symObjAddr: 0x19C, symBinAddr: 0x45C74, symSize: 0x48 }
  - { offset: 0x194690, size: 0x8, addend: 0x0, symName: _ggml_backend_buft_is_host, symObjAddr: 0x1E4, symBinAddr: 0x45CBC, symSize: 0x48 }
  - { offset: 0x1946B6, size: 0x8, addend: 0x0, symName: _ggml_backend_buft_is_host, symObjAddr: 0x1E4, symBinAddr: 0x45CBC, symSize: 0x48 }
  - { offset: 0x1946E4, size: 0x8, addend: 0x0, symName: _ggml_backend_buft_get_device, symObjAddr: 0x22C, symBinAddr: 0x45D04, symSize: 0x3C }
  - { offset: 0x1946F7, size: 0x8, addend: 0x0, symName: _ggml_backend_buft_get_device, symObjAddr: 0x22C, symBinAddr: 0x45D04, symSize: 0x3C }
  - { offset: 0x194725, size: 0x8, addend: 0x0, symName: _ggml_backend_buffer_name, symObjAddr: 0x268, symBinAddr: 0x45D40, symSize: 0x70 }
  - { offset: 0x19476A, size: 0x8, addend: 0x0, symName: _ggml_backend_buffer_name, symObjAddr: 0x268, symBinAddr: 0x45D40, symSize: 0x70 }
  - { offset: 0x1947EB, size: 0x8, addend: 0x0, symName: _ggml_backend_buffer_get_type, symObjAddr: 0x2D8, symBinAddr: 0x45DB0, symSize: 0x3C }
  - { offset: 0x1947FE, size: 0x8, addend: 0x0, symName: _ggml_backend_buffer_get_type, symObjAddr: 0x2D8, symBinAddr: 0x45DB0, symSize: 0x3C }
  - { offset: 0x194820, size: 0x8, addend: 0x0, symName: _ggml_backend_buffer_free, symObjAddr: 0x314, symBinAddr: 0x45DEC, symSize: 0x34 }
  - { offset: 0x194834, size: 0x8, addend: 0x0, symName: _ggml_backend_buffer_free, symObjAddr: 0x314, symBinAddr: 0x45DEC, symSize: 0x34 }
  - { offset: 0x19485F, size: 0x8, addend: 0x0, symName: _ggml_backend_buffer_get_size, symObjAddr: 0x348, symBinAddr: 0x45E20, symSize: 0x3C }
  - { offset: 0x194881, size: 0x8, addend: 0x0, symName: _ggml_backend_buffer_get_base, symObjAddr: 0x384, symBinAddr: 0x45E5C, symSize: 0x8C }
  - { offset: 0x194894, size: 0x8, addend: 0x0, symName: _ggml_backend_buffer_get_base, symObjAddr: 0x384, symBinAddr: 0x45E5C, symSize: 0x8C }
  - { offset: 0x1948E2, size: 0x8, addend: 0x0, symName: _ggml_backend_buffer_init_tensor, symObjAddr: 0x410, symBinAddr: 0x45EE8, symSize: 0x48 }
  - { offset: 0x1948F6, size: 0x8, addend: 0x0, symName: _ggml_backend_buffer_init_tensor, symObjAddr: 0x410, symBinAddr: 0x45EE8, symSize: 0x48 }
  - { offset: 0x19492E, size: 0x8, addend: 0x0, symName: _ggml_backend_buffer_clear, symObjAddr: 0x458, symBinAddr: 0x45F30, symSize: 0x48 }
  - { offset: 0x194942, size: 0x8, addend: 0x0, symName: _ggml_backend_buffer_clear, symObjAddr: 0x458, symBinAddr: 0x45F30, symSize: 0x48 }
  - { offset: 0x19497A, size: 0x8, addend: 0x0, symName: _ggml_backend_buffer_get_alignment, symObjAddr: 0x4A0, symBinAddr: 0x45F78, symSize: 0x70 }
  - { offset: 0x1949A7, size: 0x8, addend: 0x0, symName: _ggml_backend_buffer_get_alignment, symObjAddr: 0x4A0, symBinAddr: 0x45F78, symSize: 0x70 }
  - { offset: 0x194A28, size: 0x8, addend: 0x0, symName: _ggml_backend_buffer_get_max_size, symObjAddr: 0x510, symBinAddr: 0x45FE8, symSize: 0x84 }
  - { offset: 0x194A54, size: 0x8, addend: 0x0, symName: _ggml_backend_buffer_get_max_size, symObjAddr: 0x510, symBinAddr: 0x45FE8, symSize: 0x84 }
  - { offset: 0x194AD5, size: 0x8, addend: 0x0, symName: _ggml_backend_buffer_get_alloc_size, symObjAddr: 0x594, symBinAddr: 0x4606C, symSize: 0x84 }
  - { offset: 0x194B1B, size: 0x8, addend: 0x0, symName: _ggml_backend_buffer_get_alloc_size, symObjAddr: 0x594, symBinAddr: 0x4606C, symSize: 0x84 }
  - { offset: 0x194BB2, size: 0x8, addend: 0x0, symName: _ggml_backend_buffer_is_host, symObjAddr: 0x618, symBinAddr: 0x460F0, symSize: 0x84 }
  - { offset: 0x194BDE, size: 0x8, addend: 0x0, symName: _ggml_backend_buffer_is_host, symObjAddr: 0x618, symBinAddr: 0x460F0, symSize: 0x84 }
  - { offset: 0x194C53, size: 0x8, addend: 0x0, symName: _ggml_backend_buffer_set_usage, symObjAddr: 0x69C, symBinAddr: 0x46174, symSize: 0x9C }
  - { offset: 0x194CC1, size: 0x8, addend: 0x0, symName: _ggml_backend_buffer_set_usage, symObjAddr: 0x69C, symBinAddr: 0x46174, symSize: 0x9C }
  - { offset: 0x194D7E, size: 0x8, addend: 0x0, symName: _ggml_backend_buffer_is_multi_buffer, symObjAddr: 0x738, symBinAddr: 0x46210, symSize: 0x4C }
  - { offset: 0x194D92, size: 0x8, addend: 0x0, symName: _ggml_backend_buffer_is_multi_buffer, symObjAddr: 0x738, symBinAddr: 0x46210, symSize: 0x4C }
  - { offset: 0x194DB4, size: 0x8, addend: 0x0, symName: _ggml_backend_multi_buffer_set_usage, symObjAddr: 0x784, symBinAddr: 0x4625C, symSize: 0xBC }
  - { offset: 0x194DC8, size: 0x8, addend: 0x0, symName: _ggml_backend_multi_buffer_set_usage, symObjAddr: 0x784, symBinAddr: 0x4625C, symSize: 0xBC }
  - { offset: 0x194E67, size: 0x8, addend: 0x0, symName: _ggml_backend_buffer_get_usage, symObjAddr: 0x840, symBinAddr: 0x46318, symSize: 0x3C }
  - { offset: 0x194E7B, size: 0x8, addend: 0x0, symName: _ggml_backend_buffer_get_usage, symObjAddr: 0x840, symBinAddr: 0x46318, symSize: 0x3C }
  - { offset: 0x194E9D, size: 0x8, addend: 0x0, symName: _ggml_backend_buffer_reset, symObjAddr: 0x87C, symBinAddr: 0x46354, symSize: 0x44 }
  - { offset: 0x194EB1, size: 0x8, addend: 0x0, symName: _ggml_backend_buffer_reset, symObjAddr: 0x87C, symBinAddr: 0x46354, symSize: 0x44 }
  - { offset: 0x194EE7, size: 0x8, addend: 0x0, symName: _ggml_backend_buffer_copy_tensor, symObjAddr: 0x8C0, symBinAddr: 0x46398, symSize: 0x2C }
  - { offset: 0x194EFB, size: 0x8, addend: 0x0, symName: _ggml_backend_buffer_copy_tensor, symObjAddr: 0x8C0, symBinAddr: 0x46398, symSize: 0x2C }
  - { offset: 0x194F3A, size: 0x8, addend: 0x0, symName: _ggml_backend_guid, symObjAddr: 0x8EC, symBinAddr: 0x463C4, symSize: 0xC }
  - { offset: 0x194F65, size: 0x8, addend: 0x0, symName: _ggml_backend_name, symObjAddr: 0x8F8, symBinAddr: 0x463D0, symSize: 0x18 }
  - { offset: 0x194F90, size: 0x8, addend: 0x0, symName: _ggml_backend_free, symObjAddr: 0x910, symBinAddr: 0x463E8, symSize: 0x10 }
  - { offset: 0x194FDC, size: 0x8, addend: 0x0, symName: _ggml_backend_get_default_buffer_type, symObjAddr: 0x920, symBinAddr: 0x463F8, symSize: 0x70 }
  - { offset: 0x195039, size: 0x8, addend: 0x0, symName: _ggml_backend_dev_buffer_type, symObjAddr: 0x990, symBinAddr: 0x46468, symSize: 0x3C }
  - { offset: 0x19504D, size: 0x8, addend: 0x0, symName: _ggml_backend_dev_buffer_type, symObjAddr: 0x990, symBinAddr: 0x46468, symSize: 0x3C }
  - { offset: 0x19507B, size: 0x8, addend: 0x0, symName: _ggml_backend_alloc_buffer, symObjAddr: 0x9CC, symBinAddr: 0x464A4, symSize: 0xE8 }
  - { offset: 0x1950CC, size: 0x8, addend: 0x0, symName: _ggml_backend_alloc_buffer, symObjAddr: 0x9CC, symBinAddr: 0x464A4, symSize: 0xE8 }
  - { offset: 0x1951D8, size: 0x8, addend: 0x0, symName: _ggml_backend_get_alignment, symObjAddr: 0xAB4, symBinAddr: 0x4658C, symSize: 0xA0 }
  - { offset: 0x1951EB, size: 0x8, addend: 0x0, symName: _ggml_backend_get_alignment, symObjAddr: 0xAB4, symBinAddr: 0x4658C, symSize: 0xA0 }
  - { offset: 0x1952A7, size: 0x8, addend: 0x0, symName: _ggml_backend_get_max_size, symObjAddr: 0xB54, symBinAddr: 0x4662C, symSize: 0xB4 }
  - { offset: 0x1952BA, size: 0x8, addend: 0x0, symName: _ggml_backend_get_max_size, symObjAddr: 0xB54, symBinAddr: 0x4662C, symSize: 0xB4 }
  - { offset: 0x195376, size: 0x8, addend: 0x0, symName: _ggml_backend_tensor_set_async, symObjAddr: 0xC08, symBinAddr: 0x466E0, symSize: 0x1DC }
  - { offset: 0x1953E8, size: 0x8, addend: 0x0, symName: _ggml_backend_tensor_set_async, symObjAddr: 0xC08, symBinAddr: 0x466E0, symSize: 0x1DC }
  - { offset: 0x195588, size: 0x8, addend: 0x0, symName: _ggml_backend_synchronize, symObjAddr: 0xDE4, symBinAddr: 0x468BC, symSize: 0x44 }
  - { offset: 0x19559C, size: 0x8, addend: 0x0, symName: _ggml_backend_synchronize, symObjAddr: 0xDE4, symBinAddr: 0x468BC, symSize: 0x44 }
  - { offset: 0x1955CA, size: 0x8, addend: 0x0, symName: _ggml_backend_tensor_set, symObjAddr: 0xE28, symBinAddr: 0x46900, symSize: 0x138 }
  - { offset: 0x1955DE, size: 0x8, addend: 0x0, symName: _ggml_backend_tensor_set, symObjAddr: 0xE28, symBinAddr: 0x46900, symSize: 0x138 }
  - { offset: 0x19568F, size: 0x8, addend: 0x0, symName: _ggml_backend_tensor_get_async, symObjAddr: 0xF60, symBinAddr: 0x46A38, symSize: 0x1DC }
  - { offset: 0x1956EB, size: 0x8, addend: 0x0, symName: _ggml_backend_tensor_get_async, symObjAddr: 0xF60, symBinAddr: 0x46A38, symSize: 0x1DC }
  - { offset: 0x195891, size: 0x8, addend: 0x0, symName: _ggml_backend_tensor_get, symObjAddr: 0x113C, symBinAddr: 0x46C14, symSize: 0x138 }
  - { offset: 0x1958A5, size: 0x8, addend: 0x0, symName: _ggml_backend_tensor_get, symObjAddr: 0x113C, symBinAddr: 0x46C14, symSize: 0x138 }
  - { offset: 0x195956, size: 0x8, addend: 0x0, symName: _ggml_backend_tensor_memset, symObjAddr: 0x1274, symBinAddr: 0x46D4C, symSize: 0x160 }
  - { offset: 0x19596A, size: 0x8, addend: 0x0, symName: _ggml_backend_tensor_memset, symObjAddr: 0x1274, symBinAddr: 0x46D4C, symSize: 0x160 }
  - { offset: 0x195A58, size: 0x8, addend: 0x0, symName: _ggml_backend_graph_plan_create, symObjAddr: 0x13D4, symBinAddr: 0x46EAC, symSize: 0x6C }
  - { offset: 0x195A6C, size: 0x8, addend: 0x0, symName: _ggml_backend_graph_plan_create, symObjAddr: 0x13D4, symBinAddr: 0x46EAC, symSize: 0x6C }
  - { offset: 0x195AD0, size: 0x8, addend: 0x0, symName: _ggml_backend_graph_plan_free, symObjAddr: 0x1440, symBinAddr: 0x46F18, symSize: 0x6C }
  - { offset: 0x195AE4, size: 0x8, addend: 0x0, symName: _ggml_backend_graph_plan_free, symObjAddr: 0x1440, symBinAddr: 0x46F18, symSize: 0x6C }
  - { offset: 0x195B44, size: 0x8, addend: 0x0, symName: _ggml_backend_graph_plan_compute, symObjAddr: 0x14AC, symBinAddr: 0x46F84, symSize: 0x6C }
  - { offset: 0x195B58, size: 0x8, addend: 0x0, symName: _ggml_backend_graph_plan_compute, symObjAddr: 0x14AC, symBinAddr: 0x46F84, symSize: 0x6C }
  - { offset: 0x195BBC, size: 0x8, addend: 0x0, symName: _ggml_backend_graph_compute, symObjAddr: 0x1518, symBinAddr: 0x46FF0, symSize: 0x6C }
  - { offset: 0x195BF7, size: 0x8, addend: 0x0, symName: _ggml_backend_graph_compute, symObjAddr: 0x1518, symBinAddr: 0x46FF0, symSize: 0x6C }
  - { offset: 0x195C8F, size: 0x8, addend: 0x0, symName: _ggml_backend_graph_compute_async, symObjAddr: 0x1584, symBinAddr: 0x4705C, symSize: 0x3C }
  - { offset: 0x195CA3, size: 0x8, addend: 0x0, symName: _ggml_backend_graph_compute_async, symObjAddr: 0x1584, symBinAddr: 0x4705C, symSize: 0x3C }
  - { offset: 0x195CDB, size: 0x8, addend: 0x0, symName: _ggml_backend_supports_op, symObjAddr: 0x15C0, symBinAddr: 0x47098, symSize: 0x70 }
  - { offset: 0x195D16, size: 0x8, addend: 0x0, symName: _ggml_backend_supports_op, symObjAddr: 0x15C0, symBinAddr: 0x47098, symSize: 0x70 }
  - { offset: 0x195D88, size: 0x8, addend: 0x0, symName: _ggml_backend_dev_supports_op, symObjAddr: 0x1630, symBinAddr: 0x47108, symSize: 0x3C }
  - { offset: 0x195D9C, size: 0x8, addend: 0x0, symName: _ggml_backend_dev_supports_op, symObjAddr: 0x1630, symBinAddr: 0x47108, symSize: 0x3C }
  - { offset: 0x195DD4, size: 0x8, addend: 0x0, symName: _ggml_backend_supports_buft, symObjAddr: 0x166C, symBinAddr: 0x47144, symSize: 0x70 }
  - { offset: 0x195E0F, size: 0x8, addend: 0x0, symName: _ggml_backend_supports_buft, symObjAddr: 0x166C, symBinAddr: 0x47144, symSize: 0x70 }
  - { offset: 0x195E81, size: 0x8, addend: 0x0, symName: _ggml_backend_dev_supports_buft, symObjAddr: 0x16DC, symBinAddr: 0x471B4, symSize: 0x3C }
  - { offset: 0x195E95, size: 0x8, addend: 0x0, symName: _ggml_backend_dev_supports_buft, symObjAddr: 0x16DC, symBinAddr: 0x471B4, symSize: 0x3C }
  - { offset: 0x195ECD, size: 0x8, addend: 0x0, symName: _ggml_backend_offload_op, symObjAddr: 0x1718, symBinAddr: 0x471F0, symSize: 0x84 }
  - { offset: 0x195F08, size: 0x8, addend: 0x0, symName: _ggml_backend_offload_op, symObjAddr: 0x1718, symBinAddr: 0x471F0, symSize: 0x84 }
  - { offset: 0x195F7A, size: 0x8, addend: 0x0, symName: _ggml_backend_dev_offload_op, symObjAddr: 0x179C, symBinAddr: 0x47274, symSize: 0x48 }
  - { offset: 0x195F8E, size: 0x8, addend: 0x0, symName: _ggml_backend_dev_offload_op, symObjAddr: 0x179C, symBinAddr: 0x47274, symSize: 0x48 }
  - { offset: 0x195FC6, size: 0x8, addend: 0x0, symName: _ggml_backend_get_device, symObjAddr: 0x17E4, symBinAddr: 0x472BC, symSize: 0x3C }
  - { offset: 0x195FDA, size: 0x8, addend: 0x0, symName: _ggml_backend_get_device, symObjAddr: 0x17E4, symBinAddr: 0x472BC, symSize: 0x3C }
  - { offset: 0x195FFC, size: 0x8, addend: 0x0, symName: _ggml_backend_tensor_copy, symObjAddr: 0x1820, symBinAddr: 0x472F8, symSize: 0x250 }
  - { offset: 0x196090, size: 0x8, addend: 0x0, symName: _ggml_backend_tensor_copy, symObjAddr: 0x1820, symBinAddr: 0x472F8, symSize: 0x250 }
  - { offset: 0x1963AD, size: 0x8, addend: 0x0, symName: _ggml_backend_tensor_copy_async, symObjAddr: 0x1A70, symBinAddr: 0x47548, symSize: 0x1A0 }
  - { offset: 0x1963E0, size: 0x8, addend: 0x0, symName: _ggml_backend_tensor_copy_async, symObjAddr: 0x1A70, symBinAddr: 0x47548, symSize: 0x1A0 }
  - { offset: 0x19653D, size: 0x8, addend: 0x0, symName: _ggml_backend_event_new, symObjAddr: 0x1C10, symBinAddr: 0x476E8, symSize: 0x18 }
  - { offset: 0x196551, size: 0x8, addend: 0x0, symName: _ggml_backend_event_new, symObjAddr: 0x1C10, symBinAddr: 0x476E8, symSize: 0x18 }
  - { offset: 0x19657C, size: 0x8, addend: 0x0, symName: _ggml_backend_event_free, symObjAddr: 0x1C28, symBinAddr: 0x47700, symSize: 0x18 }
  - { offset: 0x1965A7, size: 0x8, addend: 0x0, symName: _ggml_backend_event_record, symObjAddr: 0x1C40, symBinAddr: 0x47718, symSize: 0x78 }
  - { offset: 0x1965F6, size: 0x8, addend: 0x0, symName: _ggml_backend_event_synchronize, symObjAddr: 0x1CB8, symBinAddr: 0x47790, symSize: 0x74 }
  - { offset: 0x19660A, size: 0x8, addend: 0x0, symName: _ggml_backend_event_synchronize, symObjAddr: 0x1CB8, symBinAddr: 0x47790, symSize: 0x74 }
  - { offset: 0x19664F, size: 0x8, addend: 0x0, symName: _ggml_backend_event_wait, symObjAddr: 0x1D2C, symBinAddr: 0x47804, symSize: 0x6C }
  - { offset: 0x196663, size: 0x8, addend: 0x0, symName: _ggml_backend_event_wait, symObjAddr: 0x1D2C, symBinAddr: 0x47804, symSize: 0x6C }
  - { offset: 0x1966B2, size: 0x8, addend: 0x0, symName: _ggml_backend_dev_name, symObjAddr: 0x1D98, symBinAddr: 0x47870, symSize: 0x3C }
  - { offset: 0x1966C6, size: 0x8, addend: 0x0, symName: _ggml_backend_dev_name, symObjAddr: 0x1D98, symBinAddr: 0x47870, symSize: 0x3C }
  - { offset: 0x196702, size: 0x8, addend: 0x0, symName: _ggml_backend_dev_description, symObjAddr: 0x1DD4, symBinAddr: 0x478AC, symSize: 0x3C }
  - { offset: 0x196716, size: 0x8, addend: 0x0, symName: _ggml_backend_dev_description, symObjAddr: 0x1DD4, symBinAddr: 0x478AC, symSize: 0x3C }
  - { offset: 0x196752, size: 0x8, addend: 0x0, symName: _ggml_backend_dev_memory, symObjAddr: 0x1E10, symBinAddr: 0x478E8, symSize: 0x3C }
  - { offset: 0x196766, size: 0x8, addend: 0x0, symName: _ggml_backend_dev_memory, symObjAddr: 0x1E10, symBinAddr: 0x478E8, symSize: 0x3C }
  - { offset: 0x1967C0, size: 0x8, addend: 0x0, symName: _ggml_backend_dev_type, symObjAddr: 0x1E4C, symBinAddr: 0x47924, symSize: 0x3C }
  - { offset: 0x1967D4, size: 0x8, addend: 0x0, symName: _ggml_backend_dev_type, symObjAddr: 0x1E4C, symBinAddr: 0x47924, symSize: 0x3C }
  - { offset: 0x196802, size: 0x8, addend: 0x0, symName: _ggml_backend_dev_get_props, symObjAddr: 0x1E88, symBinAddr: 0x47960, symSize: 0x18 }
  - { offset: 0x196816, size: 0x8, addend: 0x0, symName: _ggml_backend_dev_get_props, symObjAddr: 0x1E88, symBinAddr: 0x47960, symSize: 0x18 }
  - { offset: 0x196869, size: 0x8, addend: 0x0, symName: _ggml_backend_dev_backend_reg, symObjAddr: 0x1EA0, symBinAddr: 0x47978, symSize: 0x3C }
  - { offset: 0x196899, size: 0x8, addend: 0x0, symName: _ggml_backend_dev_init, symObjAddr: 0x1EDC, symBinAddr: 0x479B4, symSize: 0x3C }
  - { offset: 0x1968AD, size: 0x8, addend: 0x0, symName: _ggml_backend_dev_init, symObjAddr: 0x1EDC, symBinAddr: 0x479B4, symSize: 0x3C }
  - { offset: 0x1968FA, size: 0x8, addend: 0x0, symName: _ggml_backend_dev_host_buffer_type, symObjAddr: 0x1F18, symBinAddr: 0x479F0, symSize: 0x48 }
  - { offset: 0x19690E, size: 0x8, addend: 0x0, symName: _ggml_backend_dev_host_buffer_type, symObjAddr: 0x1F18, symBinAddr: 0x479F0, symSize: 0x48 }
  - { offset: 0x19694A, size: 0x8, addend: 0x0, symName: _ggml_backend_dev_buffer_from_host_ptr, symObjAddr: 0x1F60, symBinAddr: 0x47A38, symSize: 0x3C }
  - { offset: 0x19695E, size: 0x8, addend: 0x0, symName: _ggml_backend_dev_buffer_from_host_ptr, symObjAddr: 0x1F60, symBinAddr: 0x47A38, symSize: 0x3C }
  - { offset: 0x1969CD, size: 0x8, addend: 0x0, symName: _ggml_backend_reg_name, symObjAddr: 0x1F9C, symBinAddr: 0x47A74, symSize: 0x3C }
  - { offset: 0x1969E1, size: 0x8, addend: 0x0, symName: _ggml_backend_reg_name, symObjAddr: 0x1F9C, symBinAddr: 0x47A74, symSize: 0x3C }
  - { offset: 0x196A1D, size: 0x8, addend: 0x0, symName: _ggml_backend_reg_dev_count, symObjAddr: 0x1FD8, symBinAddr: 0x47AB0, symSize: 0x3C }
  - { offset: 0x196A31, size: 0x8, addend: 0x0, symName: _ggml_backend_reg_dev_count, symObjAddr: 0x1FD8, symBinAddr: 0x47AB0, symSize: 0x3C }
  - { offset: 0x196A6D, size: 0x8, addend: 0x0, symName: _ggml_backend_reg_dev_get, symObjAddr: 0x2014, symBinAddr: 0x47AEC, symSize: 0x3C }
  - { offset: 0x196A81, size: 0x8, addend: 0x0, symName: _ggml_backend_reg_dev_get, symObjAddr: 0x2014, symBinAddr: 0x47AEC, symSize: 0x3C }
  - { offset: 0x196ACE, size: 0x8, addend: 0x0, symName: _ggml_backend_reg_get_proc_address, symObjAddr: 0x2050, symBinAddr: 0x47B28, symSize: 0x48 }
  - { offset: 0x196AE2, size: 0x8, addend: 0x0, symName: _ggml_backend_reg_get_proc_address, symObjAddr: 0x2050, symBinAddr: 0x47B28, symSize: 0x48 }
  - { offset: 0x196B2F, size: 0x8, addend: 0x0, symName: _ggml_backend_multi_buffer_alloc_buffer, symObjAddr: 0x2098, symBinAddr: 0x47B70, symSize: 0xF8 }
  - { offset: 0x196B5C, size: 0x8, addend: 0x0, symName: _ggml_backend_multi_buffer_alloc_buffer, symObjAddr: 0x2098, symBinAddr: 0x47B70, symSize: 0xF8 }
  - { offset: 0x196C6C, size: 0x8, addend: 0x0, symName: __ZL37ggml_backend_multi_buffer_free_bufferP19ggml_backend_buffer, symObjAddr: 0x2190, symBinAddr: 0x47C68, symSize: 0xA8 }
  - { offset: 0x196C95, size: 0x8, addend: 0x0, symName: __ZL37ggml_backend_multi_buffer_free_bufferP19ggml_backend_buffer, symObjAddr: 0x2190, symBinAddr: 0x47C68, symSize: 0xA8 }
  - { offset: 0x196D3F, size: 0x8, addend: 0x0, symName: _ggml_backend_sched_split_graph, symObjAddr: 0x2238, symBinAddr: 0x47D10, symSize: 0x2264 }
  - { offset: 0x197150, size: 0x8, addend: 0x0, symName: _ggml_backend_sched_split_graph, symObjAddr: 0x2238, symBinAddr: 0x47D10, symSize: 0x2264 }
  - { offset: 0x199F05, size: 0x8, addend: 0x0, symName: __ZL38ggml_backend_sched_backend_id_from_curP18ggml_backend_schedP11ggml_tensor, symObjAddr: 0x449C, symBinAddr: 0x49F74, symSize: 0x458 }
  - { offset: 0x199F3B, size: 0x8, addend: 0x0, symName: __ZL38ggml_backend_sched_backend_id_from_curP18ggml_backend_schedP11ggml_tensor, symObjAddr: 0x449C, symBinAddr: 0x49F74, symSize: 0x458 }
  - { offset: 0x19A220, size: 0x8, addend: 0x0, symName: __ZL35ggml_backend_sched_buffer_supportedP18ggml_backend_schedP11ggml_tensori, symObjAddr: 0x48F4, symBinAddr: 0x4A3CC, symSize: 0x1A8 }
  - { offset: 0x19A233, size: 0x8, addend: 0x0, symName: __ZL35ggml_backend_sched_buffer_supportedP18ggml_backend_schedP11ggml_tensori, symObjAddr: 0x48F4, symBinAddr: 0x4A3CC, symSize: 0x1A8 }
  - { offset: 0x19A475, size: 0x8, addend: 0x0, symName: _ggml_backend_sched_new, symObjAddr: 0x4A9C, symBinAddr: 0x4A574, symSize: 0x4D0 }
  - { offset: 0x19A590, size: 0x8, addend: 0x0, symName: __ZL38ggml_backend_sched_backend_from_bufferP18ggml_backend_schedPK11ggml_tensorS3_, symObjAddr: 0x7C60, symBinAddr: 0x4D738, symSize: 0x150 }
  - { offset: 0x19A77C, size: 0x8, addend: 0x0, symName: _ggml_backend_sched_new, symObjAddr: 0x4A9C, symBinAddr: 0x4A574, symSize: 0x4D0 }
  - { offset: 0x19AC0D, size: 0x8, addend: 0x0, symName: _ggml_backend_sched_reset, symObjAddr: 0x4F6C, symBinAddr: 0x4AA44, symSize: 0x9C }
  - { offset: 0x19ACBC, size: 0x8, addend: 0x0, symName: _ggml_backend_sched_reset, symObjAddr: 0x4F6C, symBinAddr: 0x4AA44, symSize: 0x9C }
  - { offset: 0x19ACF5, size: 0x8, addend: 0x0, symName: _ggml_backend_sched_free, symObjAddr: 0x5008, symBinAddr: 0x4AAE0, symSize: 0x108 }
  - { offset: 0x19AD20, size: 0x8, addend: 0x0, symName: _ggml_backend_sched_free, symObjAddr: 0x5008, symBinAddr: 0x4AAE0, symSize: 0x108 }
  - { offset: 0x19AEBC, size: 0x8, addend: 0x0, symName: _ggml_backend_sched_reserve_size, symObjAddr: 0x5110, symBinAddr: 0x4ABE8, symSize: 0x1A0 }
  - { offset: 0x19AFFB, size: 0x8, addend: 0x0, symName: _ggml_backend_sched_synchronize, symObjAddr: 0x52B0, symBinAddr: 0x4AD88, symSize: 0xC4 }
  - { offset: 0x19B031, size: 0x8, addend: 0x0, symName: _ggml_backend_sched_synchronize, symObjAddr: 0x52B0, symBinAddr: 0x4AD88, symSize: 0xC4 }
  - { offset: 0x19B0A4, size: 0x8, addend: 0x0, symName: _ggml_backend_sched_reserve, symObjAddr: 0x5374, symBinAddr: 0x4AE4C, symSize: 0x178 }
  - { offset: 0x19B0B8, size: 0x8, addend: 0x0, symName: _ggml_backend_sched_reserve, symObjAddr: 0x5374, symBinAddr: 0x4AE4C, symSize: 0x178 }
  - { offset: 0x19B1DC, size: 0x8, addend: 0x0, symName: _ggml_backend_sched_alloc_graph, symObjAddr: 0x54EC, symBinAddr: 0x4AFC4, symSize: 0x2B0 }
  - { offset: 0x19B27D, size: 0x8, addend: 0x0, symName: _ggml_backend_sched_alloc_graph, symObjAddr: 0x54EC, symBinAddr: 0x4AFC4, symSize: 0x2B0 }
  - { offset: 0x19B41E, size: 0x8, addend: 0x0, symName: _ggml_backend_sched_graph_compute, symObjAddr: 0x579C, symBinAddr: 0x4B274, symSize: 0xD0 }
  - { offset: 0x19B449, size: 0x8, addend: 0x0, symName: _ggml_backend_sched_graph_compute, symObjAddr: 0x579C, symBinAddr: 0x4B274, symSize: 0xD0 }
  - { offset: 0x19B524, size: 0x8, addend: 0x0, symName: _ggml_backend_sched_graph_compute_async, symObjAddr: 0x586C, symBinAddr: 0x4B344, symSize: 0xDB8 }
  - { offset: 0x19B538, size: 0x8, addend: 0x0, symName: _ggml_backend_sched_graph_compute_async, symObjAddr: 0x586C, symBinAddr: 0x4B344, symSize: 0xDB8 }
  - { offset: 0x19D685, size: 0x8, addend: 0x0, symName: _ggml_backend_sched_set_eval_callback, symObjAddr: 0x6624, symBinAddr: 0x4C0FC, symSize: 0x40 }
  - { offset: 0x19D6D3, size: 0x8, addend: 0x0, symName: _ggml_backend_sched_get_n_splits, symObjAddr: 0x6664, symBinAddr: 0x4C13C, symSize: 0x3C }
  - { offset: 0x19D6E7, size: 0x8, addend: 0x0, symName: _ggml_backend_sched_get_n_splits, symObjAddr: 0x6664, symBinAddr: 0x4C13C, symSize: 0x3C }
  - { offset: 0x19D717, size: 0x8, addend: 0x0, symName: _ggml_backend_sched_get_n_copies, symObjAddr: 0x66A0, symBinAddr: 0x4C178, symSize: 0x3C }
  - { offset: 0x19D72B, size: 0x8, addend: 0x0, symName: _ggml_backend_sched_get_n_copies, symObjAddr: 0x66A0, symBinAddr: 0x4C178, symSize: 0x3C }
  - { offset: 0x19D75B, size: 0x8, addend: 0x0, symName: _ggml_backend_sched_get_n_backends, symObjAddr: 0x66DC, symBinAddr: 0x4C1B4, symSize: 0x3C }
  - { offset: 0x19D76F, size: 0x8, addend: 0x0, symName: _ggml_backend_sched_get_n_backends, symObjAddr: 0x66DC, symBinAddr: 0x4C1B4, symSize: 0x3C }
  - { offset: 0x19D79F, size: 0x8, addend: 0x0, symName: _ggml_backend_sched_get_backend, symObjAddr: 0x6718, symBinAddr: 0x4C1F0, symSize: 0x7C }
  - { offset: 0x19D7B3, size: 0x8, addend: 0x0, symName: _ggml_backend_sched_get_backend, symObjAddr: 0x6718, symBinAddr: 0x4C1F0, symSize: 0x7C }
  - { offset: 0x19D80B, size: 0x8, addend: 0x0, symName: _ggml_backend_sched_get_buffer_type, symObjAddr: 0x6794, symBinAddr: 0x4C26C, symSize: 0xA0 }
  - { offset: 0x19D85A, size: 0x8, addend: 0x0, symName: _ggml_backend_sched_get_buffer_type, symObjAddr: 0x6794, symBinAddr: 0x4C26C, symSize: 0xA0 }
  - { offset: 0x19D907, size: 0x8, addend: 0x0, symName: _ggml_backend_sched_get_buffer_size, symObjAddr: 0x6834, symBinAddr: 0x4C30C, symSize: 0xA0 }
  - { offset: 0x19D91B, size: 0x8, addend: 0x0, symName: _ggml_backend_sched_get_buffer_size, symObjAddr: 0x6834, symBinAddr: 0x4C30C, symSize: 0xA0 }
  - { offset: 0x19D9D6, size: 0x8, addend: 0x0, symName: _ggml_backend_sched_set_tensor_backend, symObjAddr: 0x68D4, symBinAddr: 0x4C3AC, symSize: 0x11C }
  - { offset: 0x19DA01, size: 0x8, addend: 0x0, symName: _ggml_backend_sched_set_tensor_backend, symObjAddr: 0x68D4, symBinAddr: 0x4C3AC, symSize: 0x11C }
  - { offset: 0x19DB7E, size: 0x8, addend: 0x0, symName: _ggml_backend_sched_get_tensor_backend, symObjAddr: 0x69F0, symBinAddr: 0x4C4C8, symSize: 0xE0 }
  - { offset: 0x19DB92, size: 0x8, addend: 0x0, symName: _ggml_backend_sched_get_tensor_backend, symObjAddr: 0x69F0, symBinAddr: 0x4C4C8, symSize: 0xE0 }
  - { offset: 0x19DC8B, size: 0x8, addend: 0x0, symName: _ggml_backend_view_init, symObjAddr: 0x6AD0, symBinAddr: 0x4C5A8, symSize: 0x11C }
  - { offset: 0x19DCC3, size: 0x8, addend: 0x0, symName: _ggml_backend_view_init, symObjAddr: 0x6AD0, symBinAddr: 0x4C5A8, symSize: 0x11C }
  - { offset: 0x19DD82, size: 0x8, addend: 0x0, symName: _ggml_backend_tensor_alloc, symObjAddr: 0x6BEC, symBinAddr: 0x4C6C4, symSize: 0x264 }
  - { offset: 0x19DDDF, size: 0x8, addend: 0x0, symName: _ggml_backend_tensor_alloc, symObjAddr: 0x6BEC, symBinAddr: 0x4C6C4, symSize: 0x264 }
  - { offset: 0x19E043, size: 0x8, addend: 0x0, symName: _ggml_backend_graph_copy, symObjAddr: 0x6E50, symBinAddr: 0x4C928, symSize: 0x2A8 }
  - { offset: 0x19E057, size: 0x8, addend: 0x0, symName: _ggml_backend_graph_copy, symObjAddr: 0x6E50, symBinAddr: 0x4C928, symSize: 0x2A8 }
  - { offset: 0x19E455, size: 0x8, addend: 0x0, symName: __ZL21graph_copy_dup_tensor13ggml_hash_setPP11ggml_tensorP12ggml_contextS4_S1_, symObjAddr: 0x70F8, symBinAddr: 0x4CBD0, symSize: 0x3F4 }
  - { offset: 0x19E476, size: 0x8, addend: 0x0, symName: __ZL21graph_copy_dup_tensor13ggml_hash_setPP11ggml_tensorP12ggml_contextS4_S1_, symObjAddr: 0x70F8, symBinAddr: 0x4CBD0, symSize: 0x3F4 }
  - { offset: 0x19E8C9, size: 0x8, addend: 0x0, symName: __ZL22graph_copy_init_tensorP13ggml_hash_setPP11ggml_tensorPbS2_, symObjAddr: 0x74EC, symBinAddr: 0x4CFC4, symSize: 0x1EC }
  - { offset: 0x19E8FF, size: 0x8, addend: 0x0, symName: __ZL22graph_copy_init_tensorP13ggml_hash_setPP11ggml_tensorPbS2_, symObjAddr: 0x74EC, symBinAddr: 0x4CFC4, symSize: 0x1EC }
  - { offset: 0x19EBDE, size: 0x8, addend: 0x0, symName: _ggml_backend_graph_copy_free, symObjAddr: 0x76D8, symBinAddr: 0x4D1B0, symSize: 0x48 }
  - { offset: 0x19EC6C, size: 0x8, addend: 0x0, symName: _ggml_backend_graph_copy_free, symObjAddr: 0x76D8, symBinAddr: 0x4D1B0, symSize: 0x48 }
  - { offset: 0x19ED64, size: 0x8, addend: 0x0, symName: _ggml_backend_compare_graph_backend, symObjAddr: 0x7720, symBinAddr: 0x4D1F8, symSize: 0x328 }
  - { offset: 0x19F3DE, size: 0x8, addend: 0x0, symName: _ggml_backend_cpu_buffer_type, symObjAddr: 0x7A48, symBinAddr: 0x4D520, symSize: 0xC }
  - { offset: 0x19F3F2, size: 0x8, addend: 0x0, symName: __ZL37ggml_backend_cpu_buffer_type_get_nameP24ggml_backend_buffer_type, symObjAddr: 0x7A54, symBinAddr: 0x4D52C, symSize: 0xC }
  - { offset: 0x19F41E, size: 0x8, addend: 0x0, symName: __ZL41ggml_backend_cpu_buffer_type_alloc_bufferP24ggml_backend_buffer_typem, symObjAddr: 0x7A60, symBinAddr: 0x4D538, symSize: 0xA4 }
  - { offset: 0x19F4F3, size: 0x8, addend: 0x0, symName: __ZL42ggml_backend_cpu_buffer_type_get_alignmentP24ggml_backend_buffer_type, symObjAddr: 0x7B04, symBinAddr: 0x4D5DC, symSize: 0x8 }
  - { offset: 0x19F51F, size: 0x8, addend: 0x0, symName: __ZL36ggml_backend_cpu_buffer_type_is_hostP24ggml_backend_buffer_type, symObjAddr: 0x7B0C, symBinAddr: 0x4D5E4, symSize: 0x8 }
  - { offset: 0x19F54B, size: 0x8, addend: 0x0, symName: _ggml_backend_cpu_buffer_from_ptr, symObjAddr: 0x7B14, symBinAddr: 0x4D5EC, symSize: 0x8C }
  - { offset: 0x19F5D1, size: 0x8, addend: 0x0, symName: __ZL31ggml_backend_multi_buffer_clearP19ggml_backend_bufferh, symObjAddr: 0x7BA0, symBinAddr: 0x4D678, symSize: 0xC0 }
  - { offset: 0x19F605, size: 0x8, addend: 0x0, symName: __ZL31ggml_backend_multi_buffer_clearP19ggml_backend_bufferh, symObjAddr: 0x7BA0, symBinAddr: 0x4D678, symSize: 0xC0 }
  - { offset: 0x19F6BD, size: 0x8, addend: 0x0, symName: __ZL38ggml_backend_sched_backend_from_bufferP18ggml_backend_schedPK11ggml_tensorS3_, symObjAddr: 0x7C60, symBinAddr: 0x4D738, symSize: 0x150 }
  - { offset: 0x19F6D1, size: 0x8, addend: 0x0, symName: __ZL35ggml_backend_cpu_buffer_free_bufferP19ggml_backend_buffer, symObjAddr: 0x7DD8, symBinAddr: 0x4D888, symSize: 0x40 }
  - { offset: 0x19F70F, size: 0x8, addend: 0x0, symName: __ZL32ggml_backend_cpu_buffer_get_baseP19ggml_backend_buffer, symObjAddr: 0x7E18, symBinAddr: 0x4D8C8, symSize: 0x4C }
  - { offset: 0x19F737, size: 0x8, addend: 0x0, symName: __ZL32ggml_backend_cpu_buffer_get_baseP19ggml_backend_buffer, symObjAddr: 0x7E18, symBinAddr: 0x4D8C8, symSize: 0x4C }
  - { offset: 0x19F77C, size: 0x8, addend: 0x0, symName: __ZL37ggml_backend_cpu_buffer_memset_tensorP19ggml_backend_bufferP11ggml_tensorhmm, symObjAddr: 0x7E64, symBinAddr: 0x4D914, symSize: 0x48 }
  - { offset: 0x19F790, size: 0x8, addend: 0x0, symName: __ZL37ggml_backend_cpu_buffer_memset_tensorP19ggml_backend_bufferP11ggml_tensorhmm, symObjAddr: 0x7E64, symBinAddr: 0x4D914, symSize: 0x48 }
  - { offset: 0x19F7FF, size: 0x8, addend: 0x0, symName: __ZL34ggml_backend_cpu_buffer_set_tensorP19ggml_backend_bufferP11ggml_tensorPKvmm, symObjAddr: 0x7EAC, symBinAddr: 0x4D95C, symSize: 0x48 }
  - { offset: 0x19F813, size: 0x8, addend: 0x0, symName: __ZL34ggml_backend_cpu_buffer_set_tensorP19ggml_backend_bufferP11ggml_tensorPKvmm, symObjAddr: 0x7EAC, symBinAddr: 0x4D95C, symSize: 0x48 }
  - { offset: 0x19F882, size: 0x8, addend: 0x0, symName: __ZL34ggml_backend_cpu_buffer_get_tensorP19ggml_backend_bufferPK11ggml_tensorPvmm, symObjAddr: 0x7EF4, symBinAddr: 0x4D9A4, symSize: 0x48 }
  - { offset: 0x19F896, size: 0x8, addend: 0x0, symName: __ZL34ggml_backend_cpu_buffer_get_tensorP19ggml_backend_bufferPK11ggml_tensorPvmm, symObjAddr: 0x7EF4, symBinAddr: 0x4D9A4, symSize: 0x48 }
  - { offset: 0x19F905, size: 0x8, addend: 0x0, symName: __ZL34ggml_backend_cpu_buffer_cpy_tensorP19ggml_backend_bufferPK11ggml_tensorPS1_, symObjAddr: 0x7F3C, symBinAddr: 0x4D9EC, symSize: 0xFC }
  - { offset: 0x19F919, size: 0x8, addend: 0x0, symName: __ZL34ggml_backend_cpu_buffer_cpy_tensorP19ggml_backend_bufferPK11ggml_tensorPS1_, symObjAddr: 0x7F3C, symBinAddr: 0x4D9EC, symSize: 0xFC }
  - { offset: 0x19FA03, size: 0x8, addend: 0x0, symName: __ZL29ggml_backend_cpu_buffer_clearP19ggml_backend_bufferh, symObjAddr: 0x8038, symBinAddr: 0x4DAE8, symSize: 0x40 }
  - { offset: 0x19FA16, size: 0x8, addend: 0x0, symName: __ZL29ggml_backend_cpu_buffer_clearP19ggml_backend_bufferh, symObjAddr: 0x8038, symBinAddr: 0x4DAE8, symSize: 0x40 }
  - { offset: 0x19FA57, size: 0x8, addend: 0x0, symName: __ZL46ggml_backend_cpu_buffer_from_ptr_type_get_nameP24ggml_backend_buffer_type, symObjAddr: 0x8078, symBinAddr: 0x4DB28, symSize: 0xC }
  - { offset: 0x19FA6B, size: 0x8, addend: 0x0, symName: __ZL46ggml_backend_cpu_buffer_from_ptr_type_get_nameP24ggml_backend_buffer_type, symObjAddr: 0x8078, symBinAddr: 0x4DB28, symSize: 0xC }
  - { offset: 0x1A194E, size: 0x8, addend: 0x0, symName: _ggml_opt_dataset_init, symObjAddr: 0x0, symBinAddr: 0x4DB34, symSize: 0x248 }
  - { offset: 0x1A9AA7, size: 0x8, addend: 0x0, symName: __ZNSt3__124uniform_int_distributionIlEclINS_23mersenne_twister_engineIjLm32ELm624ELm397ELm31ELj2567483615ELm11ELj4294967295ELm7ELj2636928640ELm15ELj4022730752ELm18ELj1812433253EEEEElRT_RKNS1_10param_typeE, symObjAddr: 0x3CC8, symBinAddr: 0x51578, symSize: 0x198 }
  - { offset: 0x1A9B4B, size: 0x8, addend: 0x0, symName: __ZNSt3__124uniform_int_distributionIlEclINS_23mersenne_twister_engineIjLm32ELm624ELm397ELm31ELj2567483615ELm11ELj4294967295ELm7ELj2636928640ELm15ELj4022730752ELm18ELj1812433253EEEEElRT_RKNS1_10param_typeE, symObjAddr: 0x3CC8, symBinAddr: 0x51578, symSize: 0x198 }
  - { offset: 0x1A9EB0, size: 0x8, addend: 0x0, symName: _ggml_opt_dataset_init, symObjAddr: 0x0, symBinAddr: 0x4DB34, symSize: 0x248 }
  - { offset: 0x1AA131, size: 0x8, addend: 0x0, symName: _ggml_opt_dataset_free, symObjAddr: 0x248, symBinAddr: 0x4DD7C, symSize: 0x40 }
  - { offset: 0x1AA1C8, size: 0x8, addend: 0x0, symName: __ZNSt3__16vectorIxNS_9allocatorIxEEE8__appendEm, symObjAddr: 0x3B9C, symBinAddr: 0x5144C, symSize: 0x118 }
  - { offset: 0x1AA666, size: 0x8, addend: 0x0, symName: __ZNSt3__16vectorIxNS_9allocatorIxEEE20__throw_length_errorB9nqe210106Ev, symObjAddr: 0x3CB4, symBinAddr: 0x51564, symSize: 0x14 }
  - { offset: 0x1AA7D9, size: 0x8, addend: 0x0, symName: _ggml_opt_dataset_free, symObjAddr: 0x248, symBinAddr: 0x4DD7C, symSize: 0x40 }
  - { offset: 0x1AA996, size: 0x8, addend: 0x0, symName: _ggml_opt_dataset_ndata, symObjAddr: 0x288, symBinAddr: 0x4DDBC, symSize: 0x8 }
  - { offset: 0x1AA9C1, size: 0x8, addend: 0x0, symName: _ggml_opt_dataset_data, symObjAddr: 0x290, symBinAddr: 0x4DDC4, symSize: 0x8 }
  - { offset: 0x1AA9E0, size: 0x8, addend: 0x0, symName: _ggml_opt_dataset_labels, symObjAddr: 0x298, symBinAddr: 0x4DDCC, symSize: 0x8 }
  - { offset: 0x1AABB3, size: 0x8, addend: 0x0, symName: _ggml_opt_dataset_shuffle, symObjAddr: 0x2A0, symBinAddr: 0x4DDD4, symSize: 0x188 }
  - { offset: 0x1AB1B7, size: 0x8, addend: 0x0, symName: _ggml_opt_dataset_get_batch, symObjAddr: 0x428, symBinAddr: 0x4DF5C, symSize: 0x2B0 }
  - { offset: 0x1AB209, size: 0x8, addend: 0x0, symName: _ggml_opt_dataset_get_batch, symObjAddr: 0x428, symBinAddr: 0x4DF5C, symSize: 0x2B0 }
  - { offset: 0x1AB467, size: 0x8, addend: 0x0, symName: _ggml_opt_dataset_get_batch_host, symObjAddr: 0x6D8, symBinAddr: 0x4E20C, symSize: 0x180 }
  - { offset: 0x1AB4AB, size: 0x8, addend: 0x0, symName: _ggml_opt_dataset_get_batch_host, symObjAddr: 0x6D8, symBinAddr: 0x4E20C, symSize: 0x180 }
  - { offset: 0x1AB60D, size: 0x8, addend: 0x0, symName: _ggml_opt_get_default_optimizer_params, symObjAddr: 0x858, symBinAddr: 0x4E38C, symSize: 0x20 }
  - { offset: 0x1AB621, size: 0x8, addend: 0x0, symName: _ggml_opt_get_default_optimizer_params, symObjAddr: 0x858, symBinAddr: 0x4E38C, symSize: 0x20 }
  - { offset: 0x1AB656, size: 0x8, addend: 0x0, symName: _ggml_opt_get_constant_optimizer_params, symObjAddr: 0x878, symBinAddr: 0x4E3AC, symSize: 0x14 }
  - { offset: 0x1AB67F, size: 0x8, addend: 0x0, symName: _ggml_opt_default_params, symObjAddr: 0x88C, symBinAddr: 0x4E3C0, symSize: 0x34 }
  - { offset: 0x1AB9F8, size: 0x8, addend: 0x0, symName: _ggml_opt_init, symObjAddr: 0x8C0, symBinAddr: 0x4E3F4, symSize: 0x224 }
  - { offset: 0x1ABC14, size: 0x8, addend: 0x0, symName: __ZL14ggml_opt_buildP16ggml_opt_context, symObjAddr: 0xAE4, symBinAddr: 0x4E618, symSize: 0x9F4 }
  - { offset: 0x1ABC59, size: 0x8, addend: 0x0, symName: __ZL14ggml_opt_buildP16ggml_opt_context, symObjAddr: 0xAE4, symBinAddr: 0x4E618, symSize: 0x9F4 }
  - { offset: 0x1AC7A0, size: 0x8, addend: 0x0, symName: _ggml_opt_free, symObjAddr: 0x14D8, symBinAddr: 0x4F00C, symSize: 0x78 }
  - { offset: 0x1ACA23, size: 0x8, addend: 0x0, symName: __ZNSt3__16vectorIP11ggml_tensorNS_9allocatorIS2_EEE8__appendEm, symObjAddr: 0x34B8, symBinAddr: 0x50FEC, symSize: 0x118 }
  - { offset: 0x1AD104, size: 0x8, addend: 0x0, symName: _ggml_opt_free, symObjAddr: 0x14D8, symBinAddr: 0x4F00C, symSize: 0x78 }
  - { offset: 0x1AD505, size: 0x8, addend: 0x0, symName: _ggml_opt_reset, symObjAddr: 0x1550, symBinAddr: 0x4F084, symSize: 0x3C }
  - { offset: 0x1AD55B, size: 0x8, addend: 0x0, symName: _ggml_opt_static_graphs, symObjAddr: 0x158C, symBinAddr: 0x4F0C0, symSize: 0x8 }
  - { offset: 0x1AD57A, size: 0x8, addend: 0x0, symName: _ggml_opt_inputs, symObjAddr: 0x1594, symBinAddr: 0x4F0C8, symSize: 0x8 }
  - { offset: 0x1AD599, size: 0x8, addend: 0x0, symName: _ggml_opt_outputs, symObjAddr: 0x159C, symBinAddr: 0x4F0D0, symSize: 0x8 }
  - { offset: 0x1AD5C6, size: 0x8, addend: 0x0, symName: _ggml_opt_labels, symObjAddr: 0x15A4, symBinAddr: 0x4F0D8, symSize: 0x8 }
  - { offset: 0x1AD5F3, size: 0x8, addend: 0x0, symName: _ggml_opt_loss, symObjAddr: 0x15AC, symBinAddr: 0x4F0E0, symSize: 0x8 }
  - { offset: 0x1AD620, size: 0x8, addend: 0x0, symName: _ggml_opt_pred, symObjAddr: 0x15B4, symBinAddr: 0x4F0E8, symSize: 0x8 }
  - { offset: 0x1AD64D, size: 0x8, addend: 0x0, symName: _ggml_opt_ncorrect, symObjAddr: 0x15BC, symBinAddr: 0x4F0F0, symSize: 0x8 }
  - { offset: 0x1AD67A, size: 0x8, addend: 0x0, symName: _ggml_opt_grad_acc, symObjAddr: 0x15C4, symBinAddr: 0x4F0F8, symSize: 0x8 }
  - { offset: 0x1AD7D3, size: 0x8, addend: 0x0, symName: _ggml_opt_result_init, symObjAddr: 0x15CC, symBinAddr: 0x4F100, symSize: 0x30 }
  - { offset: 0x1ADAC7, size: 0x8, addend: 0x0, symName: _ggml_opt_result_free, symObjAddr: 0x15FC, symBinAddr: 0x4F130, symSize: 0x48 }
  - { offset: 0x1ADD91, size: 0x8, addend: 0x0, symName: _ggml_opt_result_reset, symObjAddr: 0x1644, symBinAddr: 0x4F178, symSize: 0x1C }
  - { offset: 0x1ADE84, size: 0x8, addend: 0x0, symName: _ggml_opt_result_ndata, symObjAddr: 0x1660, symBinAddr: 0x4F194, symSize: 0xC }
  - { offset: 0x1ADEBA, size: 0x8, addend: 0x0, symName: _ggml_opt_result_loss, symObjAddr: 0x166C, symBinAddr: 0x4F1A0, symSize: 0x270 }
  - { offset: 0x1ADF1C, size: 0x8, addend: 0x0, symName: _ggml_opt_result_loss, symObjAddr: 0x166C, symBinAddr: 0x4F1A0, symSize: 0x270 }
  - { offset: 0x1ADF8D, size: 0x8, addend: 0x0, symName: _ggml_opt_result_pred, symObjAddr: 0x18DC, symBinAddr: 0x4F410, symSize: 0x7C }
  - { offset: 0x1ADFE3, size: 0x8, addend: 0x0, symName: _ggml_opt_result_accuracy, symObjAddr: 0x1958, symBinAddr: 0x4F48C, symSize: 0x6C }
  - { offset: 0x1AE010, size: 0x8, addend: 0x0, symName: _ggml_opt_prepare_alloc, symObjAddr: 0x19C4, symBinAddr: 0x4F4F8, symSize: 0x50 }
  - { offset: 0x1AE080, size: 0x8, addend: 0x0, symName: _ggml_opt_alloc, symObjAddr: 0x1A14, symBinAddr: 0x4F548, symSize: 0x4A0 }
  - { offset: 0x1AE2EB, size: 0x8, addend: 0x0, symName: _ggml_opt_alloc, symObjAddr: 0x1A14, symBinAddr: 0x4F548, symSize: 0x4A0 }
  - { offset: 0x1AE904, size: 0x8, addend: 0x0, symName: __ZL10map_tensorRNSt3__13mapIP11ggml_tensorS2_NS_4lessIS2_EENS_9allocatorINS_4pairIKS2_S2_EEEEEEP12ggml_contextS2_, symObjAddr: 0x3680, symBinAddr: 0x51104, symSize: 0x304 }
  - { offset: 0x1AF1AF, size: 0x8, addend: 0x0, symName: __ZNSt3__16__treeINS_12__value_typeIP11ggml_tensorS3_EENS_19__map_value_compareIS3_NS_4pairIKS3_S3_EENS_4lessIS3_EELb1EEENS_9allocatorIS8_EEE7destroyEPNS_11__tree_nodeIS4_PvEE, symObjAddr: 0x3B58, symBinAddr: 0x51408, symSize: 0x44 }
  - { offset: 0x1AF801, size: 0x8, addend: 0x0, symName: _ggml_opt_eval, symObjAddr: 0x1EB4, symBinAddr: 0x4F9E8, symSize: 0x714 }
  - { offset: 0x1B0BAF, size: 0x8, addend: 0x0, symName: _ggml_opt_epoch, symObjAddr: 0x25C8, symBinAddr: 0x500FC, symSize: 0x2D4 }
  - { offset: 0x1B0FB2, size: 0x8, addend: 0x0, symName: _ggml_opt_epoch_callback_progress_bar, symObjAddr: 0x289C, symBinAddr: 0x503D0, symSize: 0x658 }
  - { offset: 0x1B10C9, size: 0x8, addend: 0x0, symName: _ggml_opt_epoch_callback_progress_bar, symObjAddr: 0x289C, symBinAddr: 0x503D0, symSize: 0x658 }
  - { offset: 0x1B1605, size: 0x8, addend: 0x0, symName: _ggml_opt_fit, symObjAddr: 0x2EF4, symBinAddr: 0x50A28, symSize: 0x590 }
  - { offset: 0x1B24AE, size: 0x8, addend: 0x0, symName: _ggml_opt_context_optimizer_type, symObjAddr: 0x3484, symBinAddr: 0x50FB8, symSize: 0x8 }
  - { offset: 0x1B24CB, size: 0x8, addend: 0x0, symName: _ggml_opt_context_optimizer_type, symObjAddr: 0x3484, symBinAddr: 0x50FB8, symSize: 0x8 }
  - { offset: 0x1B24F8, size: 0x8, addend: 0x0, symName: _ggml_opt_optimizer_name, symObjAddr: 0x348C, symBinAddr: 0x50FC0, symSize: 0x2C }
  - { offset: 0x1B32AF, size: 0x8, addend: 0x0, symName: __ZNSt3__16vectorIxNS_9allocatorIxEEE20__throw_length_errorB9nqe210106Ev, symObjAddr: 0x3CB4, symBinAddr: 0x51564, symSize: 0x14 }
  - { offset: 0x1B32C7, size: 0x8, addend: 0x0, symName: __ZNSt3__124uniform_int_distributionIlEclINS_23mersenne_twister_engineIjLm32ELm624ELm397ELm31ELj2567483615ELm11ELj4294967295ELm7ELj2636928640ELm15ELj4022730752ELm18ELj1812433253EEEEElRT_RKNS1_10param_typeE, symObjAddr: 0x3CC8, symBinAddr: 0x51578, symSize: 0x198 }
  - { offset: 0x1B3380, size: 0x8, addend: 0x0, symName: __ZNSt3__125__independent_bits_engineINS_23mersenne_twister_engineIjLm32ELm624ELm397ELm31ELj2567483615ELm11ELj4294967295ELm7ELj2636928640ELm15ELj4022730752ELm18ELj1812433253EEEmE6__evalENS_17integral_constantIbLb1EEE, symObjAddr: 0x3E60, symBinAddr: 0x51710, symSize: 0x330 }
  - { offset: 0x1B59B3, size: 0x8, addend: 0x0, symName: _quantize_row_q4_0_ref, symObjAddr: 0x0, symBinAddr: 0x51A40, symSize: 0x3B0 }
  - { offset: 0x1B59C1, size: 0x8, addend: 0x0, symName: _quantize_row_q4_0_ref, symObjAddr: 0x0, symBinAddr: 0x51A40, symSize: 0x3B0 }
  - { offset: 0x1B5C2C, size: 0x8, addend: 0x0, symName: _quantize_row_q5_0_ref, symObjAddr: 0x7DC, symBinAddr: 0x5221C, symSize: 0x4B4 }
  - { offset: 0x1B5E9C, size: 0x8, addend: 0x0, symName: _quantize_row_mxfp4_ref, symObjAddr: 0x1874, symBinAddr: 0x532B4, symSize: 0x8A0 }
  - { offset: 0x1B6028, size: 0x8, addend: 0x0, symName: _quantize_row_nvfp4_ref, symObjAddr: 0x2114, symBinAddr: 0x53B54, symSize: 0x590 }
  - { offset: 0x1B629B, size: 0x8, addend: 0x0, symName: _dequantize_row_q4_0, symObjAddr: 0x26A4, symBinAddr: 0x540E4, symSize: 0x190 }
  - { offset: 0x1B6445, size: 0x8, addend: 0x0, symName: _dequantize_row_q4_1, symObjAddr: 0x2834, symBinAddr: 0x54274, symSize: 0x1A8 }
  - { offset: 0x1B66BE, size: 0x8, addend: 0x0, symName: _dequantize_row_q5_0, symObjAddr: 0x29DC, symBinAddr: 0x5441C, symSize: 0x1F8 }
  - { offset: 0x1B6890, size: 0x8, addend: 0x0, symName: _dequantize_row_q5_1, symObjAddr: 0x2BD4, symBinAddr: 0x54614, symSize: 0x240 }
  - { offset: 0x1B6B29, size: 0x8, addend: 0x0, symName: _dequantize_row_q8_0, symObjAddr: 0x2E14, symBinAddr: 0x54854, symSize: 0x10C }
  - { offset: 0x1B6CAA, size: 0x8, addend: 0x0, symName: _dequantize_row_mxfp4, symObjAddr: 0x2F20, symBinAddr: 0x54960, symSize: 0x3E0 }
  - { offset: 0x1B6DC1, size: 0x8, addend: 0x0, symName: _dequantize_row_nvfp4, symObjAddr: 0x3300, symBinAddr: 0x54D40, symSize: 0x2C4 }
  - { offset: 0x1B6F27, size: 0x8, addend: 0x0, symName: _iq2xs_init_impl, symObjAddr: 0x19C60, symBinAddr: 0x6B6A0, symSize: 0xBE0 }
  - { offset: 0x1B6F4B, size: 0x8, addend: 0x0, symName: _iq2xs_init_impl.kgrid_2bit_256, symObjAddr: 0x31D70, symBinAddr: 0x159930, symSize: 0x0 }
  - { offset: 0x1B6F62, size: 0x8, addend: 0x0, symName: _iq2xs_init_impl.kgrid_2bit_512, symObjAddr: 0x31F70, symBinAddr: 0x159B30, symSize: 0x0 }
  - { offset: 0x1B6F79, size: 0x8, addend: 0x0, symName: _iq2xs_init_impl.kgrid_1bit_2048, symObjAddr: 0x32370, symBinAddr: 0x159F30, symSize: 0x0 }
  - { offset: 0x1B6F90, size: 0x8, addend: 0x0, symName: _iq2xs_init_impl.kgrid_2bit_1024, symObjAddr: 0x33370, symBinAddr: 0x15AF30, symSize: 0x0 }
  - { offset: 0x1B74AC, size: 0x8, addend: 0x0, symName: _iq2_compare_func, symObjAddr: 0x1A840, symBinAddr: 0x6C280, symSize: 0x40 }
  - { offset: 0x1B7523, size: 0x8, addend: 0x0, symName: _iq3xs_init_impl, symObjAddr: 0x1DC78, symBinAddr: 0x6F6B8, symSize: 0x968 }
  - { offset: 0x1B7547, size: 0x8, addend: 0x0, symName: _iq3xs_init_impl.kgrid_256, symObjAddr: 0x33B70, symBinAddr: 0x15B730, symSize: 0x0 }
  - { offset: 0x1B755E, size: 0x8, addend: 0x0, symName: _iq3xs_init_impl.kgrid_512, symObjAddr: 0x33D70, symBinAddr: 0x15B930, symSize: 0x0 }
  - { offset: 0x1B7A5A, size: 0x8, addend: 0x0, symName: _iq3_compare_func, symObjAddr: 0x1E5E0, symBinAddr: 0x70020, symSize: 0x40 }
  - { offset: 0x1B7A81, size: 0x8, addend: 0x0, symName: _kvalues_mxfp4, symObjAddr: 0x298CA, symBinAddr: 0x15148A, symSize: 0x0 }
  - { offset: 0x1B7ABF, size: 0x8, addend: 0x0, symName: _iq2xxs_grid, symObjAddr: 0x298E0, symBinAddr: 0x1514A0, symSize: 0x0 }
  - { offset: 0x1B7AFE, size: 0x8, addend: 0x0, symName: _ksigns_iq2xs, symObjAddr: 0x2A0E0, symBinAddr: 0x151CA0, symSize: 0x0 }
  - { offset: 0x1B7B3C, size: 0x8, addend: 0x0, symName: _iq2xs_grid, symObjAddr: 0x2A160, symBinAddr: 0x151D20, symSize: 0x0 }
  - { offset: 0x1B7B62, size: 0x8, addend: 0x0, symName: _iq2s_grid, symObjAddr: 0x2B160, symBinAddr: 0x152D20, symSize: 0x0 }
  - { offset: 0x1B7B88, size: 0x8, addend: 0x0, symName: _iq3xxs_grid, symObjAddr: 0x2D160, symBinAddr: 0x154D20, symSize: 0x0 }
  - { offset: 0x1B7BC7, size: 0x8, addend: 0x0, symName: _iq3s_grid, symObjAddr: 0x2D560, symBinAddr: 0x155120, symSize: 0x0 }
  - { offset: 0x1B7BED, size: 0x8, addend: 0x0, symName: _iq1s_grid, symObjAddr: 0x2DD60, symBinAddr: 0x155920, symSize: 0x0 }
  - { offset: 0x1B7C13, size: 0x8, addend: 0x0, symName: _kvalues_iq4nl, symObjAddr: 0x31D60, symBinAddr: 0x159920, symSize: 0x0 }
  - { offset: 0x1B7C2A, size: 0x8, addend: 0x0, symName: _iq2_data, symObjAddr: 0xA9278, symBinAddr: 0x216298, symSize: 0x0 }
  - { offset: 0x1B7C9F, size: 0x8, addend: 0x0, symName: _iq3_data, symObjAddr: 0xA92D8, symBinAddr: 0x2162F8, symSize: 0x0 }
  - { offset: 0x1B88CF, size: 0x8, addend: 0x0, symName: _quantize_row_q4_1_ref, symObjAddr: 0x3B0, symBinAddr: 0x51DF0, symSize: 0x42C }
  - { offset: 0x1B8C20, size: 0x8, addend: 0x0, symName: _quantize_row_q5_1_ref, symObjAddr: 0xC90, symBinAddr: 0x526D0, symSize: 0x528 }
  - { offset: 0x1B8F8C, size: 0x8, addend: 0x0, symName: _quantize_row_q8_0_ref, symObjAddr: 0x11B8, symBinAddr: 0x52BF8, symSize: 0x314 }
  - { offset: 0x1B91A2, size: 0x8, addend: 0x0, symName: _quantize_row_q8_1_ref, symObjAddr: 0x14CC, symBinAddr: 0x52F0C, symSize: 0x3A8 }
  - { offset: 0x1B9967, size: 0x8, addend: 0x0, symName: _quantize_row_q2_K_ref, symObjAddr: 0x35C4, symBinAddr: 0x55004, symSize: 0xD60 }
  - { offset: 0x1BA145, size: 0x8, addend: 0x0, symName: _dequantize_row_q2_K, symObjAddr: 0x4324, symBinAddr: 0x55D64, symSize: 0x3AC }
  - { offset: 0x1BA8E2, size: 0x8, addend: 0x0, symName: _quantize_q2_K, symObjAddr: 0x46D0, symBinAddr: 0x56110, symSize: 0xF7C }
  - { offset: 0x1BB211, size: 0x8, addend: 0x0, symName: _make_qp_quants, symObjAddr: 0x27B2C, symBinAddr: 0x7956C, symSize: 0xF2C }
  - { offset: 0x1BB76F, size: 0x8, addend: 0x0, symName: _quantize_row_q3_K_ref, symObjAddr: 0x564C, symBinAddr: 0x5708C, symSize: 0xD14 }
  - { offset: 0x1BBCDB, size: 0x8, addend: 0x0, symName: _dequantize_row_q3_K, symObjAddr: 0x6360, symBinAddr: 0x57DA0, symSize: 0x540 }
  - { offset: 0x1BC32A, size: 0x8, addend: 0x0, symName: _quantize_q3_K, symObjAddr: 0x68A0, symBinAddr: 0x582E0, symSize: 0x13E4 }
  - { offset: 0x1BCAA4, size: 0x8, addend: 0x0, symName: _quantize_row_q4_K_ref, symObjAddr: 0x7C84, symBinAddr: 0x596C4, symSize: 0x1660 }
  - { offset: 0x1BCFEC, size: 0x8, addend: 0x0, symName: _dequantize_row_q4_K, symObjAddr: 0x92E4, symBinAddr: 0x5AD24, symSize: 0x6D0 }
  - { offset: 0x1BD583, size: 0x8, addend: 0x0, symName: _quantize_q4_K, symObjAddr: 0x99B4, symBinAddr: 0x5B3F4, symSize: 0x181C }
  - { offset: 0x1BDD3A, size: 0x8, addend: 0x0, symName: _quantize_row_q5_K_ref, symObjAddr: 0xB1D0, symBinAddr: 0x5CC10, symSize: 0x1804 }
  - { offset: 0x1BE2DA, size: 0x8, addend: 0x0, symName: _dequantize_row_q5_K, symObjAddr: 0xC9D4, symBinAddr: 0x5E414, symSize: 0x4EC }
  - { offset: 0x1BE93C, size: 0x8, addend: 0x0, symName: _quantize_q5_K, symObjAddr: 0xCEC0, symBinAddr: 0x5E900, symSize: 0x19CC }
  - { offset: 0x1BF121, size: 0x8, addend: 0x0, symName: _quantize_row_q6_K_ref, symObjAddr: 0xE88C, symBinAddr: 0x602CC, symSize: 0xC40 }
  - { offset: 0x1BF647, size: 0x8, addend: 0x0, symName: _dequantize_row_q6_K, symObjAddr: 0xF4CC, symBinAddr: 0x60F0C, symSize: 0x82C }
  - { offset: 0x1BF9DC, size: 0x8, addend: 0x0, symName: _quantize_q6_K, symObjAddr: 0xFCF8, symBinAddr: 0x61738, symSize: 0xAE8 }
  - { offset: 0x1C003C, size: 0x8, addend: 0x0, symName: _quantize_q4_0, symObjAddr: 0x107E0, symBinAddr: 0x62220, symSize: 0xD9C }
  - { offset: 0x1C0541, size: 0x8, addend: 0x0, symName: _quantize_q4_1, symObjAddr: 0x1157C, symBinAddr: 0x62FBC, symSize: 0x1264 }
  - { offset: 0x1C0C3E, size: 0x8, addend: 0x0, symName: _quantize_q5_0, symObjAddr: 0x127E0, symBinAddr: 0x64220, symSize: 0xFD4 }
  - { offset: 0x1C119F, size: 0x8, addend: 0x0, symName: _quantize_q5_1, symObjAddr: 0x137B4, symBinAddr: 0x651F4, symSize: 0x15A4 }
  - { offset: 0x1C179F, size: 0x8, addend: 0x0, symName: _quantize_q8_0, symObjAddr: 0x14D58, symBinAddr: 0x66798, symSize: 0x5C }
  - { offset: 0x1C185B, size: 0x8, addend: 0x0, symName: _quantize_mxfp4, symObjAddr: 0x14DB4, symBinAddr: 0x667F4, symSize: 0x38 }
  - { offset: 0x1C1908, size: 0x8, addend: 0x0, symName: _quantize_nvfp4, symObjAddr: 0x14DEC, symBinAddr: 0x6682C, symSize: 0x38 }
  - { offset: 0x1C19B5, size: 0x8, addend: 0x0, symName: _quantize_row_tq1_0_ref, symObjAddr: 0x14E24, symBinAddr: 0x66864, symSize: 0x39C }
  - { offset: 0x1C1D55, size: 0x8, addend: 0x0, symName: _quantize_row_tq2_0_ref, symObjAddr: 0x151C0, symBinAddr: 0x66C00, symSize: 0x1D4 }
  - { offset: 0x1C1FCA, size: 0x8, addend: 0x0, symName: _quantize_tq1_0, symObjAddr: 0x15394, symBinAddr: 0x66DD4, symSize: 0x5C }
  - { offset: 0x1C2087, size: 0x8, addend: 0x0, symName: _quantize_tq2_0, symObjAddr: 0x153F0, symBinAddr: 0x66E30, symSize: 0x5C }
  - { offset: 0x1C2144, size: 0x8, addend: 0x0, symName: _dequantize_row_tq1_0, symObjAddr: 0x1544C, symBinAddr: 0x66E8C, symSize: 0xC7C }
  - { offset: 0x1C2405, size: 0x8, addend: 0x0, symName: _dequantize_row_tq2_0, symObjAddr: 0x160C8, symBinAddr: 0x67B08, symSize: 0x9C8 }
  - { offset: 0x1C25F4, size: 0x8, addend: 0x0, symName: _dequantize_row_iq2_xxs, symObjAddr: 0x16A90, symBinAddr: 0x684D0, symSize: 0x370 }
  - { offset: 0x1C2838, size: 0x8, addend: 0x0, symName: _dequantize_row_iq2_xs, symObjAddr: 0x16E00, symBinAddr: 0x68840, symSize: 0x4A0 }
  - { offset: 0x1C2A45, size: 0x8, addend: 0x0, symName: _dequantize_row_iq2_s, symObjAddr: 0x172A0, symBinAddr: 0x68CE0, symSize: 0x3AC }
  - { offset: 0x1C2C87, size: 0x8, addend: 0x0, symName: _dequantize_row_iq3_xxs, symObjAddr: 0x1764C, symBinAddr: 0x6908C, symSize: 0x3A0 }
  - { offset: 0x1C2EE1, size: 0x8, addend: 0x0, symName: _dequantize_row_iq3_s, symObjAddr: 0x179EC, symBinAddr: 0x6942C, symSize: 0x6E8 }
  - { offset: 0x1C3194, size: 0x8, addend: 0x0, symName: _dequantize_row_iq1_s, symObjAddr: 0x180D4, symBinAddr: 0x69B14, symSize: 0x1C4 }
  - { offset: 0x1C33EC, size: 0x8, addend: 0x0, symName: _dequantize_row_iq1_m, symObjAddr: 0x18298, symBinAddr: 0x69CD8, symSize: 0x24C }
  - { offset: 0x1C36C0, size: 0x8, addend: 0x0, symName: _dequantize_row_iq4_nl, symObjAddr: 0x184E4, symBinAddr: 0x69F24, symSize: 0x404 }
  - { offset: 0x1C3872, size: 0x8, addend: 0x0, symName: _dequantize_row_iq4_xs, symObjAddr: 0x188E8, symBinAddr: 0x6A328, symSize: 0x468 }
  - { offset: 0x1C3A71, size: 0x8, addend: 0x0, symName: _quantize_row_q8_K_ref, symObjAddr: 0x18D50, symBinAddr: 0x6A790, symSize: 0x77C }
  - { offset: 0x1C3BFE, size: 0x8, addend: 0x0, symName: _dequantize_row_q8_K, symObjAddr: 0x194CC, symBinAddr: 0x6AF0C, symSize: 0x794 }
  - { offset: 0x1C3D45, size: 0x8, addend: 0x0, symName: _iq2_compare_func, symObjAddr: 0x1A840, symBinAddr: 0x6C280, symSize: 0x40 }
  - { offset: 0x1C3DA1, size: 0x8, addend: 0x0, symName: _iq2xs_free_impl, symObjAddr: 0x1A880, symBinAddr: 0x6C2C0, symSize: 0xF8 }
  - { offset: 0x1C3E1E, size: 0x8, addend: 0x0, symName: _quantize_iq2_xxs, symObjAddr: 0x1A978, symBinAddr: 0x6C3B8, symSize: 0x1974 }
  - { offset: 0x1C42FF, size: 0x8, addend: 0x0, symName: _quantize_iq2_xxs, symObjAddr: 0x1A978, symBinAddr: 0x6C3B8, symSize: 0x1974 }
  - { offset: 0x1C4C14, size: 0x8, addend: 0x0, symName: _quantize_iq2_xs, symObjAddr: 0x1C2EC, symBinAddr: 0x6DD2C, symSize: 0x198C }
  - { offset: 0x1C4C28, size: 0x8, addend: 0x0, symName: _iq2_find_best_neighbour, symObjAddr: 0x28A58, symBinAddr: 0x7A498, symSize: 0x1E0 }
  - { offset: 0x1C4D3C, size: 0x8, addend: 0x0, symName: _iq1_sort_helper, symObjAddr: 0x28C38, symBinAddr: 0x7A678, symSize: 0x18 }
  - { offset: 0x1C536D, size: 0x8, addend: 0x0, symName: _quantize_iq2_xs, symObjAddr: 0x1C2EC, symBinAddr: 0x6DD2C, symSize: 0x198C }
  - { offset: 0x1C5DC0, size: 0x8, addend: 0x0, symName: _iq3xs_init_impl, symObjAddr: 0x1DC78, symBinAddr: 0x6F6B8, symSize: 0x968 }
  - { offset: 0x1C5DF0, size: 0x8, addend: 0x0, symName: _iq3_compare_func, symObjAddr: 0x1E5E0, symBinAddr: 0x70020, symSize: 0x40 }
  - { offset: 0x1C5E4C, size: 0x8, addend: 0x0, symName: _iq3xs_free_impl, symObjAddr: 0x1E620, symBinAddr: 0x70060, symSize: 0x90 }
  - { offset: 0x1C5EC5, size: 0x8, addend: 0x0, symName: _quantize_iq3_xxs, symObjAddr: 0x1E6B0, symBinAddr: 0x700F0, symSize: 0xCC }
  - { offset: 0x1C5ED9, size: 0x8, addend: 0x0, symName: _quantize_iq3_xxs, symObjAddr: 0x1E6B0, symBinAddr: 0x700F0, symSize: 0xCC }
  - { offset: 0x1C5FBA, size: 0x8, addend: 0x0, symName: _quantize_row_iq3_xxs_impl, symObjAddr: 0x1E77C, symBinAddr: 0x701BC, symSize: 0x16AC }
  - { offset: 0x1C5FCE, size: 0x8, addend: 0x0, symName: _quantize_row_iq3_xxs_impl, symObjAddr: 0x1E77C, symBinAddr: 0x701BC, symSize: 0x16AC }
  - { offset: 0x1C6D57, size: 0x8, addend: 0x0, symName: _quantize_row_iq3_xxs_ref, symObjAddr: 0x1FE28, symBinAddr: 0x71868, symSize: 0x8 }
  - { offset: 0x1C7303, size: 0x8, addend: 0x0, symName: _quantize_iq3_s, symObjAddr: 0x1FE30, symBinAddr: 0x71870, symSize: 0x193C }
  - { offset: 0x1C7D5B, size: 0x8, addend: 0x0, symName: _quantize_row_iq3_s_ref, symObjAddr: 0x2176C, symBinAddr: 0x731AC, symSize: 0x10 }
  - { offset: 0x1C81D9, size: 0x8, addend: 0x0, symName: _quantize_iq1_s, symObjAddr: 0x2177C, symBinAddr: 0x731BC, symSize: 0x1674 }
  - { offset: 0x1C89AC, size: 0x8, addend: 0x0, symName: _quantize_iq1_m, symObjAddr: 0x22DF0, symBinAddr: 0x74830, symSize: 0x1448 }
  - { offset: 0x1C89C0, size: 0x8, addend: 0x0, symName: _iq1_find_best_neighbour2, symObjAddr: 0x28C50, symBinAddr: 0x7A690, symSize: 0x45C }
  - { offset: 0x1C922C, size: 0x8, addend: 0x0, symName: _quantize_iq1_m, symObjAddr: 0x22DF0, symBinAddr: 0x74830, symSize: 0x1448 }
  - { offset: 0x1C9AB2, size: 0x8, addend: 0x0, symName: _quantize_iq4_nl, symObjAddr: 0x24238, symBinAddr: 0x75C78, symSize: 0x1CC }
  - { offset: 0x1C9C9B, size: 0x8, addend: 0x0, symName: _quantize_row_iq4_nl_impl, symObjAddr: 0x24404, symBinAddr: 0x75E44, symSize: 0xDCC }
  - { offset: 0x1CA594, size: 0x8, addend: 0x0, symName: _quantize_row_iq4_nl_ref, symObjAddr: 0x251D0, symBinAddr: 0x76C10, symSize: 0xE0 }
  - { offset: 0x1CA6D2, size: 0x8, addend: 0x0, symName: _quantize_iq4_xs, symObjAddr: 0x252B0, symBinAddr: 0x76CF0, symSize: 0x1CC }
  - { offset: 0x1CA917, size: 0x8, addend: 0x0, symName: _quantize_row_iq4_xs_ref, symObjAddr: 0x2547C, symBinAddr: 0x76EBC, symSize: 0xE0 }
  - { offset: 0x1CAEEB, size: 0x8, addend: 0x0, symName: _quantize_iq2_s, symObjAddr: 0x2555C, symBinAddr: 0x76F9C, symSize: 0x1650 }
  - { offset: 0x1CB90B, size: 0x8, addend: 0x0, symName: _quantize_row_iq2_s_ref, symObjAddr: 0x26BAC, symBinAddr: 0x785EC, symSize: 0x10 }
  - { offset: 0x1CBA52, size: 0x8, addend: 0x0, symName: _ggml_validate_row_data, symObjAddr: 0x26BBC, symBinAddr: 0x785FC, symSize: 0xF70 }
  - { offset: 0x1CCE2D, size: 0x8, addend: 0x0, symName: _iq1_sort_helper, symObjAddr: 0x28C38, symBinAddr: 0x7A678, symSize: 0x18 }
  - { offset: 0x1CD138, size: 0x8, addend: 0x0, symName: _ggml_critical_section_mutex, symObjAddr: 0x38, symBinAddr: 0x184348, symSize: 0x0 }
  - { offset: 0x1CDE22, size: 0x8, addend: 0x0, symName: _ggml_critical_section_start, symObjAddr: 0x0, symBinAddr: 0x7AAEC, symSize: 0xC }
  - { offset: 0x1CDE38, size: 0x8, addend: 0x0, symName: _ggml_critical_section_end, symObjAddr: 0xC, symBinAddr: 0x7AAF8, symSize: 0xC }
  - { offset: 0x1CDE55, size: 0x8, addend: 0x0, symName: __GLOBAL__sub_I_ggml_threading.cpp, symObjAddr: 0x18, symBinAddr: 0x7AB04, symSize: 0x1C }
  - { offset: 0x1CDE6D, size: 0x8, addend: 0x0, symName: __GLOBAL__sub_I_ggml_threading.cpp, symObjAddr: 0x18, symBinAddr: 0x7AB04, symSize: 0x1C }
  - { offset: 0x1CFD8A, size: 0x8, addend: 0x0, symName: _ggml_print_backtrace, symObjAddr: 0x0, symBinAddr: 0x7AB20, symSize: 0x4 }
  - { offset: 0x1CFE0C, size: 0x8, addend: 0x0, symName: _ggml_init, symObjAddr: 0x1474, symBinAddr: 0x7BEEC, symSize: 0x154 }
  - { offset: 0x1CFE34, size: 0x8, addend: 0x0, symName: _ggml_init.is_first_call, symObjAddr: 0x9F600, symBinAddr: 0x216330, symSize: 0x0 }
  - { offset: 0x1CFF76, size: 0x8, addend: 0x0, symName: _ggml_reset, symObjAddr: 0x15C8, symBinAddr: 0x7C040, symSize: 0x14 }
  - { offset: 0x1CFF96, size: 0x8, addend: 0x0, symName: _ggml_hash_size, symObjAddr: 0xD288, symBinAddr: 0x87CE0, symSize: 0x48 }
  - { offset: 0x1CFFB7, size: 0x8, addend: 0x0, symName: _ggml_hash_size.primes, symObjAddr: 0x16738, symBinAddr: 0x15BF68, symSize: 0x0 }
  - { offset: 0x1D002E, size: 0x8, addend: 0x0, symName: _g_abort_callback, symObjAddr: 0x9F5F8, symBinAddr: 0x216328, symSize: 0x0 }
  - { offset: 0x1D0067, size: 0x8, addend: 0x0, symName: _type_traits, symObjAddr: 0x1A3F0, symBinAddr: 0x181EB8, symSize: 0x0 }
  - { offset: 0x1D019D, size: 0x8, addend: 0x0, symName: _GGML_OP_NAME, symObjAddr: 0x19D10, symBinAddr: 0x1817D8, symSize: 0x0 }
  - { offset: 0x1D01C2, size: 0x8, addend: 0x0, symName: _GGML_OP_SYMBOL, symObjAddr: 0x1A010, symBinAddr: 0x181AD8, symSize: 0x0 }
  - { offset: 0x1D01D9, size: 0x8, addend: 0x0, symName: _GGML_UNARY_OP_NAME, symObjAddr: 0x1A310, symBinAddr: 0x181DD8, symSize: 0x0 }
  - { offset: 0x1D01FE, size: 0x8, addend: 0x0, symName: _GGML_GLU_OP_NAME, symObjAddr: 0x1A3C0, symBinAddr: 0x181E88, symSize: 0x0 }
  - { offset: 0x1D0223, size: 0x8, addend: 0x0, symName: _g_logger_state.0, symObjAddr: 0x1AD08, symBinAddr: 0x184388, symSize: 0x0 }
  - { offset: 0x1D022E, size: 0x8, addend: 0x0, symName: _g_logger_state.1, symObjAddr: 0x9F608, symBinAddr: 0x216338, symSize: 0x0 }
  - { offset: 0x1D0BF5, size: 0x8, addend: 0x0, symName: _ggml_print_backtrace, symObjAddr: 0x0, symBinAddr: 0x7AB20, symSize: 0x4 }
  - { offset: 0x1D0C0B, size: 0x8, addend: 0x0, symName: _ggml_set_abort_callback, symObjAddr: 0x4, symBinAddr: 0x7AB24, symSize: 0x14 }
  - { offset: 0x1D0C46, size: 0x8, addend: 0x0, symName: _ggml_abort, symObjAddr: 0x18, symBinAddr: 0x14651C, symSize: 0xA8 }
  - { offset: 0x1D0CFE, size: 0x8, addend: 0x0, symName: _ggml_log_internal, symObjAddr: 0xC0, symBinAddr: 0x7AB38, symSize: 0x104 }
  - { offset: 0x1D0FE3, size: 0x8, addend: 0x0, symName: _ggml_log_internal, symObjAddr: 0xC0, symBinAddr: 0x7AB38, symSize: 0x104 }
  - { offset: 0x1D1124, size: 0x8, addend: 0x0, symName: _ggml_log_callback_default, symObjAddr: 0x1C4, symBinAddr: 0x7AC3C, symSize: 0x30 }
  - { offset: 0x1D11A9, size: 0x8, addend: 0x0, symName: _ggml_aligned_malloc, symObjAddr: 0x1F4, symBinAddr: 0x7AC6C, symSize: 0xC8 }
  - { offset: 0x1D1272, size: 0x8, addend: 0x0, symName: _ggml_aligned_free, symObjAddr: 0x2BC, symBinAddr: 0x7AD34, symSize: 0x4 }
  - { offset: 0x1D129A, size: 0x8, addend: 0x0, symName: _ggml_aligned_free, symObjAddr: 0x2BC, symBinAddr: 0x7AD34, symSize: 0x4 }
  - { offset: 0x1D12AE, size: 0x8, addend: 0x0, symName: _ggml_status_to_string, symObjAddr: 0x2C0, symBinAddr: 0x7AD38, symSize: 0x28 }
  - { offset: 0x1D13D8, size: 0x8, addend: 0x0, symName: _ggml_fp16_to_fp32, symObjAddr: 0x2E8, symBinAddr: 0x7AD60, symSize: 0x4C }
  - { offset: 0x1D15EB, size: 0x8, addend: 0x0, symName: _ggml_fp32_to_fp16, symObjAddr: 0x334, symBinAddr: 0x7ADAC, symSize: 0x74 }
  - { offset: 0x1D161B, size: 0x8, addend: 0x0, symName: _ggml_fp32_to_fp16, symObjAddr: 0x334, symBinAddr: 0x7ADAC, symSize: 0x74 }
  - { offset: 0x1D1775, size: 0x8, addend: 0x0, symName: _ggml_bf16_to_fp32, symObjAddr: 0x3A8, symBinAddr: 0x7AE20, symSize: 0xC }
  - { offset: 0x1D17A3, size: 0x8, addend: 0x0, symName: _ggml_bf16_to_fp32, symObjAddr: 0x3A8, symBinAddr: 0x7AE20, symSize: 0xC }
  - { offset: 0x1D181F, size: 0x8, addend: 0x0, symName: _ggml_fp32_to_bf16, symObjAddr: 0x3B4, symBinAddr: 0x7AE2C, symSize: 0x38 }
  - { offset: 0x1D1881, size: 0x8, addend: 0x0, symName: _ggml_fp16_to_fp32_row, symObjAddr: 0x3EC, symBinAddr: 0x7AE64, symSize: 0x120 }
  - { offset: 0x1D18C5, size: 0x8, addend: 0x0, symName: _ggml_fp16_to_fp32_row, symObjAddr: 0x3EC, symBinAddr: 0x7AE64, symSize: 0x120 }
  - { offset: 0x1D199B, size: 0x8, addend: 0x0, symName: _ggml_fp32_to_fp16_row, symObjAddr: 0x50C, symBinAddr: 0x7AF84, symSize: 0x19C }
  - { offset: 0x1D1ADC, size: 0x8, addend: 0x0, symName: _ggml_bf16_to_fp32_row, symObjAddr: 0x6A8, symBinAddr: 0x7B120, symSize: 0xDC }
  - { offset: 0x1D1B4B, size: 0x8, addend: 0x0, symName: _ggml_fp32_to_bf16_row_ref, symObjAddr: 0x784, symBinAddr: 0x7B1FC, symSize: 0xE0 }
  - { offset: 0x1D1B77, size: 0x8, addend: 0x0, symName: _ggml_fp32_to_bf16_row_ref, symObjAddr: 0x784, symBinAddr: 0x7B1FC, symSize: 0xE0 }
  - { offset: 0x1D1BAE, size: 0x8, addend: 0x0, symName: _ggml_fp32_to_bf16_row, symObjAddr: 0x864, symBinAddr: 0x7B2DC, symSize: 0xE0 }
  - { offset: 0x1D1C1D, size: 0x8, addend: 0x0, symName: _ggml_guid_matches, symObjAddr: 0x944, symBinAddr: 0x7B3BC, symSize: 0x18 }
  - { offset: 0x1D1C59, size: 0x8, addend: 0x0, symName: _ggml_version, symObjAddr: 0x95C, symBinAddr: 0x7B3D4, symSize: 0xC }
  - { offset: 0x1D1C74, size: 0x8, addend: 0x0, symName: _ggml_commit, symObjAddr: 0x968, symBinAddr: 0x7B3E0, symSize: 0xC }
  - { offset: 0x1D1C8F, size: 0x8, addend: 0x0, symName: _ggml_time_init, symObjAddr: 0x974, symBinAddr: 0x7B3EC, symSize: 0x4 }
  - { offset: 0x1D1CA6, size: 0x8, addend: 0x0, symName: _ggml_time_ms, symObjAddr: 0x978, symBinAddr: 0x7B3F0, symSize: 0x4C }
  - { offset: 0x1D1D50, size: 0x8, addend: 0x0, symName: _ggml_time_us, symObjAddr: 0x9C4, symBinAddr: 0x7B43C, symSize: 0x50 }
  - { offset: 0x1D1D98, size: 0x8, addend: 0x0, symName: _ggml_cycles, symObjAddr: 0xA14, symBinAddr: 0x7B48C, symSize: 0x4 }
  - { offset: 0x1D1DB7, size: 0x8, addend: 0x0, symName: _ggml_cycles, symObjAddr: 0xA14, symBinAddr: 0x7B48C, symSize: 0x4 }
  - { offset: 0x1D1DD2, size: 0x8, addend: 0x0, symName: _ggml_cycles_per_ms, symObjAddr: 0xA18, symBinAddr: 0x7B490, symSize: 0x8 }
  - { offset: 0x1D1DED, size: 0x8, addend: 0x0, symName: _ggml_fopen, symObjAddr: 0xA20, symBinAddr: 0x7B498, symSize: 0x4 }
  - { offset: 0x1D1E15, size: 0x8, addend: 0x0, symName: _ggml_fopen, symObjAddr: 0xA20, symBinAddr: 0x7B498, symSize: 0x4 }
  - { offset: 0x1D1E4E, size: 0x8, addend: 0x0, symName: _ggml_get_type_traits, symObjAddr: 0xA24, symBinAddr: 0x7B49C, symSize: 0x14 }
  - { offset: 0x1D1E7B, size: 0x8, addend: 0x0, symName: _ggml_print_object, symObjAddr: 0xA38, symBinAddr: 0x7B4B0, symSize: 0x40 }
  - { offset: 0x1D1ED3, size: 0x8, addend: 0x0, symName: _ggml_print_objects, symObjAddr: 0xA78, symBinAddr: 0x7B4F0, symSize: 0x94 }
  - { offset: 0x1D1F72, size: 0x8, addend: 0x0, symName: _ggml_nelements, symObjAddr: 0xB0C, symBinAddr: 0x7B584, symSize: 0x18 }
  - { offset: 0x1D1F91, size: 0x8, addend: 0x0, symName: _ggml_nrows, symObjAddr: 0xB24, symBinAddr: 0x7B59C, symSize: 0x14 }
  - { offset: 0x1D1FF6, size: 0x8, addend: 0x0, symName: _ggml_nbytes, symObjAddr: 0xB38, symBinAddr: 0x7B5B0, symSize: 0xA8 }
  - { offset: 0x1D2028, size: 0x8, addend: 0x0, symName: _ggml_nbytes, symObjAddr: 0xB38, symBinAddr: 0x7B5B0, symSize: 0xA8 }
  - { offset: 0x1D208F, size: 0x8, addend: 0x0, symName: _ggml_blck_size, symObjAddr: 0xBE0, symBinAddr: 0x7B658, symSize: 0x18 }
  - { offset: 0x1D20AE, size: 0x8, addend: 0x0, symName: _ggml_type_size, symObjAddr: 0xBF8, symBinAddr: 0x7B670, symSize: 0x18 }
  - { offset: 0x1D213F, size: 0x8, addend: 0x0, symName: _ggml_nbytes_pad, symObjAddr: 0xC10, symBinAddr: 0x7B688, symSize: 0x9C }
  - { offset: 0x1D2197, size: 0x8, addend: 0x0, symName: _ggml_nbytes_pad, symObjAddr: 0xC10, symBinAddr: 0x7B688, symSize: 0x9C }
  - { offset: 0x1D21FF, size: 0x8, addend: 0x0, symName: _ggml_row_size, symObjAddr: 0xCAC, symBinAddr: 0x7B724, symSize: 0x24 }
  - { offset: 0x1D2229, size: 0x8, addend: 0x0, symName: _ggml_row_size, symObjAddr: 0xCAC, symBinAddr: 0x7B724, symSize: 0x24 }
  - { offset: 0x1D225B, size: 0x8, addend: 0x0, symName: _ggml_type_sizef, symObjAddr: 0xCD0, symBinAddr: 0x7B748, symSize: 0x28 }
  - { offset: 0x1D2286, size: 0x8, addend: 0x0, symName: _ggml_type_name, symObjAddr: 0xCF8, symBinAddr: 0x7B770, symSize: 0x18 }
  - { offset: 0x1D22A5, size: 0x8, addend: 0x0, symName: _ggml_is_quantized, symObjAddr: 0xD10, symBinAddr: 0x7B788, symSize: 0x18 }
  - { offset: 0x1D22C4, size: 0x8, addend: 0x0, symName: _ggml_op_name, symObjAddr: 0xD28, symBinAddr: 0x7B7A0, symSize: 0x10 }
  - { offset: 0x1D22E3, size: 0x8, addend: 0x0, symName: _ggml_op_symbol, symObjAddr: 0xD38, symBinAddr: 0x7B7B0, symSize: 0x10 }
  - { offset: 0x1D2302, size: 0x8, addend: 0x0, symName: _ggml_unary_op_name, symObjAddr: 0xD48, symBinAddr: 0x7B7C0, symSize: 0x10 }
  - { offset: 0x1D2321, size: 0x8, addend: 0x0, symName: _ggml_glu_op_name, symObjAddr: 0xD58, symBinAddr: 0x7B7D0, symSize: 0x10 }
  - { offset: 0x1D23F2, size: 0x8, addend: 0x0, symName: _ggml_op_desc, symObjAddr: 0xD68, symBinAddr: 0x7B7E0, symSize: 0x58 }
  - { offset: 0x1D2523, size: 0x8, addend: 0x0, symName: _ggml_get_unary_op, symObjAddr: 0xDC0, symBinAddr: 0x7B838, symSize: 0x20 }
  - { offset: 0x1D256B, size: 0x8, addend: 0x0, symName: _ggml_get_glu_op, symObjAddr: 0xDE0, symBinAddr: 0x7B858, symSize: 0x20 }
  - { offset: 0x1D2576, size: 0x8, addend: 0x0, symName: _ggml_get_unary_op.cold.1, symObjAddr: 0x12144, symBinAddr: 0x1465E4, symSize: 0x28 }
  - { offset: 0x1D258E, size: 0x8, addend: 0x0, symName: _ggml_get_glu_op, symObjAddr: 0xDE0, symBinAddr: 0x7B858, symSize: 0x20 }
  - { offset: 0x1D25D6, size: 0x8, addend: 0x0, symName: _ggml_element_size, symObjAddr: 0xE00, symBinAddr: 0x7B878, symSize: 0x1C }
  - { offset: 0x1D25E1, size: 0x8, addend: 0x0, symName: _ggml_get_glu_op.cold.1, symObjAddr: 0x1216C, symBinAddr: 0x14660C, symSize: 0x28 }
  - { offset: 0x1D25F9, size: 0x8, addend: 0x0, symName: _ggml_element_size, symObjAddr: 0xE00, symBinAddr: 0x7B878, symSize: 0x1C }
  - { offset: 0x1D262E, size: 0x8, addend: 0x0, symName: _ggml_is_scalar, symObjAddr: 0xE1C, symBinAddr: 0x7B894, symSize: 0x3C }
  - { offset: 0x1D264D, size: 0x8, addend: 0x0, symName: _ggml_is_vector, symObjAddr: 0xE58, symBinAddr: 0x7B8D0, symSize: 0x30 }
  - { offset: 0x1D266C, size: 0x8, addend: 0x0, symName: _ggml_is_matrix, symObjAddr: 0xE88, symBinAddr: 0x7B900, symSize: 0x24 }
  - { offset: 0x1D268B, size: 0x8, addend: 0x0, symName: _ggml_is_3d, symObjAddr: 0xEAC, symBinAddr: 0x7B924, symSize: 0x10 }
  - { offset: 0x1D26AA, size: 0x8, addend: 0x0, symName: _ggml_n_dims, symObjAddr: 0xEBC, symBinAddr: 0x7B934, symSize: 0x3C }
  - { offset: 0x1D26EF, size: 0x8, addend: 0x0, symName: _ggml_ftype_to_ggml_type, symObjAddr: 0xEF8, symBinAddr: 0x7B970, symSize: 0x34 }
  - { offset: 0x1D2730, size: 0x8, addend: 0x0, symName: _ggml_tensor_overhead, symObjAddr: 0xF2C, symBinAddr: 0x7B9A4, symSize: 0x8 }
  - { offset: 0x1D273B, size: 0x8, addend: 0x0, symName: _ggml_ftype_to_ggml_type.cold.1, symObjAddr: 0x12194, symBinAddr: 0x146634, symSize: 0x28 }
  - { offset: 0x1D2762, size: 0x8, addend: 0x0, symName: _ggml_tensor_overhead, symObjAddr: 0xF2C, symBinAddr: 0x7B9A4, symSize: 0x8 }
  - { offset: 0x1D277D, size: 0x8, addend: 0x0, symName: _ggml_is_transposed, symObjAddr: 0xF34, symBinAddr: 0x7B9AC, symSize: 0x10 }
  - { offset: 0x1D27FE, size: 0x8, addend: 0x0, symName: _ggml_is_contiguous, symObjAddr: 0xF44, symBinAddr: 0x7B9BC, symSize: 0x9C }
  - { offset: 0x1D2820, size: 0x8, addend: 0x0, symName: _ggml_is_contiguous, symObjAddr: 0xF44, symBinAddr: 0x7B9BC, symSize: 0x9C }
  - { offset: 0x1D283E, size: 0x8, addend: 0x0, symName: _ggml_is_contiguous, symObjAddr: 0xF44, symBinAddr: 0x7B9BC, symSize: 0x9C }
  - { offset: 0x1D28B5, size: 0x8, addend: 0x0, symName: _ggml_is_contiguous_0, symObjAddr: 0xFE0, symBinAddr: 0x7BA58, symSize: 0x9C }
  - { offset: 0x1D28D7, size: 0x8, addend: 0x0, symName: _ggml_is_contiguous_0, symObjAddr: 0xFE0, symBinAddr: 0x7BA58, symSize: 0x9C }
  - { offset: 0x1D294D, size: 0x8, addend: 0x0, symName: _ggml_is_contiguous_1, symObjAddr: 0x107C, symBinAddr: 0x7BAF4, symSize: 0x88 }
  - { offset: 0x1D296F, size: 0x8, addend: 0x0, symName: _ggml_is_contiguous_1, symObjAddr: 0x107C, symBinAddr: 0x7BAF4, symSize: 0x88 }
  - { offset: 0x1D29E5, size: 0x8, addend: 0x0, symName: _ggml_is_contiguous_2, symObjAddr: 0x1104, symBinAddr: 0x7BB7C, symSize: 0x6C }
  - { offset: 0x1D2A15, size: 0x8, addend: 0x0, symName: _ggml_is_contiguous_2, symObjAddr: 0x1104, symBinAddr: 0x7BB7C, symSize: 0x6C }
  - { offset: 0x1D2AA4, size: 0x8, addend: 0x0, symName: _ggml_is_contiguously_allocated, symObjAddr: 0x1170, symBinAddr: 0x7BBE8, symSize: 0xC4 }
  - { offset: 0x1D2AFC, size: 0x8, addend: 0x0, symName: _ggml_is_contiguously_allocated, symObjAddr: 0x1170, symBinAddr: 0x7BBE8, symSize: 0xC4 }
  - { offset: 0x1D2BAF, size: 0x8, addend: 0x0, symName: _ggml_is_permuted, symObjAddr: 0x1234, symBinAddr: 0x7BCAC, symSize: 0x38 }
  - { offset: 0x1D2BDC, size: 0x8, addend: 0x0, symName: _ggml_is_contiguous_channels, symObjAddr: 0x126C, symBinAddr: 0x7BCE4, symSize: 0x48 }
  - { offset: 0x1D2C11, size: 0x8, addend: 0x0, symName: _ggml_is_contiguous_rows, symObjAddr: 0x12B4, symBinAddr: 0x7BD2C, symSize: 0x48 }
  - { offset: 0x1D2C5C, size: 0x8, addend: 0x0, symName: _ggml_is_empty, symObjAddr: 0x12FC, symBinAddr: 0x7BD74, symSize: 0x30 }
  - { offset: 0x1D2C7A, size: 0x8, addend: 0x0, symName: _ggml_is_empty, symObjAddr: 0x12FC, symBinAddr: 0x7BD74, symSize: 0x30 }
  - { offset: 0x1D2C98, size: 0x8, addend: 0x0, symName: _ggml_are_same_shape, symObjAddr: 0x132C, symBinAddr: 0x7BDA4, symSize: 0x4C }
  - { offset: 0x1D2CBF, size: 0x8, addend: 0x0, symName: _ggml_are_same_stride, symObjAddr: 0x1378, symBinAddr: 0x7BDF0, symSize: 0x4C }
  - { offset: 0x1D2D15, size: 0x8, addend: 0x0, symName: _ggml_is_view, symObjAddr: 0x13C4, symBinAddr: 0x7BE3C, symSize: 0x10 }
  - { offset: 0x1D2D84, size: 0x8, addend: 0x0, symName: _ggml_can_repeat, symObjAddr: 0x13D4, symBinAddr: 0x7BE4C, symSize: 0xA0 }
  - { offset: 0x1D2DAE, size: 0x8, addend: 0x0, symName: _ggml_can_repeat, symObjAddr: 0x13D4, symBinAddr: 0x7BE4C, symSize: 0xA0 }
  - { offset: 0x1D2DC8, size: 0x8, addend: 0x0, symName: _ggml_can_repeat, symObjAddr: 0x13D4, symBinAddr: 0x7BE4C, symSize: 0xA0 }
  - { offset: 0x1D2EC8, size: 0x8, addend: 0x0, symName: _ggml_init.cold.3, symObjAddr: 0x1220C, symBinAddr: 0x1466AC, symSize: 0x24 }
  - { offset: 0x1D2EF7, size: 0x8, addend: 0x0, symName: _ggml_init.cold.2, symObjAddr: 0x121E4, symBinAddr: 0x146684, symSize: 0x28 }
  - { offset: 0x1D2F0F, size: 0x8, addend: 0x0, symName: _ggml_init.cold.1, symObjAddr: 0x121BC, symBinAddr: 0x14665C, symSize: 0x28 }
  - { offset: 0x1D2F27, size: 0x8, addend: 0x0, symName: _ggml_reset, symObjAddr: 0x15C8, symBinAddr: 0x7C040, symSize: 0x14 }
  - { offset: 0x1D2F73, size: 0x8, addend: 0x0, symName: _ggml_free, symObjAddr: 0x15DC, symBinAddr: 0x7C054, symSize: 0x40 }
  - { offset: 0x1D2FD9, size: 0x8, addend: 0x0, symName: _ggml_used_mem, symObjAddr: 0x161C, symBinAddr: 0x7C094, symSize: 0x1C }
  - { offset: 0x1D3006, size: 0x8, addend: 0x0, symName: _ggml_get_no_alloc, symObjAddr: 0x1638, symBinAddr: 0x7C0B0, symSize: 0x8 }
  - { offset: 0x1D3033, size: 0x8, addend: 0x0, symName: _ggml_set_no_alloc, symObjAddr: 0x1640, symBinAddr: 0x7C0B8, symSize: 0x8 }
  - { offset: 0x1D3067, size: 0x8, addend: 0x0, symName: _ggml_get_mem_buffer, symObjAddr: 0x1648, symBinAddr: 0x7C0C0, symSize: 0x8 }
  - { offset: 0x1D3094, size: 0x8, addend: 0x0, symName: _ggml_get_mem_size, symObjAddr: 0x1650, symBinAddr: 0x7C0C8, symSize: 0x8 }
  - { offset: 0x1D31B9, size: 0x8, addend: 0x0, symName: _ggml_get_max_tensor_size, symObjAddr: 0x1658, symBinAddr: 0x7C0D0, symSize: 0xF4 }
  - { offset: 0x1D3211, size: 0x8, addend: 0x0, symName: _ggml_get_max_tensor_size, symObjAddr: 0x1658, symBinAddr: 0x7C0D0, symSize: 0xF4 }
  - { offset: 0x1D3310, size: 0x8, addend: 0x0, symName: _ggml_get_first_tensor, symObjAddr: 0x174C, symBinAddr: 0x7C1C4, symSize: 0x30 }
  - { offset: 0x1D3343, size: 0x8, addend: 0x0, symName: _ggml_get_next_tensor, symObjAddr: 0x177C, symBinAddr: 0x7C1F4, symSize: 0x30 }
  - { offset: 0x1D337E, size: 0x8, addend: 0x0, symName: _ggml_new_tensor, symObjAddr: 0x17AC, symBinAddr: 0x7C224, symSize: 0xC }
  - { offset: 0x1D33EE, size: 0x8, addend: 0x0, symName: _ggml_new_tensor_impl, symObjAddr: 0x17B8, symBinAddr: 0x7C230, symSize: 0x308 }
  - { offset: 0x1D369E, size: 0x8, addend: 0x0, symName: _ggml_new_tensor_1d, symObjAddr: 0x1AC0, symBinAddr: 0x7C538, symSize: 0x30 }
  - { offset: 0x1D36D2, size: 0x8, addend: 0x0, symName: _ggml_new_object, symObjAddr: 0x1C40, symBinAddr: 0x7C6B8, symSize: 0x150 }
  - { offset: 0x1D37E4, size: 0x8, addend: 0x0, symName: _ggml_dup_tensor, symObjAddr: 0x1D90, symBinAddr: 0x7C808, symSize: 0x18 }
  - { offset: 0x1D37EF, size: 0x8, addend: 0x0, symName: _ggml_new_tensor_impl.cold.5, symObjAddr: 0x122D0, symBinAddr: 0x146770, symSize: 0x28 }
  - { offset: 0x1D3807, size: 0x8, addend: 0x0, symName: _ggml_new_tensor_impl.cold.3, symObjAddr: 0x12280, symBinAddr: 0x146720, symSize: 0x28 }
  - { offset: 0x1D381F, size: 0x8, addend: 0x0, symName: _ggml_new_tensor_impl.cold.1, symObjAddr: 0x12230, symBinAddr: 0x1466D0, symSize: 0x28 }
  - { offset: 0x1D3837, size: 0x8, addend: 0x0, symName: _ggml_new_tensor_impl.cold.2, symObjAddr: 0x12258, symBinAddr: 0x1466F8, symSize: 0x28 }
  - { offset: 0x1D384F, size: 0x8, addend: 0x0, symName: _ggml_new_tensor_impl.cold.4, symObjAddr: 0x122A8, symBinAddr: 0x146748, symSize: 0x28 }
  - { offset: 0x1D38BC, size: 0x8, addend: 0x0, symName: _ggml_new_tensor_1d, symObjAddr: 0x1AC0, symBinAddr: 0x7C538, symSize: 0x30 }
  - { offset: 0x1D395F, size: 0x8, addend: 0x0, symName: _ggml_new_tensor_2d, symObjAddr: 0x1AF0, symBinAddr: 0x7C568, symSize: 0x5C }
  - { offset: 0x1D3A19, size: 0x8, addend: 0x0, symName: _ggml_new_tensor_3d, symObjAddr: 0x1B4C, symBinAddr: 0x7C5C4, symSize: 0x60 }
  - { offset: 0x1D3ADB, size: 0x8, addend: 0x0, symName: _ggml_new_tensor_4d, symObjAddr: 0x1BAC, symBinAddr: 0x7C624, symSize: 0x60 }
  - { offset: 0x1D3BA9, size: 0x8, addend: 0x0, symName: _ggml_new_buffer, symObjAddr: 0x1C0C, symBinAddr: 0x7C684, symSize: 0x34 }
  - { offset: 0x1D3C1D, size: 0x8, addend: 0x0, symName: _ggml_new_object.cold.1, symObjAddr: 0x122F8, symBinAddr: 0x146798, symSize: 0x28 }
  - { offset: 0x1D3C35, size: 0x8, addend: 0x0, symName: _ggml_new_object.cold.2, symObjAddr: 0x12320, symBinAddr: 0x1467C0, symSize: 0x28 }
  - { offset: 0x1D3C4D, size: 0x8, addend: 0x0, symName: _ggml_dup_tensor, symObjAddr: 0x1D90, symBinAddr: 0x7C808, symSize: 0x18 }
  - { offset: 0x1D3CD3, size: 0x8, addend: 0x0, symName: _ggml_unravel_index, symObjAddr: 0x1DA8, symBinAddr: 0x7C820, symSize: 0x4C }
  - { offset: 0x1D3DBC, size: 0x8, addend: 0x0, symName: _ggml_get_data, symObjAddr: 0x1DF4, symBinAddr: 0x7C86C, symSize: 0x8 }
  - { offset: 0x1D3DE9, size: 0x8, addend: 0x0, symName: _ggml_get_data_f32, symObjAddr: 0x1DFC, symBinAddr: 0x7C874, symSize: 0x8 }
  - { offset: 0x1D3E16, size: 0x8, addend: 0x0, symName: _ggml_get_name, symObjAddr: 0x1E04, symBinAddr: 0x7C87C, symSize: 0x8 }
  - { offset: 0x1D3E35, size: 0x8, addend: 0x0, symName: _ggml_set_name, symObjAddr: 0x1E0C, symBinAddr: 0x7C884, symSize: 0x2C }
  - { offset: 0x1D3E80, size: 0x8, addend: 0x0, symName: _ggml_format_name, symObjAddr: 0x1E38, symBinAddr: 0x7C8B0, symSize: 0x44 }
  - { offset: 0x1D3ED0, size: 0x8, addend: 0x0, symName: _ggml_view_tensor, symObjAddr: 0x1E7C, symBinAddr: 0x7C8F4, symSize: 0x70 }
  - { offset: 0x1D3F5F, size: 0x8, addend: 0x0, symName: _ggml_get_tensor, symObjAddr: 0x1EEC, symBinAddr: 0x7C964, symSize: 0x78 }
  - { offset: 0x1D4082, size: 0x8, addend: 0x0, symName: _ggml_dup, symObjAddr: 0x1F64, symBinAddr: 0x7C9DC, symSize: 0x40 }
  - { offset: 0x1D41CD, size: 0x8, addend: 0x0, symName: _ggml_dup_inplace, symObjAddr: 0x1FA4, symBinAddr: 0x7CA1C, symSize: 0x7C }
  - { offset: 0x1D42D6, size: 0x8, addend: 0x0, symName: _ggml_add, symObjAddr: 0x2020, symBinAddr: 0x7CA98, symSize: 0x8 }
  - { offset: 0x1D434C, size: 0x8, addend: 0x0, symName: _ggml_add_impl, symObjAddr: 0x2028, symBinAddr: 0x7CAA0, symSize: 0x124 }
  - { offset: 0x1D4537, size: 0x8, addend: 0x0, symName: _ggml_add_inplace, symObjAddr: 0x214C, symBinAddr: 0x7CBC4, symSize: 0x8 }
  - { offset: 0x1D456B, size: 0x8, addend: 0x0, symName: _ggml_add_impl.cold.1, symObjAddr: 0x12348, symBinAddr: 0x1467E8, symSize: 0x28 }
  - { offset: 0x1D4583, size: 0x8, addend: 0x0, symName: _ggml_add_inplace, symObjAddr: 0x214C, symBinAddr: 0x7CBC4, symSize: 0x8 }
  - { offset: 0x1D468E, size: 0x8, addend: 0x0, symName: _ggml_add_cast, symObjAddr: 0x2154, symBinAddr: 0x7CBCC, symSize: 0xF4 }
  - { offset: 0x1D4876, size: 0x8, addend: 0x0, symName: _ggml_add_id, symObjAddr: 0x2248, symBinAddr: 0x7CCC0, symSize: 0xA0 }
  - { offset: 0x1D4881, size: 0x8, addend: 0x0, symName: _ggml_add_cast.cold.1, symObjAddr: 0x12370, symBinAddr: 0x146810, symSize: 0x28 }
  - { offset: 0x1D48B0, size: 0x8, addend: 0x0, symName: _ggml_add_cast.cold.2, symObjAddr: 0x12398, symBinAddr: 0x146838, symSize: 0x28 }
  - { offset: 0x1D48DF, size: 0x8, addend: 0x0, symName: _ggml_add_id, symObjAddr: 0x2248, symBinAddr: 0x7CCC0, symSize: 0xA0 }
  - { offset: 0x1D4A03, size: 0x8, addend: 0x0, symName: _ggml_add1, symObjAddr: 0x22E8, symBinAddr: 0x7CD60, symSize: 0x8 }
  - { offset: 0x1D4A0E, size: 0x8, addend: 0x0, symName: _ggml_add_id.cold.1, symObjAddr: 0x123C0, symBinAddr: 0x146860, symSize: 0x28 }
  - { offset: 0x1D4A26, size: 0x8, addend: 0x0, symName: _ggml_add_id.cold.2, symObjAddr: 0x123E8, symBinAddr: 0x146888, symSize: 0x28 }
  - { offset: 0x1D4A3E, size: 0x8, addend: 0x0, symName: _ggml_add_id.cold.3, symObjAddr: 0x12410, symBinAddr: 0x1468B0, symSize: 0x28 }
  - { offset: 0x1D4A56, size: 0x8, addend: 0x0, symName: _ggml_add_id.cold.4, symObjAddr: 0x12438, symBinAddr: 0x1468D8, symSize: 0x28 }
  - { offset: 0x1D4A6E, size: 0x8, addend: 0x0, symName: _ggml_add1, symObjAddr: 0x22E8, symBinAddr: 0x7CD60, symSize: 0x8 }
  - { offset: 0x1D4AE4, size: 0x8, addend: 0x0, symName: _ggml_add1_impl, symObjAddr: 0x22F0, symBinAddr: 0x7CD68, symSize: 0x11C }
  - { offset: 0x1D4CC9, size: 0x8, addend: 0x0, symName: _ggml_add1_inplace, symObjAddr: 0x240C, symBinAddr: 0x7CE84, symSize: 0x8 }
  - { offset: 0x1D4D0C, size: 0x8, addend: 0x0, symName: _ggml_add1_impl.cold.1, symObjAddr: 0x12460, symBinAddr: 0x146900, symSize: 0x28 }
  - { offset: 0x1D4D24, size: 0x8, addend: 0x0, symName: _ggml_add1_impl.cold.2, symObjAddr: 0x12488, symBinAddr: 0x146928, symSize: 0x28 }
  - { offset: 0x1D4D3C, size: 0x8, addend: 0x0, symName: _ggml_add1_inplace, symObjAddr: 0x240C, symBinAddr: 0x7CE84, symSize: 0x8 }
  - { offset: 0x1D4DB2, size: 0x8, addend: 0x0, symName: _ggml_acc, symObjAddr: 0x2414, symBinAddr: 0x7CE8C, symSize: 0x8 }
  - { offset: 0x1D4E84, size: 0x8, addend: 0x0, symName: _ggml_acc_impl, symObjAddr: 0x241C, symBinAddr: 0x7CE94, symSize: 0x19C }
  - { offset: 0x1D5187, size: 0x8, addend: 0x0, symName: _ggml_acc_inplace, symObjAddr: 0x25B8, symBinAddr: 0x7D030, symSize: 0x8 }
  - { offset: 0x1D51DC, size: 0x8, addend: 0x0, symName: _ggml_acc_impl.cold.1, symObjAddr: 0x124B0, symBinAddr: 0x146950, symSize: 0x20 }
  - { offset: 0x1D51F4, size: 0x8, addend: 0x0, symName: _ggml_acc_impl.cold.5, symObjAddr: 0x12528, symBinAddr: 0x1469C8, symSize: 0x28 }
  - { offset: 0x1D520C, size: 0x8, addend: 0x0, symName: _ggml_acc_impl.cold.2, symObjAddr: 0x124D0, symBinAddr: 0x146970, symSize: 0x20 }
  - { offset: 0x1D5224, size: 0x8, addend: 0x0, symName: _ggml_acc_impl.cold.3, symObjAddr: 0x124F0, symBinAddr: 0x146990, symSize: 0x28 }
  - { offset: 0x1D523C, size: 0x8, addend: 0x0, symName: _ggml_acc_impl.cold.4, symObjAddr: 0x12518, symBinAddr: 0x1469B8, symSize: 0x10 }
  - { offset: 0x1D5254, size: 0x8, addend: 0x0, symName: _ggml_acc_inplace, symObjAddr: 0x25B8, symBinAddr: 0x7D030, symSize: 0x8 }
  - { offset: 0x1D5326, size: 0x8, addend: 0x0, symName: _ggml_sub, symObjAddr: 0x25C0, symBinAddr: 0x7D038, symSize: 0x8 }
  - { offset: 0x1D539C, size: 0x8, addend: 0x0, symName: _ggml_sub_impl, symObjAddr: 0x25C8, symBinAddr: 0x7D040, symSize: 0x124 }
  - { offset: 0x1D5587, size: 0x8, addend: 0x0, symName: _ggml_sub_inplace, symObjAddr: 0x26EC, symBinAddr: 0x7D164, symSize: 0x8 }
  - { offset: 0x1D5592, size: 0x8, addend: 0x0, symName: _ggml_sub_impl.cold.1, symObjAddr: 0x12550, symBinAddr: 0x1469F0, symSize: 0x28 }
  - { offset: 0x1D55AA, size: 0x8, addend: 0x0, symName: _ggml_sub_inplace, symObjAddr: 0x26EC, symBinAddr: 0x7D164, symSize: 0x8 }
  - { offset: 0x1D5620, size: 0x8, addend: 0x0, symName: _ggml_mul, symObjAddr: 0x26F4, symBinAddr: 0x7D16C, symSize: 0x8 }
  - { offset: 0x1D567A, size: 0x8, addend: 0x0, symName: _ggml_mul_impl, symObjAddr: 0x26FC, symBinAddr: 0x7D174, symSize: 0x124 }
  - { offset: 0x1D5865, size: 0x8, addend: 0x0, symName: _ggml_mul_inplace, symObjAddr: 0x2820, symBinAddr: 0x7D298, symSize: 0x8 }
  - { offset: 0x1D5870, size: 0x8, addend: 0x0, symName: _ggml_mul_impl.cold.1, symObjAddr: 0x12578, symBinAddr: 0x146A18, symSize: 0x28 }
  - { offset: 0x1D5888, size: 0x8, addend: 0x0, symName: _ggml_mul_inplace, symObjAddr: 0x2820, symBinAddr: 0x7D298, symSize: 0x8 }
  - { offset: 0x1D58FE, size: 0x8, addend: 0x0, symName: _ggml_div, symObjAddr: 0x2828, symBinAddr: 0x7D2A0, symSize: 0x8 }
  - { offset: 0x1D5958, size: 0x8, addend: 0x0, symName: _ggml_div_impl, symObjAddr: 0x2830, symBinAddr: 0x7D2A8, symSize: 0x124 }
  - { offset: 0x1D5B43, size: 0x8, addend: 0x0, symName: _ggml_div_inplace, symObjAddr: 0x2954, symBinAddr: 0x7D3CC, symSize: 0x8 }
  - { offset: 0x1D5B4E, size: 0x8, addend: 0x0, symName: _ggml_div_impl.cold.1, symObjAddr: 0x125A0, symBinAddr: 0x146A40, symSize: 0x28 }
  - { offset: 0x1D5B66, size: 0x8, addend: 0x0, symName: _ggml_div_inplace, symObjAddr: 0x2954, symBinAddr: 0x7D3CC, symSize: 0x8 }
  - { offset: 0x1D5C1F, size: 0x8, addend: 0x0, symName: _ggml_sqr, symObjAddr: 0x295C, symBinAddr: 0x7D3D4, symSize: 0x40 }
  - { offset: 0x1D5D24, size: 0x8, addend: 0x0, symName: _ggml_sqr_inplace, symObjAddr: 0x299C, symBinAddr: 0x7D414, symSize: 0x7C }
  - { offset: 0x1D5E70, size: 0x8, addend: 0x0, symName: _ggml_sqrt, symObjAddr: 0x2A18, symBinAddr: 0x7D490, symSize: 0x40 }
  - { offset: 0x1D5F75, size: 0x8, addend: 0x0, symName: _ggml_sqrt_inplace, symObjAddr: 0x2A58, symBinAddr: 0x7D4D0, symSize: 0x7C }
  - { offset: 0x1D60C1, size: 0x8, addend: 0x0, symName: _ggml_log, symObjAddr: 0x2AD4, symBinAddr: 0x7D54C, symSize: 0x40 }
  - { offset: 0x1D61C6, size: 0x8, addend: 0x0, symName: _ggml_log_inplace, symObjAddr: 0x2B14, symBinAddr: 0x7D58C, symSize: 0x7C }
  - { offset: 0x1D6371, size: 0x8, addend: 0x0, symName: _ggml_expm1, symObjAddr: 0x2B90, symBinAddr: 0x7D608, symSize: 0x80 }
  - { offset: 0x1D64E0, size: 0x8, addend: 0x0, symName: _ggml_unary, symObjAddr: 0x2C10, symBinAddr: 0x7D688, symSize: 0x80 }
  - { offset: 0x1D64EB, size: 0x8, addend: 0x0, symName: _ggml_expm1.cold.1, symObjAddr: 0x125C8, symBinAddr: 0x146A68, symSize: 0x10 }
  - { offset: 0x1D6531, size: 0x8, addend: 0x0, symName: _ggml_unary, symObjAddr: 0x2C10, symBinAddr: 0x7D688, symSize: 0x80 }
  - { offset: 0x1D669C, size: 0x8, addend: 0x0, symName: _ggml_expm1_inplace, symObjAddr: 0x2C90, symBinAddr: 0x7D708, symSize: 0xBC }
  - { offset: 0x1D66A7, size: 0x8, addend: 0x0, symName: _ggml_unary.cold.1, symObjAddr: 0x125D8, symBinAddr: 0x146A78, symSize: 0x10 }
  - { offset: 0x1D66F5, size: 0x8, addend: 0x0, symName: _ggml_expm1_inplace, symObjAddr: 0x2C90, symBinAddr: 0x7D708, symSize: 0xBC }
  - { offset: 0x1D6868, size: 0x8, addend: 0x0, symName: _ggml_unary_inplace, symObjAddr: 0x2D4C, symBinAddr: 0x7D7C4, symSize: 0xBC }
  - { offset: 0x1D6873, size: 0x8, addend: 0x0, symName: _ggml_expm1_inplace.cold.1, symObjAddr: 0x125E8, symBinAddr: 0x146A88, symSize: 0x10 }
  - { offset: 0x1D688B, size: 0x8, addend: 0x0, symName: _ggml_unary_inplace, symObjAddr: 0x2D4C, symBinAddr: 0x7D7C4, symSize: 0xBC }
  - { offset: 0x1D69FA, size: 0x8, addend: 0x0, symName: _ggml_softplus, symObjAddr: 0x2E08, symBinAddr: 0x7D880, symSize: 0x80 }
  - { offset: 0x1D6A05, size: 0x8, addend: 0x0, symName: _ggml_unary_inplace.cold.1, symObjAddr: 0x125F8, symBinAddr: 0x146A98, symSize: 0x10 }
  - { offset: 0x1D6A1D, size: 0x8, addend: 0x0, symName: _ggml_softplus, symObjAddr: 0x2E08, symBinAddr: 0x7D880, symSize: 0x80 }
  - { offset: 0x1D6B8C, size: 0x8, addend: 0x0, symName: _ggml_softplus_inplace, symObjAddr: 0x2E88, symBinAddr: 0x7D900, symSize: 0xBC }
  - { offset: 0x1D6B97, size: 0x8, addend: 0x0, symName: _ggml_softplus.cold.1, symObjAddr: 0x12608, symBinAddr: 0x146AA8, symSize: 0x10 }
  - { offset: 0x1D6BAF, size: 0x8, addend: 0x0, symName: _ggml_softplus_inplace, symObjAddr: 0x2E88, symBinAddr: 0x7D900, symSize: 0xBC }
  - { offset: 0x1D6D22, size: 0x8, addend: 0x0, symName: _ggml_sin, symObjAddr: 0x2F44, symBinAddr: 0x7D9BC, symSize: 0x40 }
  - { offset: 0x1D6D2D, size: 0x8, addend: 0x0, symName: _ggml_softplus_inplace.cold.1, symObjAddr: 0x12618, symBinAddr: 0x146AB8, symSize: 0x10 }
  - { offset: 0x1D6D88, size: 0x8, addend: 0x0, symName: _ggml_sin, symObjAddr: 0x2F44, symBinAddr: 0x7D9BC, symSize: 0x40 }
  - { offset: 0x1D6E78, size: 0x8, addend: 0x0, symName: _ggml_sin_inplace, symObjAddr: 0x2F84, symBinAddr: 0x7D9FC, symSize: 0x7C }
  - { offset: 0x1D6FC4, size: 0x8, addend: 0x0, symName: _ggml_cos, symObjAddr: 0x3000, symBinAddr: 0x7DA78, symSize: 0x40 }
  - { offset: 0x1D70B4, size: 0x8, addend: 0x0, symName: _ggml_cos_inplace, symObjAddr: 0x3040, symBinAddr: 0x7DAB8, symSize: 0x7C }
  - { offset: 0x1D71F3, size: 0x8, addend: 0x0, symName: _ggml_sum, symObjAddr: 0x30BC, symBinAddr: 0x7DB34, symSize: 0x50 }
  - { offset: 0x1D72E2, size: 0x8, addend: 0x0, symName: _ggml_sum_rows, symObjAddr: 0x310C, symBinAddr: 0x7DB84, symSize: 0x8C }
  - { offset: 0x1D73CD, size: 0x8, addend: 0x0, symName: _ggml_cumsum, symObjAddr: 0x3198, symBinAddr: 0x7DC10, symSize: 0x4C }
  - { offset: 0x1D7497, size: 0x8, addend: 0x0, symName: _ggml_mean, symObjAddr: 0x31E4, symBinAddr: 0x7DC5C, symSize: 0x8C }
  - { offset: 0x1D74A2, size: 0x8, addend: 0x0, symName: _ggml_cumsum.cold.1, symObjAddr: 0x12628, symBinAddr: 0x146AC8, symSize: 0x20 }
  - { offset: 0x1D74BA, size: 0x8, addend: 0x0, symName: _ggml_mean, symObjAddr: 0x31E4, symBinAddr: 0x7DC5C, symSize: 0x8C }
  - { offset: 0x1D7581, size: 0x8, addend: 0x0, symName: _ggml_argmax, symObjAddr: 0x3270, symBinAddr: 0x7DCE8, symSize: 0x80 }
  - { offset: 0x1D769A, size: 0x8, addend: 0x0, symName: _ggml_count_equal, symObjAddr: 0x32F0, symBinAddr: 0x7DD68, symSize: 0x98 }
  - { offset: 0x1D76A5, size: 0x8, addend: 0x0, symName: _ggml_argmax.cold.1, symObjAddr: 0x12648, symBinAddr: 0x146AE8, symSize: 0x28 }
  - { offset: 0x1D76BD, size: 0x8, addend: 0x0, symName: _ggml_argmax.cold.2, symObjAddr: 0x12670, symBinAddr: 0x146B10, symSize: 0x28 }
  - { offset: 0x1D76FE, size: 0x8, addend: 0x0, symName: _ggml_count_equal, symObjAddr: 0x32F0, symBinAddr: 0x7DD68, symSize: 0x98 }
  - { offset: 0x1D7824, size: 0x8, addend: 0x0, symName: _ggml_repeat, symObjAddr: 0x3388, symBinAddr: 0x7DE00, symSize: 0xC8 }
  - { offset: 0x1D782F, size: 0x8, addend: 0x0, symName: _ggml_count_equal.cold.1, symObjAddr: 0x12698, symBinAddr: 0x146B38, symSize: 0x28 }
  - { offset: 0x1D7847, size: 0x8, addend: 0x0, symName: _ggml_repeat, symObjAddr: 0x3388, symBinAddr: 0x7DE00, symSize: 0xC8 }
  - { offset: 0x1D7994, size: 0x8, addend: 0x0, symName: _ggml_repeat_4d, symObjAddr: 0x3450, symBinAddr: 0x7DEC8, symSize: 0xD0 }
  - { offset: 0x1D799F, size: 0x8, addend: 0x0, symName: _ggml_repeat.cold.1, symObjAddr: 0x126C0, symBinAddr: 0x146B60, symSize: 0x28 }
  - { offset: 0x1D7A2F, size: 0x8, addend: 0x0, symName: _ggml_repeat_4d, symObjAddr: 0x3450, symBinAddr: 0x7DEC8, symSize: 0xD0 }
  - { offset: 0x1D7BCE, size: 0x8, addend: 0x0, symName: _ggml_repeat_back, symObjAddr: 0x3520, symBinAddr: 0x7DF98, symSize: 0xC8 }
  - { offset: 0x1D7BD9, size: 0x8, addend: 0x0, symName: _ggml_repeat_4d.cold.1, symObjAddr: 0x126E8, symBinAddr: 0x146B88, symSize: 0x28 }
  - { offset: 0x1D7BF1, size: 0x8, addend: 0x0, symName: _ggml_repeat_back, symObjAddr: 0x3520, symBinAddr: 0x7DF98, symSize: 0xC8 }
  - { offset: 0x1D7D48, size: 0x8, addend: 0x0, symName: _ggml_concat, symObjAddr: 0x35E8, symBinAddr: 0x7E060, symSize: 0x154 }
  - { offset: 0x1D7D53, size: 0x8, addend: 0x0, symName: _ggml_repeat_back.cold.1, symObjAddr: 0x12710, symBinAddr: 0x146BB0, symSize: 0x28 }
  - { offset: 0x1D7D6B, size: 0x8, addend: 0x0, symName: _ggml_concat, symObjAddr: 0x35E8, symBinAddr: 0x7E060, symSize: 0x154 }
  - { offset: 0x1D7EC0, size: 0x8, addend: 0x0, symName: _ggml_concat.cold.3, symObjAddr: 0x12788, symBinAddr: 0x146C28, symSize: 0x28 }
  - { offset: 0x1D7ED8, size: 0x8, addend: 0x0, symName: _ggml_concat.cold.1, symObjAddr: 0x12738, symBinAddr: 0x146BD8, symSize: 0x28 }
  - { offset: 0x1D7EF0, size: 0x8, addend: 0x0, symName: _ggml_concat.cold.2, symObjAddr: 0x12760, symBinAddr: 0x146C00, symSize: 0x28 }
  - { offset: 0x1D7F08, size: 0x8, addend: 0x0, symName: _ggml_abs, symObjAddr: 0x373C, symBinAddr: 0x7E1B4, symSize: 0x80 }
  - { offset: 0x1D8077, size: 0x8, addend: 0x0, symName: _ggml_abs_inplace, symObjAddr: 0x37BC, symBinAddr: 0x7E234, symSize: 0xBC }
  - { offset: 0x1D8082, size: 0x8, addend: 0x0, symName: _ggml_abs.cold.1, symObjAddr: 0x127B0, symBinAddr: 0x146C50, symSize: 0x10 }
  - { offset: 0x1D809A, size: 0x8, addend: 0x0, symName: _ggml_abs_inplace, symObjAddr: 0x37BC, symBinAddr: 0x7E234, symSize: 0xBC }
  - { offset: 0x1D820D, size: 0x8, addend: 0x0, symName: _ggml_sgn, symObjAddr: 0x3878, symBinAddr: 0x7E2F0, symSize: 0x80 }
  - { offset: 0x1D8218, size: 0x8, addend: 0x0, symName: _ggml_abs_inplace.cold.1, symObjAddr: 0x127C0, symBinAddr: 0x146C60, symSize: 0x10 }
  - { offset: 0x1D8230, size: 0x8, addend: 0x0, symName: _ggml_sgn, symObjAddr: 0x3878, symBinAddr: 0x7E2F0, symSize: 0x80 }
  - { offset: 0x1D839F, size: 0x8, addend: 0x0, symName: _ggml_sgn_inplace, symObjAddr: 0x38F8, symBinAddr: 0x7E370, symSize: 0xBC }
  - { offset: 0x1D83AA, size: 0x8, addend: 0x0, symName: _ggml_sgn.cold.1, symObjAddr: 0x127D0, symBinAddr: 0x146C70, symSize: 0x10 }
  - { offset: 0x1D83C2, size: 0x8, addend: 0x0, symName: _ggml_sgn_inplace, symObjAddr: 0x38F8, symBinAddr: 0x7E370, symSize: 0xBC }
  - { offset: 0x1D8535, size: 0x8, addend: 0x0, symName: _ggml_neg, symObjAddr: 0x39B4, symBinAddr: 0x7E42C, symSize: 0x80 }
  - { offset: 0x1D8540, size: 0x8, addend: 0x0, symName: _ggml_sgn_inplace.cold.1, symObjAddr: 0x127E0, symBinAddr: 0x146C80, symSize: 0x10 }
  - { offset: 0x1D8558, size: 0x8, addend: 0x0, symName: _ggml_neg, symObjAddr: 0x39B4, symBinAddr: 0x7E42C, symSize: 0x80 }
  - { offset: 0x1D86B2, size: 0x8, addend: 0x0, symName: _ggml_neg_inplace, symObjAddr: 0x3A34, symBinAddr: 0x7E4AC, symSize: 0xBC }
  - { offset: 0x1D86BD, size: 0x8, addend: 0x0, symName: _ggml_neg.cold.1, symObjAddr: 0x127F0, symBinAddr: 0x146C90, symSize: 0x10 }
  - { offset: 0x1D86D5, size: 0x8, addend: 0x0, symName: _ggml_neg_inplace, symObjAddr: 0x3A34, symBinAddr: 0x7E4AC, symSize: 0xBC }
  - { offset: 0x1D8848, size: 0x8, addend: 0x0, symName: _ggml_step, symObjAddr: 0x3AF0, symBinAddr: 0x7E568, symSize: 0x80 }
  - { offset: 0x1D8853, size: 0x8, addend: 0x0, symName: _ggml_neg_inplace.cold.1, symObjAddr: 0x12800, symBinAddr: 0x146CA0, symSize: 0x10 }
  - { offset: 0x1D886B, size: 0x8, addend: 0x0, symName: _ggml_step, symObjAddr: 0x3AF0, symBinAddr: 0x7E568, symSize: 0x80 }
  - { offset: 0x1D89DA, size: 0x8, addend: 0x0, symName: _ggml_step_inplace, symObjAddr: 0x3B70, symBinAddr: 0x7E5E8, symSize: 0xBC }
  - { offset: 0x1D89E5, size: 0x8, addend: 0x0, symName: _ggml_step.cold.1, symObjAddr: 0x12810, symBinAddr: 0x146CB0, symSize: 0x10 }
  - { offset: 0x1D89FD, size: 0x8, addend: 0x0, symName: _ggml_step_inplace, symObjAddr: 0x3B70, symBinAddr: 0x7E5E8, symSize: 0xBC }
  - { offset: 0x1D8B70, size: 0x8, addend: 0x0, symName: _ggml_tanh, symObjAddr: 0x3C2C, symBinAddr: 0x7E6A4, symSize: 0x80 }
  - { offset: 0x1D8B7B, size: 0x8, addend: 0x0, symName: _ggml_step_inplace.cold.1, symObjAddr: 0x12820, symBinAddr: 0x146CC0, symSize: 0x10 }
  - { offset: 0x1D8B93, size: 0x8, addend: 0x0, symName: _ggml_tanh, symObjAddr: 0x3C2C, symBinAddr: 0x7E6A4, symSize: 0x80 }
  - { offset: 0x1D8D02, size: 0x8, addend: 0x0, symName: _ggml_tanh_inplace, symObjAddr: 0x3CAC, symBinAddr: 0x7E724, symSize: 0xBC }
  - { offset: 0x1D8D0D, size: 0x8, addend: 0x0, symName: _ggml_tanh.cold.1, symObjAddr: 0x12830, symBinAddr: 0x146CD0, symSize: 0x10 }
  - { offset: 0x1D8D25, size: 0x8, addend: 0x0, symName: _ggml_tanh_inplace, symObjAddr: 0x3CAC, symBinAddr: 0x7E724, symSize: 0xBC }
  - { offset: 0x1D8E98, size: 0x8, addend: 0x0, symName: _ggml_elu, symObjAddr: 0x3D68, symBinAddr: 0x7E7E0, symSize: 0x80 }
  - { offset: 0x1D8EA3, size: 0x8, addend: 0x0, symName: _ggml_tanh_inplace.cold.1, symObjAddr: 0x12840, symBinAddr: 0x146CE0, symSize: 0x10 }
  - { offset: 0x1D8EBB, size: 0x8, addend: 0x0, symName: _ggml_elu, symObjAddr: 0x3D68, symBinAddr: 0x7E7E0, symSize: 0x80 }
  - { offset: 0x1D902A, size: 0x8, addend: 0x0, symName: _ggml_elu_inplace, symObjAddr: 0x3DE8, symBinAddr: 0x7E860, symSize: 0xBC }
  - { offset: 0x1D9035, size: 0x8, addend: 0x0, symName: _ggml_elu.cold.1, symObjAddr: 0x12850, symBinAddr: 0x146CF0, symSize: 0x10 }
  - { offset: 0x1D904D, size: 0x8, addend: 0x0, symName: _ggml_elu_inplace, symObjAddr: 0x3DE8, symBinAddr: 0x7E860, symSize: 0xBC }
  - { offset: 0x1D91C0, size: 0x8, addend: 0x0, symName: _ggml_relu, symObjAddr: 0x3EA4, symBinAddr: 0x7E91C, symSize: 0x80 }
  - { offset: 0x1D91CB, size: 0x8, addend: 0x0, symName: _ggml_elu_inplace.cold.1, symObjAddr: 0x12860, symBinAddr: 0x146D00, symSize: 0x10 }
  - { offset: 0x1D91E3, size: 0x8, addend: 0x0, symName: _ggml_relu, symObjAddr: 0x3EA4, symBinAddr: 0x7E91C, symSize: 0x80 }
  - { offset: 0x1D9352, size: 0x8, addend: 0x0, symName: _ggml_relu_inplace, symObjAddr: 0x3F24, symBinAddr: 0x7E99C, symSize: 0xBC }
  - { offset: 0x1D935D, size: 0x8, addend: 0x0, symName: _ggml_relu.cold.1, symObjAddr: 0x12870, symBinAddr: 0x146D10, symSize: 0x10 }
  - { offset: 0x1D9375, size: 0x8, addend: 0x0, symName: _ggml_relu_inplace, symObjAddr: 0x3F24, symBinAddr: 0x7E99C, symSize: 0xBC }
  - { offset: 0x1D94E8, size: 0x8, addend: 0x0, symName: _ggml_leaky_relu, symObjAddr: 0x3FE0, symBinAddr: 0x7EA58, symSize: 0xAC }
  - { offset: 0x1D94F3, size: 0x8, addend: 0x0, symName: _ggml_relu_inplace.cold.1, symObjAddr: 0x12880, symBinAddr: 0x146D20, symSize: 0x10 }
  - { offset: 0x1D950B, size: 0x8, addend: 0x0, symName: _ggml_leaky_relu, symObjAddr: 0x3FE0, symBinAddr: 0x7EA58, symSize: 0xAC }
  - { offset: 0x1D96A0, size: 0x8, addend: 0x0, symName: _ggml_sigmoid, symObjAddr: 0x408C, symBinAddr: 0x7EB04, symSize: 0x80 }
  - { offset: 0x1D96AB, size: 0x8, addend: 0x0, symName: _ggml_leaky_relu.cold.1, symObjAddr: 0x12890, symBinAddr: 0x146D30, symSize: 0x10 }
  - { offset: 0x1D96C3, size: 0x8, addend: 0x0, symName: _ggml_sigmoid, symObjAddr: 0x408C, symBinAddr: 0x7EB04, symSize: 0x80 }
  - { offset: 0x1D9832, size: 0x8, addend: 0x0, symName: _ggml_sigmoid_inplace, symObjAddr: 0x410C, symBinAddr: 0x7EB84, symSize: 0xBC }
  - { offset: 0x1D983D, size: 0x8, addend: 0x0, symName: _ggml_sigmoid.cold.1, symObjAddr: 0x128A0, symBinAddr: 0x146D40, symSize: 0x10 }
  - { offset: 0x1D9855, size: 0x8, addend: 0x0, symName: _ggml_sigmoid_inplace, symObjAddr: 0x410C, symBinAddr: 0x7EB84, symSize: 0xBC }
  - { offset: 0x1D99C8, size: 0x8, addend: 0x0, symName: _ggml_gelu, symObjAddr: 0x41C8, symBinAddr: 0x7EC40, symSize: 0x80 }
  - { offset: 0x1D99D3, size: 0x8, addend: 0x0, symName: _ggml_sigmoid_inplace.cold.1, symObjAddr: 0x128B0, symBinAddr: 0x146D50, symSize: 0x10 }
  - { offset: 0x1D99EB, size: 0x8, addend: 0x0, symName: _ggml_gelu, symObjAddr: 0x41C8, symBinAddr: 0x7EC40, symSize: 0x80 }
  - { offset: 0x1D9B5A, size: 0x8, addend: 0x0, symName: _ggml_gelu_inplace, symObjAddr: 0x4248, symBinAddr: 0x7ECC0, symSize: 0xBC }
  - { offset: 0x1D9B65, size: 0x8, addend: 0x0, symName: _ggml_gelu.cold.1, symObjAddr: 0x128C0, symBinAddr: 0x146D60, symSize: 0x10 }
  - { offset: 0x1D9B7D, size: 0x8, addend: 0x0, symName: _ggml_gelu_inplace, symObjAddr: 0x4248, symBinAddr: 0x7ECC0, symSize: 0xBC }
  - { offset: 0x1D9CF0, size: 0x8, addend: 0x0, symName: _ggml_gelu_erf, symObjAddr: 0x4304, symBinAddr: 0x7ED7C, symSize: 0x80 }
  - { offset: 0x1D9CFB, size: 0x8, addend: 0x0, symName: _ggml_gelu_inplace.cold.1, symObjAddr: 0x128D0, symBinAddr: 0x146D70, symSize: 0x10 }
  - { offset: 0x1D9D13, size: 0x8, addend: 0x0, symName: _ggml_gelu_erf, symObjAddr: 0x4304, symBinAddr: 0x7ED7C, symSize: 0x80 }
  - { offset: 0x1D9E82, size: 0x8, addend: 0x0, symName: _ggml_gelu_erf_inplace, symObjAddr: 0x4384, symBinAddr: 0x7EDFC, symSize: 0xBC }
  - { offset: 0x1D9E8D, size: 0x8, addend: 0x0, symName: _ggml_gelu_erf.cold.1, symObjAddr: 0x128E0, symBinAddr: 0x146D80, symSize: 0x10 }
  - { offset: 0x1D9EA5, size: 0x8, addend: 0x0, symName: _ggml_gelu_erf_inplace, symObjAddr: 0x4384, symBinAddr: 0x7EDFC, symSize: 0xBC }
  - { offset: 0x1DA018, size: 0x8, addend: 0x0, symName: _ggml_gelu_quick, symObjAddr: 0x4440, symBinAddr: 0x7EEB8, symSize: 0x80 }
  - { offset: 0x1DA023, size: 0x8, addend: 0x0, symName: _ggml_gelu_erf_inplace.cold.1, symObjAddr: 0x128F0, symBinAddr: 0x146D90, symSize: 0x10 }
  - { offset: 0x1DA03B, size: 0x8, addend: 0x0, symName: _ggml_gelu_quick, symObjAddr: 0x4440, symBinAddr: 0x7EEB8, symSize: 0x80 }
  - { offset: 0x1DA1AA, size: 0x8, addend: 0x0, symName: _ggml_gelu_quick_inplace, symObjAddr: 0x44C0, symBinAddr: 0x7EF38, symSize: 0xBC }
  - { offset: 0x1DA1B5, size: 0x8, addend: 0x0, symName: _ggml_gelu_quick.cold.1, symObjAddr: 0x12900, symBinAddr: 0x146DA0, symSize: 0x10 }
  - { offset: 0x1DA1CD, size: 0x8, addend: 0x0, symName: _ggml_gelu_quick_inplace, symObjAddr: 0x44C0, symBinAddr: 0x7EF38, symSize: 0xBC }
  - { offset: 0x1DA340, size: 0x8, addend: 0x0, symName: _ggml_silu, symObjAddr: 0x457C, symBinAddr: 0x7EFF4, symSize: 0x80 }
  - { offset: 0x1DA34B, size: 0x8, addend: 0x0, symName: _ggml_gelu_quick_inplace.cold.1, symObjAddr: 0x12910, symBinAddr: 0x146DB0, symSize: 0x10 }
  - { offset: 0x1DA363, size: 0x8, addend: 0x0, symName: _ggml_silu, symObjAddr: 0x457C, symBinAddr: 0x7EFF4, symSize: 0x80 }
  - { offset: 0x1DA4BD, size: 0x8, addend: 0x0, symName: _ggml_silu_inplace, symObjAddr: 0x45FC, symBinAddr: 0x7F074, symSize: 0xBC }
  - { offset: 0x1DA4C8, size: 0x8, addend: 0x0, symName: _ggml_silu.cold.1, symObjAddr: 0x12920, symBinAddr: 0x146DC0, symSize: 0x10 }
  - { offset: 0x1DA4E0, size: 0x8, addend: 0x0, symName: _ggml_silu_inplace, symObjAddr: 0x45FC, symBinAddr: 0x7F074, symSize: 0xBC }
  - { offset: 0x1DA653, size: 0x8, addend: 0x0, symName: _ggml_xielu, symObjAddr: 0x46B8, symBinAddr: 0x7F130, symSize: 0xC0 }
  - { offset: 0x1DA65E, size: 0x8, addend: 0x0, symName: _ggml_silu_inplace.cold.1, symObjAddr: 0x12930, symBinAddr: 0x146DD0, symSize: 0x10 }
  - { offset: 0x1DA6BE, size: 0x8, addend: 0x0, symName: _ggml_xielu, symObjAddr: 0x46B8, symBinAddr: 0x7F130, symSize: 0xC0 }
  - { offset: 0x1DA8DA, size: 0x8, addend: 0x0, symName: _ggml_silu_back, symObjAddr: 0x4778, symBinAddr: 0x7F1F0, symSize: 0x44 }
  - { offset: 0x1DA9A2, size: 0x8, addend: 0x0, symName: _ggml_hardswish, symObjAddr: 0x47BC, symBinAddr: 0x7F234, symSize: 0x80 }
  - { offset: 0x1DAB11, size: 0x8, addend: 0x0, symName: _ggml_hardsigmoid, symObjAddr: 0x483C, symBinAddr: 0x7F2B4, symSize: 0x80 }
  - { offset: 0x1DAB1C, size: 0x8, addend: 0x0, symName: _ggml_hardswish.cold.1, symObjAddr: 0x12940, symBinAddr: 0x146DE0, symSize: 0x10 }
  - { offset: 0x1DAB34, size: 0x8, addend: 0x0, symName: _ggml_hardsigmoid, symObjAddr: 0x483C, symBinAddr: 0x7F2B4, symSize: 0x80 }
  - { offset: 0x1DACA3, size: 0x8, addend: 0x0, symName: _ggml_exp, symObjAddr: 0x48BC, symBinAddr: 0x7F334, symSize: 0x80 }
  - { offset: 0x1DACAE, size: 0x8, addend: 0x0, symName: _ggml_hardsigmoid.cold.1, symObjAddr: 0x12950, symBinAddr: 0x146DF0, symSize: 0x10 }
  - { offset: 0x1DACC6, size: 0x8, addend: 0x0, symName: _ggml_exp, symObjAddr: 0x48BC, symBinAddr: 0x7F334, symSize: 0x80 }
  - { offset: 0x1DAE35, size: 0x8, addend: 0x0, symName: _ggml_exp_inplace, symObjAddr: 0x493C, symBinAddr: 0x7F3B4, symSize: 0xBC }
  - { offset: 0x1DAE40, size: 0x8, addend: 0x0, symName: _ggml_exp.cold.1, symObjAddr: 0x12960, symBinAddr: 0x146E00, symSize: 0x10 }
  - { offset: 0x1DAE58, size: 0x8, addend: 0x0, symName: _ggml_exp_inplace, symObjAddr: 0x493C, symBinAddr: 0x7F3B4, symSize: 0xBC }
  - { offset: 0x1DAFCB, size: 0x8, addend: 0x0, symName: _ggml_floor, symObjAddr: 0x49F8, symBinAddr: 0x7F470, symSize: 0x80 }
  - { offset: 0x1DAFD6, size: 0x8, addend: 0x0, symName: _ggml_exp_inplace.cold.1, symObjAddr: 0x12970, symBinAddr: 0x146E10, symSize: 0x10 }
  - { offset: 0x1DAFEE, size: 0x8, addend: 0x0, symName: _ggml_floor, symObjAddr: 0x49F8, symBinAddr: 0x7F470, symSize: 0x80 }
  - { offset: 0x1DB15D, size: 0x8, addend: 0x0, symName: _ggml_floor_inplace, symObjAddr: 0x4A78, symBinAddr: 0x7F4F0, symSize: 0xBC }
  - { offset: 0x1DB168, size: 0x8, addend: 0x0, symName: _ggml_floor.cold.1, symObjAddr: 0x12980, symBinAddr: 0x146E20, symSize: 0x10 }
  - { offset: 0x1DB180, size: 0x8, addend: 0x0, symName: _ggml_floor_inplace, symObjAddr: 0x4A78, symBinAddr: 0x7F4F0, symSize: 0xBC }
  - { offset: 0x1DB2F3, size: 0x8, addend: 0x0, symName: _ggml_ceil, symObjAddr: 0x4B34, symBinAddr: 0x7F5AC, symSize: 0x80 }
  - { offset: 0x1DB2FE, size: 0x8, addend: 0x0, symName: _ggml_floor_inplace.cold.1, symObjAddr: 0x12990, symBinAddr: 0x146E30, symSize: 0x10 }
  - { offset: 0x1DB316, size: 0x8, addend: 0x0, symName: _ggml_ceil, symObjAddr: 0x4B34, symBinAddr: 0x7F5AC, symSize: 0x80 }
  - { offset: 0x1DB485, size: 0x8, addend: 0x0, symName: _ggml_ceil_inplace, symObjAddr: 0x4BB4, symBinAddr: 0x7F62C, symSize: 0xBC }
  - { offset: 0x1DB490, size: 0x8, addend: 0x0, symName: _ggml_ceil.cold.1, symObjAddr: 0x129A0, symBinAddr: 0x146E40, symSize: 0x10 }
  - { offset: 0x1DB4A8, size: 0x8, addend: 0x0, symName: _ggml_ceil_inplace, symObjAddr: 0x4BB4, symBinAddr: 0x7F62C, symSize: 0xBC }
  - { offset: 0x1DB61B, size: 0x8, addend: 0x0, symName: _ggml_round, symObjAddr: 0x4C70, symBinAddr: 0x7F6E8, symSize: 0x80 }
  - { offset: 0x1DB626, size: 0x8, addend: 0x0, symName: _ggml_ceil_inplace.cold.1, symObjAddr: 0x129B0, symBinAddr: 0x146E50, symSize: 0x10 }
  - { offset: 0x1DB63E, size: 0x8, addend: 0x0, symName: _ggml_round, symObjAddr: 0x4C70, symBinAddr: 0x7F6E8, symSize: 0x80 }
  - { offset: 0x1DB7AD, size: 0x8, addend: 0x0, symName: _ggml_round_inplace, symObjAddr: 0x4CF0, symBinAddr: 0x7F768, symSize: 0xBC }
  - { offset: 0x1DB7B8, size: 0x8, addend: 0x0, symName: _ggml_round.cold.1, symObjAddr: 0x129C0, symBinAddr: 0x146E60, symSize: 0x10 }
  - { offset: 0x1DB7D0, size: 0x8, addend: 0x0, symName: _ggml_round_inplace, symObjAddr: 0x4CF0, symBinAddr: 0x7F768, symSize: 0xBC }
  - { offset: 0x1DB943, size: 0x8, addend: 0x0, symName: _ggml_trunc, symObjAddr: 0x4DAC, symBinAddr: 0x7F824, symSize: 0x80 }
  - { offset: 0x1DB94E, size: 0x8, addend: 0x0, symName: _ggml_round_inplace.cold.1, symObjAddr: 0x129D0, symBinAddr: 0x146E70, symSize: 0x10 }
  - { offset: 0x1DB966, size: 0x8, addend: 0x0, symName: _ggml_trunc, symObjAddr: 0x4DAC, symBinAddr: 0x7F824, symSize: 0x80 }
  - { offset: 0x1DBAD5, size: 0x8, addend: 0x0, symName: _ggml_trunc_inplace, symObjAddr: 0x4E2C, symBinAddr: 0x7F8A4, symSize: 0xBC }
  - { offset: 0x1DBAE0, size: 0x8, addend: 0x0, symName: _ggml_trunc.cold.1, symObjAddr: 0x129E0, symBinAddr: 0x146E80, symSize: 0x10 }
  - { offset: 0x1DBAF8, size: 0x8, addend: 0x0, symName: _ggml_trunc_inplace, symObjAddr: 0x4E2C, symBinAddr: 0x7F8A4, symSize: 0xBC }
  - { offset: 0x1DBC6B, size: 0x8, addend: 0x0, symName: _ggml_glu, symObjAddr: 0x4EE8, symBinAddr: 0x7F960, symSize: 0x124 }
  - { offset: 0x1DBC76, size: 0x8, addend: 0x0, symName: _ggml_trunc_inplace.cold.1, symObjAddr: 0x129F0, symBinAddr: 0x146E90, symSize: 0x10 }
  - { offset: 0x1DBD24, size: 0x8, addend: 0x0, symName: _ggml_glu, symObjAddr: 0x4EE8, symBinAddr: 0x7F960, symSize: 0x124 }
  - { offset: 0x1DBEC4, size: 0x8, addend: 0x0, symName: _ggml_glu.cold.1, symObjAddr: 0x12A00, symBinAddr: 0x146EA0, symSize: 0x10 }
  - { offset: 0x1DBEDC, size: 0x8, addend: 0x0, symName: _ggml_glu_impl, symObjAddr: 0x500C, symBinAddr: 0x7FA84, symSize: 0x1D4 }
  - { offset: 0x1DC117, size: 0x8, addend: 0x0, symName: _ggml_glu_split, symObjAddr: 0x51E0, symBinAddr: 0x7FC58, symSize: 0x8 }
  - { offset: 0x1DC122, size: 0x8, addend: 0x0, symName: _ggml_glu_impl.cold.4, symObjAddr: 0x12A70, symBinAddr: 0x146F10, symSize: 0x28 }
  - { offset: 0x1DC13A, size: 0x8, addend: 0x0, symName: _ggml_glu_impl.cold.1, symObjAddr: 0x12A10, symBinAddr: 0x146EB0, symSize: 0x10 }
  - { offset: 0x1DC152, size: 0x8, addend: 0x0, symName: _ggml_glu_impl.cold.2, symObjAddr: 0x12A20, symBinAddr: 0x146EC0, symSize: 0x28 }
  - { offset: 0x1DC16A, size: 0x8, addend: 0x0, symName: _ggml_glu_impl.cold.3, symObjAddr: 0x12A48, symBinAddr: 0x146EE8, symSize: 0x28 }
  - { offset: 0x1DC182, size: 0x8, addend: 0x0, symName: _ggml_glu_split, symObjAddr: 0x51E0, symBinAddr: 0x7FC58, symSize: 0x8 }
  - { offset: 0x1DC20F, size: 0x8, addend: 0x0, symName: _ggml_reglu, symObjAddr: 0x51E8, symBinAddr: 0x7FC60, symSize: 0x118 }
  - { offset: 0x1DC3AF, size: 0x8, addend: 0x0, symName: _ggml_reglu.cold.1, symObjAddr: 0x12A98, symBinAddr: 0x146F38, symSize: 0x10 }
  - { offset: 0x1DC3C7, size: 0x8, addend: 0x0, symName: _ggml_reglu_swapped, symObjAddr: 0x5300, symBinAddr: 0x7FD78, symSize: 0x11C }
  - { offset: 0x1DC567, size: 0x8, addend: 0x0, symName: _ggml_reglu_swapped.cold.1, symObjAddr: 0x12AA8, symBinAddr: 0x146F48, symSize: 0x10 }
  - { offset: 0x1DC57F, size: 0x8, addend: 0x0, symName: _ggml_reglu_split, symObjAddr: 0x541C, symBinAddr: 0x7FE94, symSize: 0xC }
  - { offset: 0x1DC5FB, size: 0x8, addend: 0x0, symName: _ggml_geglu, symObjAddr: 0x5428, symBinAddr: 0x7FEA0, symSize: 0x118 }
  - { offset: 0x1DC79B, size: 0x8, addend: 0x0, symName: _ggml_geglu.cold.1, symObjAddr: 0x12AB8, symBinAddr: 0x146F58, symSize: 0x10 }
  - { offset: 0x1DC7B3, size: 0x8, addend: 0x0, symName: _ggml_geglu_swapped, symObjAddr: 0x5540, symBinAddr: 0x7FFB8, symSize: 0x11C }
  - { offset: 0x1DC953, size: 0x8, addend: 0x0, symName: _ggml_geglu_swapped.cold.1, symObjAddr: 0x12AC8, symBinAddr: 0x146F68, symSize: 0x10 }
  - { offset: 0x1DC96B, size: 0x8, addend: 0x0, symName: _ggml_geglu_split, symObjAddr: 0x565C, symBinAddr: 0x800D4, symSize: 0xC }
  - { offset: 0x1DC9E7, size: 0x8, addend: 0x0, symName: _ggml_swiglu, symObjAddr: 0x5668, symBinAddr: 0x800E0, symSize: 0x118 }
  - { offset: 0x1DCB87, size: 0x8, addend: 0x0, symName: _ggml_swiglu.cold.1, symObjAddr: 0x12AD8, symBinAddr: 0x146F78, symSize: 0x10 }
  - { offset: 0x1DCB9F, size: 0x8, addend: 0x0, symName: _ggml_swiglu_swapped, symObjAddr: 0x5780, symBinAddr: 0x801F8, symSize: 0x11C }
  - { offset: 0x1DCD3F, size: 0x8, addend: 0x0, symName: _ggml_swiglu_swapped.cold.1, symObjAddr: 0x12AE8, symBinAddr: 0x146F88, symSize: 0x10 }
  - { offset: 0x1DCD57, size: 0x8, addend: 0x0, symName: _ggml_swiglu_split, symObjAddr: 0x589C, symBinAddr: 0x80314, symSize: 0xC }
  - { offset: 0x1DCDD3, size: 0x8, addend: 0x0, symName: _ggml_geglu_erf, symObjAddr: 0x58A8, symBinAddr: 0x80320, symSize: 0x118 }
  - { offset: 0x1DCF73, size: 0x8, addend: 0x0, symName: _ggml_geglu_erf.cold.1, symObjAddr: 0x12AF8, symBinAddr: 0x146F98, symSize: 0x10 }
  - { offset: 0x1DCF8B, size: 0x8, addend: 0x0, symName: _ggml_geglu_erf_swapped, symObjAddr: 0x59C0, symBinAddr: 0x80438, symSize: 0x11C }
  - { offset: 0x1DD12B, size: 0x8, addend: 0x0, symName: _ggml_geglu_erf_swapped.cold.1, symObjAddr: 0x12B08, symBinAddr: 0x146FA8, symSize: 0x10 }
  - { offset: 0x1DD143, size: 0x8, addend: 0x0, symName: _ggml_geglu_erf_split, symObjAddr: 0x5ADC, symBinAddr: 0x80554, symSize: 0xC }
  - { offset: 0x1DD1BF, size: 0x8, addend: 0x0, symName: _ggml_geglu_quick, symObjAddr: 0x5AE8, symBinAddr: 0x80560, symSize: 0x118 }
  - { offset: 0x1DD35F, size: 0x8, addend: 0x0, symName: _ggml_geglu_quick.cold.1, symObjAddr: 0x12B18, symBinAddr: 0x146FB8, symSize: 0x10 }
  - { offset: 0x1DD377, size: 0x8, addend: 0x0, symName: _ggml_geglu_quick_swapped, symObjAddr: 0x5C00, symBinAddr: 0x80678, symSize: 0x11C }
  - { offset: 0x1DD517, size: 0x8, addend: 0x0, symName: _ggml_geglu_quick_swapped.cold.1, symObjAddr: 0x12B28, symBinAddr: 0x146FC8, symSize: 0x10 }
  - { offset: 0x1DD52F, size: 0x8, addend: 0x0, symName: _ggml_geglu_quick_split, symObjAddr: 0x5D1C, symBinAddr: 0x80794, symSize: 0xC }
  - { offset: 0x1DD5AB, size: 0x8, addend: 0x0, symName: _ggml_swiglu_oai, symObjAddr: 0x5D28, symBinAddr: 0x807A0, symSize: 0x30 }
  - { offset: 0x1DD6DF, size: 0x8, addend: 0x0, symName: _ggml_norm, symObjAddr: 0x5D58, symBinAddr: 0x807D0, symSize: 0x58 }
  - { offset: 0x1DD815, size: 0x8, addend: 0x0, symName: _ggml_norm_inplace, symObjAddr: 0x5DB0, symBinAddr: 0x80828, symSize: 0x8C }
  - { offset: 0x1DD820, size: 0x8, addend: 0x0, symName: _ggml_norm.cold.1, symObjAddr: 0x12B38, symBinAddr: 0x146FD8, symSize: 0x10 }
  - { offset: 0x1DD838, size: 0x8, addend: 0x0, symName: _ggml_norm_inplace, symObjAddr: 0x5DB0, symBinAddr: 0x80828, symSize: 0x8C }
  - { offset: 0x1DD9D1, size: 0x8, addend: 0x0, symName: _ggml_rms_norm, symObjAddr: 0x5E3C, symBinAddr: 0x808B4, symSize: 0x58 }
  - { offset: 0x1DDB07, size: 0x8, addend: 0x0, symName: _ggml_rms_norm_inplace, symObjAddr: 0x5E94, symBinAddr: 0x8090C, symSize: 0x8C }
  - { offset: 0x1DDB12, size: 0x8, addend: 0x0, symName: _ggml_rms_norm.cold.1, symObjAddr: 0x12B48, symBinAddr: 0x146FE8, symSize: 0x10 }
  - { offset: 0x1DDB2A, size: 0x8, addend: 0x0, symName: _ggml_rms_norm_inplace, symObjAddr: 0x5E94, symBinAddr: 0x8090C, symSize: 0x8C }
  - { offset: 0x1DDC73, size: 0x8, addend: 0x0, symName: _ggml_rms_norm_back, symObjAddr: 0x5F20, symBinAddr: 0x80998, symSize: 0x5C }
  - { offset: 0x1DDD61, size: 0x8, addend: 0x0, symName: _ggml_group_norm, symObjAddr: 0x5F7C, symBinAddr: 0x809F4, symSize: 0x54 }
  - { offset: 0x1DDD6C, size: 0x8, addend: 0x0, symName: _ggml_rms_norm_back.cold.1, symObjAddr: 0x12B58, symBinAddr: 0x146FF8, symSize: 0x10 }
  - { offset: 0x1DDDE1, size: 0x8, addend: 0x0, symName: _ggml_group_norm, symObjAddr: 0x5F7C, symBinAddr: 0x809F4, symSize: 0x54 }
  - { offset: 0x1DDF60, size: 0x8, addend: 0x0, symName: _ggml_group_norm_inplace, symObjAddr: 0x5FD0, symBinAddr: 0x80A48, symSize: 0x90 }
  - { offset: 0x1DE139, size: 0x8, addend: 0x0, symName: _ggml_l2_norm, symObjAddr: 0x6060, symBinAddr: 0x80AD8, symSize: 0x50 }
  - { offset: 0x1DE281, size: 0x8, addend: 0x0, symName: _ggml_l2_norm_inplace, symObjAddr: 0x60B0, symBinAddr: 0x80B28, symSize: 0x8C }
  - { offset: 0x1DE418, size: 0x8, addend: 0x0, symName: _ggml_mul_mat, symObjAddr: 0x613C, symBinAddr: 0x80BB4, symSize: 0xD4 }
  - { offset: 0x1DE555, size: 0x8, addend: 0x0, symName: _ggml_mul_mat.cold.1, symObjAddr: 0x12B68, symBinAddr: 0x147008, symSize: 0x28 }
  - { offset: 0x1DE56D, size: 0x8, addend: 0x0, symName: _ggml_mul_mat.cold.2, symObjAddr: 0x12B90, symBinAddr: 0x147030, symSize: 0x28 }
  - { offset: 0x1DE585, size: 0x8, addend: 0x0, symName: _ggml_mul_mat_set_prec, symObjAddr: 0x6210, symBinAddr: 0x80C88, symSize: 0x20 }
  - { offset: 0x1DE601, size: 0x8, addend: 0x0, symName: _ggml_mul_mat_id, symObjAddr: 0x6230, symBinAddr: 0x80CA8, symSize: 0x134 }
  - { offset: 0x1DE60C, size: 0x8, addend: 0x0, symName: _ggml_mul_mat_set_prec.cold.1, symObjAddr: 0x12BB8, symBinAddr: 0x147058, symSize: 0x28 }
  - { offset: 0x1DE624, size: 0x8, addend: 0x0, symName: _ggml_mul_mat_id, symObjAddr: 0x6230, symBinAddr: 0x80CA8, symSize: 0x134 }
  - { offset: 0x1DE79B, size: 0x8, addend: 0x0, symName: _ggml_mul_mat_id.cold.4, symObjAddr: 0x12C58, symBinAddr: 0x1470F8, symSize: 0x28 }
  - { offset: 0x1DE7B3, size: 0x8, addend: 0x0, symName: _ggml_mul_mat_id.cold.8, symObjAddr: 0x12CF8, symBinAddr: 0x147198, symSize: 0x28 }
  - { offset: 0x1DE7CB, size: 0x8, addend: 0x0, symName: _ggml_mul_mat_id.cold.1, symObjAddr: 0x12BE0, symBinAddr: 0x147080, symSize: 0x28 }
  - { offset: 0x1DE7E3, size: 0x8, addend: 0x0, symName: _ggml_mul_mat_id.cold.2, symObjAddr: 0x12C08, symBinAddr: 0x1470A8, symSize: 0x28 }
  - { offset: 0x1DE7FB, size: 0x8, addend: 0x0, symName: _ggml_mul_mat_id.cold.3, symObjAddr: 0x12C30, symBinAddr: 0x1470D0, symSize: 0x28 }
  - { offset: 0x1DE813, size: 0x8, addend: 0x0, symName: _ggml_mul_mat_id.cold.5, symObjAddr: 0x12C80, symBinAddr: 0x147120, symSize: 0x28 }
  - { offset: 0x1DE82B, size: 0x8, addend: 0x0, symName: _ggml_mul_mat_id.cold.6, symObjAddr: 0x12CA8, symBinAddr: 0x147148, symSize: 0x28 }
  - { offset: 0x1DE843, size: 0x8, addend: 0x0, symName: _ggml_mul_mat_id.cold.7, symObjAddr: 0x12CD0, symBinAddr: 0x147170, symSize: 0x28 }
  - { offset: 0x1DE884, size: 0x8, addend: 0x0, symName: _ggml_out_prod, symObjAddr: 0x6364, symBinAddr: 0x80DDC, symSize: 0xD4 }
  - { offset: 0x1DE9C1, size: 0x8, addend: 0x0, symName: _ggml_out_prod.cold.1, symObjAddr: 0x12D20, symBinAddr: 0x1471C0, symSize: 0x28 }
  - { offset: 0x1DE9D9, size: 0x8, addend: 0x0, symName: _ggml_out_prod.cold.2, symObjAddr: 0x12D48, symBinAddr: 0x1471E8, symSize: 0x28 }
  - { offset: 0x1DEA69, size: 0x8, addend: 0x0, symName: _ggml_scale, symObjAddr: 0x6438, symBinAddr: 0x80EB0, symSize: 0xA8 }
  - { offset: 0x1DEBDC, size: 0x8, addend: 0x0, symName: _ggml_scale_impl, symObjAddr: 0x64E0, symBinAddr: 0x80F58, symSize: 0xFC }
  - { offset: 0x1DEBE7, size: 0x8, addend: 0x0, symName: _ggml_scale.cold.1, symObjAddr: 0x12D70, symBinAddr: 0x147210, symSize: 0x10 }
  - { offset: 0x1DEBFF, size: 0x8, addend: 0x0, symName: _ggml_scale.cold.2, symObjAddr: 0x12D80, symBinAddr: 0x147220, symSize: 0x10 }
  - { offset: 0x1DEC17, size: 0x8, addend: 0x0, symName: _ggml_scale_impl, symObjAddr: 0x64E0, symBinAddr: 0x80F58, symSize: 0xFC }
  - { offset: 0x1DEDC8, size: 0x8, addend: 0x0, symName: _ggml_scale_inplace, symObjAddr: 0x65DC, symBinAddr: 0x81054, symSize: 0xC }
  - { offset: 0x1DEDD3, size: 0x8, addend: 0x0, symName: _ggml_scale_impl.cold.1, symObjAddr: 0x12D90, symBinAddr: 0x147230, symSize: 0x10 }
  - { offset: 0x1DEDEB, size: 0x8, addend: 0x0, symName: _ggml_scale_impl.cold.2, symObjAddr: 0x12DA0, symBinAddr: 0x147240, symSize: 0x10 }
  - { offset: 0x1DEE03, size: 0x8, addend: 0x0, symName: _ggml_scale_inplace, symObjAddr: 0x65DC, symBinAddr: 0x81054, symSize: 0xC }
  - { offset: 0x1DEE7C, size: 0x8, addend: 0x0, symName: _ggml_scale_bias, symObjAddr: 0x65E8, symBinAddr: 0x81060, symSize: 0xA8 }
  - { offset: 0x1DF01F, size: 0x8, addend: 0x0, symName: _ggml_scale_bias_inplace, symObjAddr: 0x6690, symBinAddr: 0x81108, symSize: 0x8 }
  - { offset: 0x1DF02A, size: 0x8, addend: 0x0, symName: _ggml_scale_bias.cold.1, symObjAddr: 0x12DB0, symBinAddr: 0x147250, symSize: 0x10 }
  - { offset: 0x1DF042, size: 0x8, addend: 0x0, symName: _ggml_scale_bias.cold.2, symObjAddr: 0x12DC0, symBinAddr: 0x147260, symSize: 0x10 }
  - { offset: 0x1DF05A, size: 0x8, addend: 0x0, symName: _ggml_scale_bias_inplace, symObjAddr: 0x6690, symBinAddr: 0x81108, symSize: 0x8 }
  - { offset: 0x1DF0ED, size: 0x8, addend: 0x0, symName: _ggml_set, symObjAddr: 0x6698, symBinAddr: 0x81110, symSize: 0x8 }
  - { offset: 0x1DF1BF, size: 0x8, addend: 0x0, symName: _ggml_set_impl, symObjAddr: 0x66A0, symBinAddr: 0x81118, symSize: 0x114 }
  - { offset: 0x1DF3E5, size: 0x8, addend: 0x0, symName: _ggml_set_inplace, symObjAddr: 0x67B4, symBinAddr: 0x8122C, symSize: 0x8 }
  - { offset: 0x1DF3F0, size: 0x8, addend: 0x0, symName: _ggml_set_impl.cold.3, symObjAddr: 0x12E08, symBinAddr: 0x1472A8, symSize: 0x28 }
  - { offset: 0x1DF408, size: 0x8, addend: 0x0, symName: _ggml_set_impl.cold.1, symObjAddr: 0x12DD0, symBinAddr: 0x147270, symSize: 0x28 }
  - { offset: 0x1DF420, size: 0x8, addend: 0x0, symName: _ggml_set_impl.cold.2, symObjAddr: 0x12DF8, symBinAddr: 0x147298, symSize: 0x10 }
  - { offset: 0x1DF438, size: 0x8, addend: 0x0, symName: _ggml_set_inplace, symObjAddr: 0x67B4, symBinAddr: 0x8122C, symSize: 0x8 }
  - { offset: 0x1DF50A, size: 0x8, addend: 0x0, symName: _ggml_set_1d, symObjAddr: 0x67BC, symBinAddr: 0x81234, symSize: 0x14 }
  - { offset: 0x1DF599, size: 0x8, addend: 0x0, symName: _ggml_set_1d_inplace, symObjAddr: 0x67D0, symBinAddr: 0x81248, symSize: 0x14 }
  - { offset: 0x1DF628, size: 0x8, addend: 0x0, symName: _ggml_set_2d, symObjAddr: 0x67E4, symBinAddr: 0x8125C, symSize: 0x10 }
  - { offset: 0x1DF6CE, size: 0x8, addend: 0x0, symName: _ggml_set_2d_inplace, symObjAddr: 0x67F4, symBinAddr: 0x8126C, symSize: 0x10 }
  - { offset: 0x1DF7B7, size: 0x8, addend: 0x0, symName: _ggml_cpy, symObjAddr: 0x6804, symBinAddr: 0x8127C, symSize: 0xEC }
  - { offset: 0x1DF90E, size: 0x8, addend: 0x0, symName: _ggml_cast, symObjAddr: 0x68F0, symBinAddr: 0x81368, symSize: 0x5C }
  - { offset: 0x1DF919, size: 0x8, addend: 0x0, symName: _ggml_cpy.cold.1, symObjAddr: 0x12E30, symBinAddr: 0x1472D0, symSize: 0x28 }
  - { offset: 0x1DF948, size: 0x8, addend: 0x0, symName: _ggml_cast, symObjAddr: 0x68F0, symBinAddr: 0x81368, symSize: 0x5C }
  - { offset: 0x1DFA4D, size: 0x8, addend: 0x0, symName: _ggml_cont, symObjAddr: 0x694C, symBinAddr: 0x813C4, symSize: 0x5C }
  - { offset: 0x1DFBA6, size: 0x8, addend: 0x0, symName: _ggml_cont_1d, symObjAddr: 0x69A8, symBinAddr: 0x81420, symSize: 0xBC }
  - { offset: 0x1DFD2A, size: 0x8, addend: 0x0, symName: _ggml_cont_1d.cold.1, symObjAddr: 0x12E58, symBinAddr: 0x1472F8, symSize: 0x10 }
  - { offset: 0x1DFD42, size: 0x8, addend: 0x0, symName: _ggml_cont_4d, symObjAddr: 0x6A64, symBinAddr: 0x814DC, symSize: 0xBC }
  - { offset: 0x1DFE90, size: 0x8, addend: 0x0, symName: _ggml_cont_4d.cold.1, symObjAddr: 0x12E68, symBinAddr: 0x147308, symSize: 0x10 }
  - { offset: 0x1DFEA8, size: 0x8, addend: 0x0, symName: _ggml_cont_2d, symObjAddr: 0x6B20, symBinAddr: 0x81598, symSize: 0xBC }
  - { offset: 0x1E0040, size: 0x8, addend: 0x0, symName: _ggml_cont_2d.cold.1, symObjAddr: 0x12E78, symBinAddr: 0x147318, symSize: 0x10 }
  - { offset: 0x1E0058, size: 0x8, addend: 0x0, symName: _ggml_cont_3d, symObjAddr: 0x6BDC, symBinAddr: 0x81654, symSize: 0xBC }
  - { offset: 0x1E0204, size: 0x8, addend: 0x0, symName: _ggml_cont_3d.cold.1, symObjAddr: 0x12E88, symBinAddr: 0x147328, symSize: 0x10 }
  - { offset: 0x1E021C, size: 0x8, addend: 0x0, symName: _ggml_reshape, symObjAddr: 0x6C98, symBinAddr: 0x81710, symSize: 0x118 }
  - { offset: 0x1E03BB, size: 0x8, addend: 0x0, symName: _ggml_reshape_1d, symObjAddr: 0x6DB0, symBinAddr: 0x81828, symSize: 0x130 }
  - { offset: 0x1E03C6, size: 0x8, addend: 0x0, symName: _ggml_reshape.cold.1, symObjAddr: 0x12E98, symBinAddr: 0x147338, symSize: 0x20 }
  - { offset: 0x1E03DE, size: 0x8, addend: 0x0, symName: _ggml_reshape.cold.2, symObjAddr: 0x12EB8, symBinAddr: 0x147358, symSize: 0x28 }
  - { offset: 0x1E03F6, size: 0x8, addend: 0x0, symName: _ggml_reshape_1d, symObjAddr: 0x6DB0, symBinAddr: 0x81828, symSize: 0x130 }
  - { offset: 0x1E05A1, size: 0x8, addend: 0x0, symName: _ggml_reshape_1d.cold.1, symObjAddr: 0x12EE0, symBinAddr: 0x147380, symSize: 0x20 }
  - { offset: 0x1E05B9, size: 0x8, addend: 0x0, symName: _ggml_reshape_1d.cold.2, symObjAddr: 0x12F00, symBinAddr: 0x1473A0, symSize: 0x28 }
  - { offset: 0x1E05D1, size: 0x8, addend: 0x0, symName: _ggml_reshape_2d, symObjAddr: 0x6EE0, symBinAddr: 0x81958, symSize: 0x134 }
  - { offset: 0x1E078D, size: 0x8, addend: 0x0, symName: _ggml_reshape_2d.cold.1, symObjAddr: 0x12F28, symBinAddr: 0x1473C8, symSize: 0x20 }
  - { offset: 0x1E07A5, size: 0x8, addend: 0x0, symName: _ggml_reshape_2d.cold.2, symObjAddr: 0x12F48, symBinAddr: 0x1473E8, symSize: 0x28 }
  - { offset: 0x1E07BD, size: 0x8, addend: 0x0, symName: _ggml_reshape_3d, symObjAddr: 0x7014, symBinAddr: 0x81A8C, symSize: 0x13C }
  - { offset: 0x1E098A, size: 0x8, addend: 0x0, symName: _ggml_reshape_3d.cold.1, symObjAddr: 0x12F70, symBinAddr: 0x147410, symSize: 0x20 }
  - { offset: 0x1E09A2, size: 0x8, addend: 0x0, symName: _ggml_reshape_3d.cold.2, symObjAddr: 0x12F90, symBinAddr: 0x147430, symSize: 0x28 }
  - { offset: 0x1E09BA, size: 0x8, addend: 0x0, symName: _ggml_reshape_4d, symObjAddr: 0x7150, symBinAddr: 0x81BC8, symSize: 0x140 }
  - { offset: 0x1E0B98, size: 0x8, addend: 0x0, symName: _ggml_reshape_4d.cold.1, symObjAddr: 0x12FB8, symBinAddr: 0x147458, symSize: 0x20 }
  - { offset: 0x1E0BB0, size: 0x8, addend: 0x0, symName: _ggml_reshape_4d.cold.2, symObjAddr: 0x12FD8, symBinAddr: 0x147478, symSize: 0x28 }
  - { offset: 0x1E0C25, size: 0x8, addend: 0x0, symName: _ggml_view_1d, symObjAddr: 0x7290, symBinAddr: 0x81D08, symSize: 0x70 }
  - { offset: 0x1E0D3F, size: 0x8, addend: 0x0, symName: _ggml_view_2d, symObjAddr: 0x7300, symBinAddr: 0x81D78, symSize: 0xB4 }
  - { offset: 0x1E0D4A, size: 0x8, addend: 0x0, symName: _ggml_view_1d.cold.1, symObjAddr: 0x13000, symBinAddr: 0x1474A0, symSize: 0x10 }
  - { offset: 0x1E0D62, size: 0x8, addend: 0x0, symName: _ggml_view_2d, symObjAddr: 0x7300, symBinAddr: 0x81D78, symSize: 0xB4 }
  - { offset: 0x1E0EC2, size: 0x8, addend: 0x0, symName: _ggml_view_2d.cold.1, symObjAddr: 0x13010, symBinAddr: 0x1474B0, symSize: 0x10 }
  - { offset: 0x1E0EDA, size: 0x8, addend: 0x0, symName: _ggml_view_3d, symObjAddr: 0x73B4, symBinAddr: 0x81E2C, symSize: 0xC8 }
  - { offset: 0x1E105C, size: 0x8, addend: 0x0, symName: _ggml_view_3d.cold.1, symObjAddr: 0x13020, symBinAddr: 0x1474C0, symSize: 0x10 }
  - { offset: 0x1E1074, size: 0x8, addend: 0x0, symName: _ggml_view_4d, symObjAddr: 0x747C, symBinAddr: 0x81EF4, symSize: 0xBC }
  - { offset: 0x1E11BA, size: 0x8, addend: 0x0, symName: _ggml_view_4d.cold.1, symObjAddr: 0x13030, symBinAddr: 0x1474D0, symSize: 0x10 }
  - { offset: 0x1E11D2, size: 0x8, addend: 0x0, symName: _ggml_permute, symObjAddr: 0x7538, symBinAddr: 0x81FB0, symSize: 0x1B0 }
  - { offset: 0x1E1390, size: 0x8, addend: 0x0, symName: _ggml_permute.cold.1, symObjAddr: 0x13040, symBinAddr: 0x1474E0, symSize: 0x28 }
  - { offset: 0x1E13A8, size: 0x8, addend: 0x0, symName: _ggml_permute.cold.2, symObjAddr: 0x13068, symBinAddr: 0x147508, symSize: 0x28 }
  - { offset: 0x1E13C0, size: 0x8, addend: 0x0, symName: _ggml_permute.cold.3, symObjAddr: 0x13090, symBinAddr: 0x147530, symSize: 0x28 }
  - { offset: 0x1E13D8, size: 0x8, addend: 0x0, symName: _ggml_permute.cold.4, symObjAddr: 0x130B8, symBinAddr: 0x147558, symSize: 0x28 }
  - { offset: 0x1E13F0, size: 0x8, addend: 0x0, symName: _ggml_permute.cold.10, symObjAddr: 0x131A8, symBinAddr: 0x147648, symSize: 0x28 }
  - { offset: 0x1E1408, size: 0x8, addend: 0x0, symName: _ggml_permute.cold.9, symObjAddr: 0x13180, symBinAddr: 0x147620, symSize: 0x28 }
  - { offset: 0x1E1420, size: 0x8, addend: 0x0, symName: _ggml_permute.cold.8, symObjAddr: 0x13158, symBinAddr: 0x1475F8, symSize: 0x28 }
  - { offset: 0x1E1438, size: 0x8, addend: 0x0, symName: _ggml_permute.cold.7, symObjAddr: 0x13130, symBinAddr: 0x1475D0, symSize: 0x28 }
  - { offset: 0x1E1450, size: 0x8, addend: 0x0, symName: _ggml_permute.cold.6, symObjAddr: 0x13108, symBinAddr: 0x1475A8, symSize: 0x28 }
  - { offset: 0x1E1468, size: 0x8, addend: 0x0, symName: _ggml_permute.cold.5, symObjAddr: 0x130E0, symBinAddr: 0x147580, symSize: 0x28 }
  - { offset: 0x1E1480, size: 0x8, addend: 0x0, symName: _ggml_transpose, symObjAddr: 0x76E8, symBinAddr: 0x82160, symSize: 0xAC }
  - { offset: 0x1E1550, size: 0x8, addend: 0x0, symName: _ggml_get_rows, symObjAddr: 0x7794, symBinAddr: 0x8220C, symSize: 0xD8 }
  - { offset: 0x1E16A5, size: 0x8, addend: 0x0, symName: _ggml_get_rows.cold.1, symObjAddr: 0x131D0, symBinAddr: 0x147670, symSize: 0x28 }
  - { offset: 0x1E16BD, size: 0x8, addend: 0x0, symName: _ggml_get_rows.cold.2, symObjAddr: 0x131F8, symBinAddr: 0x147698, symSize: 0x28 }
  - { offset: 0x1E16D5, size: 0x8, addend: 0x0, symName: _ggml_get_rows.cold.3, symObjAddr: 0x13220, symBinAddr: 0x1476C0, symSize: 0x28 }
  - { offset: 0x1E16ED, size: 0x8, addend: 0x0, symName: _ggml_get_rows.cold.4, symObjAddr: 0x13248, symBinAddr: 0x1476E8, symSize: 0x28 }
  - { offset: 0x1E177F, size: 0x8, addend: 0x0, symName: _ggml_get_rows_back, symObjAddr: 0x786C, symBinAddr: 0x822E4, symSize: 0xF8 }
  - { offset: 0x1E190D, size: 0x8, addend: 0x0, symName: _ggml_get_rows_back.cold.1, symObjAddr: 0x13270, symBinAddr: 0x147710, symSize: 0x28 }
  - { offset: 0x1E1925, size: 0x8, addend: 0x0, symName: _ggml_get_rows_back.cold.2, symObjAddr: 0x13298, symBinAddr: 0x147738, symSize: 0x28 }
  - { offset: 0x1E193D, size: 0x8, addend: 0x0, symName: _ggml_set_rows, symObjAddr: 0x7964, symBinAddr: 0x823DC, symSize: 0x188 }
  - { offset: 0x1E1B27, size: 0x8, addend: 0x0, symName: _ggml_diag, symObjAddr: 0x7AEC, symBinAddr: 0x82564, symSize: 0x94 }
  - { offset: 0x1E1B32, size: 0x8, addend: 0x0, symName: _ggml_set_rows.cold.1, symObjAddr: 0x132C0, symBinAddr: 0x147760, symSize: 0x28 }
  - { offset: 0x1E1B4A, size: 0x8, addend: 0x0, symName: _ggml_set_rows.cold.2, symObjAddr: 0x132E8, symBinAddr: 0x147788, symSize: 0x28 }
  - { offset: 0x1E1B62, size: 0x8, addend: 0x0, symName: _ggml_set_rows.cold.3, symObjAddr: 0x13310, symBinAddr: 0x1477B0, symSize: 0x28 }
  - { offset: 0x1E1B7A, size: 0x8, addend: 0x0, symName: _ggml_set_rows.cold.4, symObjAddr: 0x13338, symBinAddr: 0x1477D8, symSize: 0x28 }
  - { offset: 0x1E1B92, size: 0x8, addend: 0x0, symName: _ggml_set_rows.cold.5, symObjAddr: 0x13360, symBinAddr: 0x147800, symSize: 0x28 }
  - { offset: 0x1E1BAA, size: 0x8, addend: 0x0, symName: _ggml_set_rows.cold.6, symObjAddr: 0x13388, symBinAddr: 0x147828, symSize: 0x28 }
  - { offset: 0x1E1BC2, size: 0x8, addend: 0x0, symName: _ggml_set_rows.cold.7, symObjAddr: 0x133B0, symBinAddr: 0x147850, symSize: 0x28 }
  - { offset: 0x1E1BDA, size: 0x8, addend: 0x0, symName: _ggml_set_rows.cold.8, symObjAddr: 0x133D8, symBinAddr: 0x147878, symSize: 0x28 }
  - { offset: 0x1E1BF2, size: 0x8, addend: 0x0, symName: _ggml_set_rows.cold.9, symObjAddr: 0x13400, symBinAddr: 0x1478A0, symSize: 0x28 }
  - { offset: 0x1E1C0A, size: 0x8, addend: 0x0, symName: _ggml_set_rows.cold.10, symObjAddr: 0x13428, symBinAddr: 0x1478C8, symSize: 0x28 }
  - { offset: 0x1E1C22, size: 0x8, addend: 0x0, symName: _ggml_set_rows.cold.11, symObjAddr: 0x13450, symBinAddr: 0x1478F0, symSize: 0x28 }
  - { offset: 0x1E1C3A, size: 0x8, addend: 0x0, symName: _ggml_diag, symObjAddr: 0x7AEC, symBinAddr: 0x82564, symSize: 0x94 }
  - { offset: 0x1E1D0B, size: 0x8, addend: 0x0, symName: _ggml_diag.cold.1, symObjAddr: 0x13478, symBinAddr: 0x147918, symSize: 0x28 }
  - { offset: 0x1E1D8E, size: 0x8, addend: 0x0, symName: _ggml_diag_mask_inf, symObjAddr: 0x7B80, symBinAddr: 0x825F8, symSize: 0x4C }
  - { offset: 0x1E1EC4, size: 0x8, addend: 0x0, symName: _ggml_diag_mask_inf_inplace, symObjAddr: 0x7BCC, symBinAddr: 0x82644, symSize: 0x80 }
  - { offset: 0x1E1ECF, size: 0x8, addend: 0x0, symName: _ggml_diag_mask_inf.cold.1, symObjAddr: 0x134A0, symBinAddr: 0x147940, symSize: 0x10 }
  - { offset: 0x1E1EE7, size: 0x8, addend: 0x0, symName: _ggml_diag_mask_inf_inplace, symObjAddr: 0x7BCC, symBinAddr: 0x82644, symSize: 0x80 }
  - { offset: 0x1E2096, size: 0x8, addend: 0x0, symName: _ggml_diag_mask_zero, symObjAddr: 0x7C4C, symBinAddr: 0x826C4, symSize: 0x4C }
  - { offset: 0x1E21CC, size: 0x8, addend: 0x0, symName: _ggml_diag_mask_zero_inplace, symObjAddr: 0x7C98, symBinAddr: 0x82710, symSize: 0x80 }
  - { offset: 0x1E21D7, size: 0x8, addend: 0x0, symName: _ggml_diag_mask_zero.cold.1, symObjAddr: 0x134B0, symBinAddr: 0x147950, symSize: 0x10 }
  - { offset: 0x1E21EF, size: 0x8, addend: 0x0, symName: _ggml_diag_mask_zero_inplace, symObjAddr: 0x7C98, symBinAddr: 0x82710, symSize: 0x80 }
  - { offset: 0x1E2341, size: 0x8, addend: 0x0, symName: _ggml_soft_max, symObjAddr: 0x7D18, symBinAddr: 0x82790, symSize: 0x14 }
  - { offset: 0x1E23A6, size: 0x8, addend: 0x0, symName: _ggml_soft_max_impl, symObjAddr: 0x7D2C, symBinAddr: 0x827A4, symSize: 0x220 }
  - { offset: 0x1E2740, size: 0x8, addend: 0x0, symName: _ggml_soft_max_inplace, symObjAddr: 0x7F4C, symBinAddr: 0x829C4, symSize: 0x14 }
  - { offset: 0x1E274B, size: 0x8, addend: 0x0, symName: _ggml_soft_max_impl.cold.6, symObjAddr: 0x13580, symBinAddr: 0x147A20, symSize: 0x28 }
  - { offset: 0x1E2763, size: 0x8, addend: 0x0, symName: _ggml_soft_max_impl.cold.1, symObjAddr: 0x134C0, symBinAddr: 0x147960, symSize: 0x20 }
  - { offset: 0x1E277B, size: 0x8, addend: 0x0, symName: _ggml_soft_max_impl.cold.3, symObjAddr: 0x13508, symBinAddr: 0x1479A8, symSize: 0x28 }
  - { offset: 0x1E2793, size: 0x8, addend: 0x0, symName: _ggml_soft_max_impl.cold.2, symObjAddr: 0x134E0, symBinAddr: 0x147980, symSize: 0x28 }
  - { offset: 0x1E27AB, size: 0x8, addend: 0x0, symName: _ggml_soft_max_impl.cold.4, symObjAddr: 0x13530, symBinAddr: 0x1479D0, symSize: 0x28 }
  - { offset: 0x1E27C3, size: 0x8, addend: 0x0, symName: _ggml_soft_max_impl.cold.7, symObjAddr: 0x135A8, symBinAddr: 0x147A48, symSize: 0x28 }
  - { offset: 0x1E27DB, size: 0x8, addend: 0x0, symName: _ggml_soft_max_impl.cold.5, symObjAddr: 0x13558, symBinAddr: 0x1479F8, symSize: 0x28 }
  - { offset: 0x1E27F3, size: 0x8, addend: 0x0, symName: _ggml_soft_max_impl.cold.9, symObjAddr: 0x135F8, symBinAddr: 0x147A98, symSize: 0x10 }
  - { offset: 0x1E280B, size: 0x8, addend: 0x0, symName: _ggml_soft_max_impl.cold.8, symObjAddr: 0x135D0, symBinAddr: 0x147A70, symSize: 0x28 }
  - { offset: 0x1E2823, size: 0x8, addend: 0x0, symName: _ggml_soft_max_inplace, symObjAddr: 0x7F4C, symBinAddr: 0x829C4, symSize: 0x14 }
  - { offset: 0x1E2888, size: 0x8, addend: 0x0, symName: _ggml_soft_max_ext, symObjAddr: 0x7F60, symBinAddr: 0x829D8, symSize: 0x8 }
  - { offset: 0x1E2932, size: 0x8, addend: 0x0, symName: _ggml_soft_max_ext_inplace, symObjAddr: 0x7F68, symBinAddr: 0x829E0, symSize: 0x8 }
  - { offset: 0x1E29DC, size: 0x8, addend: 0x0, symName: _ggml_soft_max_add_sinks, symObjAddr: 0x7F70, symBinAddr: 0x829E8, symSize: 0x64 }
  - { offset: 0x1E2A43, size: 0x8, addend: 0x0, symName: _ggml_soft_max_ext_back, symObjAddr: 0x7FD4, symBinAddr: 0x82A4C, symSize: 0x58 }
  - { offset: 0x1E2A4E, size: 0x8, addend: 0x0, symName: _ggml_soft_max_add_sinks.cold.1, symObjAddr: 0x13608, symBinAddr: 0x147AA8, symSize: 0x28 }
  - { offset: 0x1E2A66, size: 0x8, addend: 0x0, symName: _ggml_soft_max_add_sinks.cold.2, symObjAddr: 0x13630, symBinAddr: 0x147AD0, symSize: 0x28 }
  - { offset: 0x1E2A7E, size: 0x8, addend: 0x0, symName: _ggml_soft_max_add_sinks.cold.3, symObjAddr: 0x13658, symBinAddr: 0x147AF8, symSize: 0x28 }
  - { offset: 0x1E2A96, size: 0x8, addend: 0x0, symName: _ggml_soft_max_add_sinks.cold.4, symObjAddr: 0x13680, symBinAddr: 0x147B20, symSize: 0x28 }
  - { offset: 0x1E2B18, size: 0x8, addend: 0x0, symName: _ggml_soft_max_ext_back, symObjAddr: 0x7FD4, symBinAddr: 0x82A4C, symSize: 0x58 }
  - { offset: 0x1E2C40, size: 0x8, addend: 0x0, symName: _ggml_soft_max_ext_back_inplace, symObjAddr: 0x802C, symBinAddr: 0x82AA4, symSize: 0x94 }
  - { offset: 0x1E2D96, size: 0x8, addend: 0x0, symName: _ggml_rope, symObjAddr: 0x80C0, symBinAddr: 0x82B38, symSize: 0x54 }
  - { offset: 0x1E2E50, size: 0x8, addend: 0x0, symName: _ggml_rope_impl, symObjAddr: 0x8114, symBinAddr: 0x82B8C, symSize: 0x1FC }
  - { offset: 0x1E3120, size: 0x8, addend: 0x0, symName: _ggml_rope_multi, symObjAddr: 0x8310, symBinAddr: 0x82D88, symSize: 0x20 }
  - { offset: 0x1E312B, size: 0x8, addend: 0x0, symName: _ggml_rope_impl.cold.5, symObjAddr: 0x13748, symBinAddr: 0x147BE8, symSize: 0x28 }
  - { offset: 0x1E3143, size: 0x8, addend: 0x0, symName: _ggml_rope_impl.cold.2, symObjAddr: 0x136D0, symBinAddr: 0x147B70, symSize: 0x28 }
  - { offset: 0x1E315B, size: 0x8, addend: 0x0, symName: _ggml_rope_impl.cold.1, symObjAddr: 0x136A8, symBinAddr: 0x147B48, symSize: 0x28 }
  - { offset: 0x1E3173, size: 0x8, addend: 0x0, symName: _ggml_rope_impl.cold.3, symObjAddr: 0x136F8, symBinAddr: 0x147B98, symSize: 0x28 }
  - { offset: 0x1E318B, size: 0x8, addend: 0x0, symName: _ggml_rope_impl.cold.8, symObjAddr: 0x137C0, symBinAddr: 0x147C60, symSize: 0x10 }
  - { offset: 0x1E31A3, size: 0x8, addend: 0x0, symName: _ggml_rope_impl.cold.6, symObjAddr: 0x13770, symBinAddr: 0x147C10, symSize: 0x28 }
  - { offset: 0x1E31BB, size: 0x8, addend: 0x0, symName: _ggml_rope_impl.cold.7, symObjAddr: 0x13798, symBinAddr: 0x147C38, symSize: 0x28 }
  - { offset: 0x1E31D3, size: 0x8, addend: 0x0, symName: _ggml_rope_impl.cold.4, symObjAddr: 0x13720, symBinAddr: 0x147BC0, symSize: 0x28 }
  - { offset: 0x1E31EB, size: 0x8, addend: 0x0, symName: _ggml_rope_multi, symObjAddr: 0x8310, symBinAddr: 0x82D88, symSize: 0x20 }
  - { offset: 0x1E3317, size: 0x8, addend: 0x0, symName: _ggml_rope_multi_inplace, symObjAddr: 0x8330, symBinAddr: 0x82DA8, symSize: 0x24 }
  - { offset: 0x1E34AC, size: 0x8, addend: 0x0, symName: _ggml_rope_inplace, symObjAddr: 0x8354, symBinAddr: 0x82DCC, symSize: 0x58 }
  - { offset: 0x1E3566, size: 0x8, addend: 0x0, symName: _ggml_rope_ext, symObjAddr: 0x83AC, symBinAddr: 0x82E24, symSize: 0x2C }
  - { offset: 0x1E3686, size: 0x8, addend: 0x0, symName: _ggml_rope_ext_inplace, symObjAddr: 0x83D8, symBinAddr: 0x82E50, symSize: 0x30 }
  - { offset: 0x1E3808, size: 0x8, addend: 0x0, symName: _ggml_rope_custom, symObjAddr: 0x8408, symBinAddr: 0x82E80, symSize: 0x34 }
  - { offset: 0x1E3977, size: 0x8, addend: 0x0, symName: _ggml_rope_custom_inplace, symObjAddr: 0x843C, symBinAddr: 0x82EB4, symSize: 0x38 }
  - { offset: 0x1E3B29, size: 0x8, addend: 0x0, symName: _ggml_rope_yarn_corr_dims, symObjAddr: 0x8474, symBinAddr: 0x82EEC, symSize: 0xB8 }
  - { offset: 0x1E3CE6, size: 0x8, addend: 0x0, symName: _ggml_rope_ext_back, symObjAddr: 0x852C, symBinAddr: 0x82FA4, symSize: 0x34 }
  - { offset: 0x1E3FDD, size: 0x8, addend: 0x0, symName: _ggml_rope_multi_back, symObjAddr: 0x8560, symBinAddr: 0x82FD8, symSize: 0x28 }
  - { offset: 0x1E4226, size: 0x8, addend: 0x0, symName: _ggml_clamp, symObjAddr: 0x8588, symBinAddr: 0x83000, symSize: 0x90 }
  - { offset: 0x1E43AD, size: 0x8, addend: 0x0, symName: _ggml_im2col, symObjAddr: 0x8618, symBinAddr: 0x83090, symSize: 0x1BC }
  - { offset: 0x1E45E3, size: 0x8, addend: 0x0, symName: _ggml_im2col_back, symObjAddr: 0x87D4, symBinAddr: 0x8324C, symSize: 0x7C }
  - { offset: 0x1E45EE, size: 0x8, addend: 0x0, symName: _ggml_im2col.cold.6, symObjAddr: 0x13880, symBinAddr: 0x147D20, symSize: 0x28 }
  - { offset: 0x1E4606, size: 0x8, addend: 0x0, symName: _ggml_im2col.cold.4, symObjAddr: 0x13848, symBinAddr: 0x147CE8, symSize: 0x28 }
  - { offset: 0x1E461E, size: 0x8, addend: 0x0, symName: _ggml_im2col.cold.5, symObjAddr: 0x13870, symBinAddr: 0x147D10, symSize: 0x10 }
  - { offset: 0x1E4636, size: 0x8, addend: 0x0, symName: _ggml_im2col.cold.3, symObjAddr: 0x13820, symBinAddr: 0x147CC0, symSize: 0x28 }
  - { offset: 0x1E464E, size: 0x8, addend: 0x0, symName: _ggml_im2col.cold.1, symObjAddr: 0x137D0, symBinAddr: 0x147C70, symSize: 0x28 }
  - { offset: 0x1E4666, size: 0x8, addend: 0x0, symName: _ggml_im2col.cold.2, symObjAddr: 0x137F8, symBinAddr: 0x147C98, symSize: 0x28 }
  - { offset: 0x1E467E, size: 0x8, addend: 0x0, symName: _ggml_im2col_back, symObjAddr: 0x87D4, symBinAddr: 0x8324C, symSize: 0x7C }
  - { offset: 0x1E479C, size: 0x8, addend: 0x0, symName: _ggml_conv_1d, symObjAddr: 0x8850, symBinAddr: 0x832C8, symSize: 0xAC }
  - { offset: 0x1E47A7, size: 0x8, addend: 0x0, symName: _ggml_im2col_back.cold.1, symObjAddr: 0x138A8, symBinAddr: 0x147D48, symSize: 0x10 }
  - { offset: 0x1E47BF, size: 0x8, addend: 0x0, symName: _ggml_conv_1d, symObjAddr: 0x8850, symBinAddr: 0x832C8, symSize: 0xAC }
  - { offset: 0x1E494B, size: 0x8, addend: 0x0, symName: _ggml_conv_1d_ph, symObjAddr: 0x88FC, symBinAddr: 0x83374, symSize: 0xB4 }
  - { offset: 0x1E4ACB, size: 0x8, addend: 0x0, symName: _ggml_conv_1d_dw, symObjAddr: 0x89B0, symBinAddr: 0x83428, symSize: 0xB4 }
  - { offset: 0x1E4C53, size: 0x8, addend: 0x0, symName: _ggml_conv_1d_dw_ph, symObjAddr: 0x8A64, symBinAddr: 0x834DC, symSize: 0xBC }
  - { offset: 0x1E4E1A, size: 0x8, addend: 0x0, symName: _ggml_conv_transpose_1d, symObjAddr: 0x8B20, symBinAddr: 0x83598, symSize: 0x110 }
  - { offset: 0x1E5002, size: 0x8, addend: 0x0, symName: _ggml_conv_transpose_1d.cold.1, symObjAddr: 0x138B8, symBinAddr: 0x147D58, symSize: 0x28 }
  - { offset: 0x1E501A, size: 0x8, addend: 0x0, symName: _ggml_conv_transpose_1d.cold.2, symObjAddr: 0x138E0, symBinAddr: 0x147D80, symSize: 0x28 }
  - { offset: 0x1E5032, size: 0x8, addend: 0x0, symName: _ggml_conv_transpose_1d.cold.3, symObjAddr: 0x13908, symBinAddr: 0x147DA8, symSize: 0x28 }
  - { offset: 0x1E504A, size: 0x8, addend: 0x0, symName: _ggml_conv_transpose_1d.cold.4, symObjAddr: 0x13930, symBinAddr: 0x147DD0, symSize: 0x28 }
  - { offset: 0x1E5062, size: 0x8, addend: 0x0, symName: _ggml_conv_transpose_1d.cold.5, symObjAddr: 0x13958, symBinAddr: 0x147DF8, symSize: 0x28 }
  - { offset: 0x1E507A, size: 0x8, addend: 0x0, symName: _ggml_conv_transpose_1d.cold.6, symObjAddr: 0x13980, symBinAddr: 0x147E20, symSize: 0x10 }
  - { offset: 0x1E5168, size: 0x8, addend: 0x0, symName: _ggml_conv_2d, symObjAddr: 0x8C30, symBinAddr: 0x836A8, symSize: 0x1AC }
  - { offset: 0x1E54F5, size: 0x8, addend: 0x0, symName: _ggml_im2col_3d, symObjAddr: 0x8DDC, symBinAddr: 0x83854, symSize: 0x1A0 }
  - { offset: 0x1E57D6, size: 0x8, addend: 0x0, symName: _ggml_im2col_3d.cold.1, symObjAddr: 0x13990, symBinAddr: 0x147E30, symSize: 0x28 }
  - { offset: 0x1E57EE, size: 0x8, addend: 0x0, symName: _ggml_im2col_3d.cold.2, symObjAddr: 0x139B8, symBinAddr: 0x147E58, symSize: 0x28 }
  - { offset: 0x1E5806, size: 0x8, addend: 0x0, symName: _ggml_im2col_3d.cold.3, symObjAddr: 0x139E0, symBinAddr: 0x147E80, symSize: 0x28 }
  - { offset: 0x1E581E, size: 0x8, addend: 0x0, symName: _ggml_im2col_3d.cold.4, symObjAddr: 0x13A08, symBinAddr: 0x147EA8, symSize: 0x10 }
  - { offset: 0x1E5836, size: 0x8, addend: 0x0, symName: _ggml_conv_3d, symObjAddr: 0x8F7C, symBinAddr: 0x839F4, symSize: 0x200 }
  - { offset: 0x1E5C64, size: 0x8, addend: 0x0, symName: _ggml_conv_2d_sk_p0, symObjAddr: 0x917C, symBinAddr: 0x83BF4, symSize: 0x38 }
  - { offset: 0x1E5CEC, size: 0x8, addend: 0x0, symName: _ggml_conv_2d_s1_ph, symObjAddr: 0x91B4, symBinAddr: 0x83C2C, symSize: 0x44 }
  - { offset: 0x1E5D74, size: 0x8, addend: 0x0, symName: _ggml_conv_2d_dw, symObjAddr: 0x91F8, symBinAddr: 0x83C70, symSize: 0x128 }
  - { offset: 0x1E5F7B, size: 0x8, addend: 0x0, symName: _ggml_conv_2d_dw_direct, symObjAddr: 0x9320, symBinAddr: 0x83D98, symSize: 0x1C0 }
  - { offset: 0x1E61F2, size: 0x8, addend: 0x0, symName: _ggml_conv_2d_direct, symObjAddr: 0x94E0, symBinAddr: 0x83F58, symSize: 0x130 }
  - { offset: 0x1E61FD, size: 0x8, addend: 0x0, symName: _ggml_conv_2d_dw_direct.cold.1, symObjAddr: 0x13A18, symBinAddr: 0x147EB8, symSize: 0x28 }
  - { offset: 0x1E6215, size: 0x8, addend: 0x0, symName: _ggml_conv_2d_dw_direct.cold.2, symObjAddr: 0x13A40, symBinAddr: 0x147EE0, symSize: 0x28 }
  - { offset: 0x1E622D, size: 0x8, addend: 0x0, symName: _ggml_conv_2d_dw_direct.cold.4, symObjAddr: 0x13A90, symBinAddr: 0x147F30, symSize: 0x10 }
  - { offset: 0x1E6245, size: 0x8, addend: 0x0, symName: _ggml_conv_2d_dw_direct.cold.3, symObjAddr: 0x13A68, symBinAddr: 0x147F08, symSize: 0x28 }
  - { offset: 0x1E625D, size: 0x8, addend: 0x0, symName: _ggml_conv_2d_direct, symObjAddr: 0x94E0, symBinAddr: 0x83F58, symSize: 0x130 }
  - { offset: 0x1E64C0, size: 0x8, addend: 0x0, symName: _ggml_conv_2d_direct.cold.1, symObjAddr: 0x13AA0, symBinAddr: 0x147F40, symSize: 0x28 }
  - { offset: 0x1E64D8, size: 0x8, addend: 0x0, symName: _ggml_conv_3d_direct, symObjAddr: 0x9610, symBinAddr: 0x84088, symSize: 0x1BC }
  - { offset: 0x1E6877, size: 0x8, addend: 0x0, symName: _ggml_conv_3d_direct.cold.1, symObjAddr: 0x13AC8, symBinAddr: 0x147F68, symSize: 0x28 }
  - { offset: 0x1E688F, size: 0x8, addend: 0x0, symName: _ggml_conv_3d_direct.cold.2, symObjAddr: 0x13AF0, symBinAddr: 0x147F90, symSize: 0x28 }
  - { offset: 0x1E68EA, size: 0x8, addend: 0x0, symName: _ggml_conv_transpose_2d_p0, symObjAddr: 0x97CC, symBinAddr: 0x84244, symSize: 0xC4 }
  - { offset: 0x1E6A73, size: 0x8, addend: 0x0, symName: _ggml_conv_transpose_2d_p0.cold.1, symObjAddr: 0x13B18, symBinAddr: 0x147FB8, symSize: 0x28 }
  - { offset: 0x1E6ACE, size: 0x8, addend: 0x0, symName: _ggml_pool_1d, symObjAddr: 0x9890, symBinAddr: 0x84308, symSize: 0xF4 }
  - { offset: 0x1E6C5F, size: 0x8, addend: 0x0, symName: _ggml_pool_1d.cold.1, symObjAddr: 0x13B40, symBinAddr: 0x147FE0, symSize: 0x28 }
  - { offset: 0x1E6C77, size: 0x8, addend: 0x0, symName: _ggml_pool_1d.cold.2, symObjAddr: 0x13B68, symBinAddr: 0x148008, symSize: 0x10 }
  - { offset: 0x1E6C8F, size: 0x8, addend: 0x0, symName: _ggml_pool_2d, symObjAddr: 0x9984, symBinAddr: 0x843FC, symSize: 0x134 }
  - { offset: 0x1E6E98, size: 0x8, addend: 0x0, symName: _ggml_pool_2d.cold.1, symObjAddr: 0x13B78, symBinAddr: 0x148018, symSize: 0x28 }
  - { offset: 0x1E6EB0, size: 0x8, addend: 0x0, symName: _ggml_pool_2d.cold.2, symObjAddr: 0x13BA0, symBinAddr: 0x148040, symSize: 0x28 }
  - { offset: 0x1E6EC8, size: 0x8, addend: 0x0, symName: _ggml_pool_2d.cold.3, symObjAddr: 0x13BC8, symBinAddr: 0x148068, symSize: 0x10 }
  - { offset: 0x1E6EE0, size: 0x8, addend: 0x0, symName: _ggml_pool_2d_back, symObjAddr: 0x9AB8, symBinAddr: 0x84530, symSize: 0x9C }
  - { offset: 0x1E6FEA, size: 0x8, addend: 0x0, symName: _ggml_upscale, symObjAddr: 0x9B54, symBinAddr: 0x845CC, symSize: 0xCC }
  - { offset: 0x1E6FF5, size: 0x8, addend: 0x0, symName: _ggml_pool_2d_back.cold.1, symObjAddr: 0x13BD8, symBinAddr: 0x148078, symSize: 0x10 }
  - { offset: 0x1E7084, size: 0x8, addend: 0x0, symName: _ggml_upscale, symObjAddr: 0x9B54, symBinAddr: 0x845CC, symSize: 0xCC }
  - { offset: 0x1E7241, size: 0x8, addend: 0x0, symName: _ggml_upscale.cold.1, symObjAddr: 0x13BE8, symBinAddr: 0x148088, symSize: 0x28 }
  - { offset: 0x1E7259, size: 0x8, addend: 0x0, symName: _ggml_upscale.cold.2, symObjAddr: 0x13C10, symBinAddr: 0x1480B0, symSize: 0x10 }
  - { offset: 0x1E7271, size: 0x8, addend: 0x0, symName: _ggml_upscale.cold.3, symObjAddr: 0x13C20, symBinAddr: 0x1480C0, symSize: 0x10 }
  - { offset: 0x1E7289, size: 0x8, addend: 0x0, symName: _ggml_upscale.cold.4, symObjAddr: 0x13C30, symBinAddr: 0x1480D0, symSize: 0x10 }
  - { offset: 0x1E72A1, size: 0x8, addend: 0x0, symName: _ggml_upscale_ext, symObjAddr: 0x9C20, symBinAddr: 0x84698, symSize: 0xBC }
  - { offset: 0x1E748F, size: 0x8, addend: 0x0, symName: _ggml_upscale_ext.cold.1, symObjAddr: 0x13C40, symBinAddr: 0x1480E0, symSize: 0x10 }
  - { offset: 0x1E74A7, size: 0x8, addend: 0x0, symName: _ggml_upscale_ext.cold.2, symObjAddr: 0x13C50, symBinAddr: 0x1480F0, symSize: 0x10 }
  - { offset: 0x1E74BF, size: 0x8, addend: 0x0, symName: _ggml_upscale_ext.cold.3, symObjAddr: 0x13C60, symBinAddr: 0x148100, symSize: 0x10 }
  - { offset: 0x1E74D7, size: 0x8, addend: 0x0, symName: _ggml_interpolate, symObjAddr: 0x9CDC, symBinAddr: 0x84754, symSize: 0xAC }
  - { offset: 0x1E76A5, size: 0x8, addend: 0x0, symName: _ggml_interpolate.cold.1, symObjAddr: 0x13C70, symBinAddr: 0x148110, symSize: 0x10 }
  - { offset: 0x1E76BD, size: 0x8, addend: 0x0, symName: _ggml_interpolate.cold.2, symObjAddr: 0x13C80, symBinAddr: 0x148120, symSize: 0x10 }
  - { offset: 0x1E76D5, size: 0x8, addend: 0x0, symName: _ggml_interpolate.cold.3, symObjAddr: 0x13C90, symBinAddr: 0x148130, symSize: 0x10 }
  - { offset: 0x1E778B, size: 0x8, addend: 0x0, symName: _ggml_pad, symObjAddr: 0x9D88, symBinAddr: 0x84800, symSize: 0xC8 }
  - { offset: 0x1E79CA, size: 0x8, addend: 0x0, symName: _ggml_pad_ext, symObjAddr: 0x9E50, symBinAddr: 0x848C8, symSize: 0xFC }
  - { offset: 0x1E7C6F, size: 0x8, addend: 0x0, symName: _ggml_pad_circular, symObjAddr: 0x9F4C, symBinAddr: 0x849C4, symSize: 0xCC }
  - { offset: 0x1E7F1D, size: 0x8, addend: 0x0, symName: _ggml_pad_ext_circular, symObjAddr: 0xA018, symBinAddr: 0x84A90, symSize: 0x100 }
  - { offset: 0x1E8187, size: 0x8, addend: 0x0, symName: _ggml_pad_reflect_1d, symObjAddr: 0xA118, symBinAddr: 0x84B90, symSize: 0x168 }
  - { offset: 0x1E840B, size: 0x8, addend: 0x0, symName: _ggml_pad_reflect_1d.cold.5, symObjAddr: 0x13D40, symBinAddr: 0x1481E0, symSize: 0x20 }
  - { offset: 0x1E8423, size: 0x8, addend: 0x0, symName: _ggml_pad_reflect_1d.cold.1, symObjAddr: 0x13CA0, symBinAddr: 0x148140, symSize: 0x28 }
  - { offset: 0x1E843B, size: 0x8, addend: 0x0, symName: _ggml_pad_reflect_1d.cold.2, symObjAddr: 0x13CC8, symBinAddr: 0x148168, symSize: 0x28 }
  - { offset: 0x1E8453, size: 0x8, addend: 0x0, symName: _ggml_pad_reflect_1d.cold.3, symObjAddr: 0x13CF0, symBinAddr: 0x148190, symSize: 0x28 }
  - { offset: 0x1E846B, size: 0x8, addend: 0x0, symName: _ggml_pad_reflect_1d.cold.4, symObjAddr: 0x13D18, symBinAddr: 0x1481B8, symSize: 0x28 }
  - { offset: 0x1E8483, size: 0x8, addend: 0x0, symName: _ggml_pad_reflect_1d.cold.6, symObjAddr: 0x13D60, symBinAddr: 0x148200, symSize: 0x20 }
  - { offset: 0x1E849B, size: 0x8, addend: 0x0, symName: _ggml_pad_reflect_1d.cold.7, symObjAddr: 0x13D80, symBinAddr: 0x148220, symSize: 0x10 }
  - { offset: 0x1E84B3, size: 0x8, addend: 0x0, symName: _ggml_roll, symObjAddr: 0xA280, symBinAddr: 0x84CF8, symSize: 0xEC }
  - { offset: 0x1E86A8, size: 0x8, addend: 0x0, symName: _ggml_timestep_embedding, symObjAddr: 0xA36C, symBinAddr: 0x84DE4, symSize: 0x94 }
  - { offset: 0x1E86B3, size: 0x8, addend: 0x0, symName: _ggml_roll.cold.1, symObjAddr: 0x13D90, symBinAddr: 0x148230, symSize: 0x28 }
  - { offset: 0x1E86CB, size: 0x8, addend: 0x0, symName: _ggml_roll.cold.2, symObjAddr: 0x13DB8, symBinAddr: 0x148258, symSize: 0x28 }
  - { offset: 0x1E86E3, size: 0x8, addend: 0x0, symName: _ggml_roll.cold.3, symObjAddr: 0x13DE0, symBinAddr: 0x148280, symSize: 0x28 }
  - { offset: 0x1E86FB, size: 0x8, addend: 0x0, symName: _ggml_roll.cold.4, symObjAddr: 0x13E08, symBinAddr: 0x1482A8, symSize: 0x28 }
  - { offset: 0x1E8713, size: 0x8, addend: 0x0, symName: _ggml_roll.cold.5, symObjAddr: 0x13E30, symBinAddr: 0x1482D0, symSize: 0x28 }
  - { offset: 0x1E872B, size: 0x8, addend: 0x0, symName: _ggml_timestep_embedding, symObjAddr: 0xA36C, symBinAddr: 0x84DE4, symSize: 0x94 }
  - { offset: 0x1E8867, size: 0x8, addend: 0x0, symName: _ggml_tri, symObjAddr: 0xA400, symBinAddr: 0x84E78, symSize: 0xCC }
  - { offset: 0x1E8A21, size: 0x8, addend: 0x0, symName: _ggml_fill, symObjAddr: 0xA4CC, symBinAddr: 0x84F44, symSize: 0x8 }
  - { offset: 0x1E8A2C, size: 0x8, addend: 0x0, symName: _ggml_tri.cold.2, symObjAddr: 0x13E78, symBinAddr: 0x148318, symSize: 0x20 }
  - { offset: 0x1E8A44, size: 0x8, addend: 0x0, symName: _ggml_tri.cold.1, symObjAddr: 0x13E58, symBinAddr: 0x1482F8, symSize: 0x20 }
  - { offset: 0x1E8A5C, size: 0x8, addend: 0x0, symName: _ggml_tri.cold.3, symObjAddr: 0x13E98, symBinAddr: 0x148338, symSize: 0x28 }
  - { offset: 0x1E8A74, size: 0x8, addend: 0x0, symName: _ggml_fill, symObjAddr: 0xA4CC, symBinAddr: 0x84F44, symSize: 0x8 }
  - { offset: 0x1E8AED, size: 0x8, addend: 0x0, symName: _ggml_fill_impl, symObjAddr: 0xA4D4, symBinAddr: 0x84F4C, symSize: 0x120 }
  - { offset: 0x1E8D0D, size: 0x8, addend: 0x0, symName: _ggml_fill_inplace, symObjAddr: 0xA5F4, symBinAddr: 0x8506C, symSize: 0x8 }
  - { offset: 0x1E8D18, size: 0x8, addend: 0x0, symName: _ggml_fill_impl.cold.2, symObjAddr: 0x13EE0, symBinAddr: 0x148380, symSize: 0x20 }
  - { offset: 0x1E8D30, size: 0x8, addend: 0x0, symName: _ggml_fill_impl.cold.1, symObjAddr: 0x13EC0, symBinAddr: 0x148360, symSize: 0x20 }
  - { offset: 0x1E8D48, size: 0x8, addend: 0x0, symName: _ggml_fill_inplace, symObjAddr: 0xA5F4, symBinAddr: 0x8506C, symSize: 0x8 }
  - { offset: 0x1E8DC1, size: 0x8, addend: 0x0, symName: _ggml_argsort, symObjAddr: 0xA5FC, symBinAddr: 0x85074, symSize: 0x58 }
  - { offset: 0x1E8E8F, size: 0x8, addend: 0x0, symName: _ggml_argsort_top_k, symObjAddr: 0xA654, symBinAddr: 0x850CC, symSize: 0x120 }
  - { offset: 0x1E8E9A, size: 0x8, addend: 0x0, symName: _ggml_argsort.cold.1, symObjAddr: 0x13F00, symBinAddr: 0x1483A0, symSize: 0x28 }
  - { offset: 0x1E8FA0, size: 0x8, addend: 0x0, symName: _ggml_argsort_top_k, symObjAddr: 0xA654, symBinAddr: 0x850CC, symSize: 0x120 }
  - { offset: 0x1E91DD, size: 0x8, addend: 0x0, symName: _ggml_argsort_top_k.cold.3, symObjAddr: 0x13F60, symBinAddr: 0x148400, symSize: 0x28 }
  - { offset: 0x1E91F5, size: 0x8, addend: 0x0, symName: _ggml_argsort_top_k.cold.1, symObjAddr: 0x13F28, symBinAddr: 0x1483C8, symSize: 0x28 }
  - { offset: 0x1E9224, size: 0x8, addend: 0x0, symName: _ggml_argsort_top_k.cold.2, symObjAddr: 0x13F50, symBinAddr: 0x1483F0, symSize: 0x10 }
  - { offset: 0x1E923C, size: 0x8, addend: 0x0, symName: _ggml_top_k, symObjAddr: 0xA774, symBinAddr: 0x851EC, symSize: 0x9C }
  - { offset: 0x1E934E, size: 0x8, addend: 0x0, symName: _ggml_top_k.cold.1, symObjAddr: 0x13F88, symBinAddr: 0x148428, symSize: 0x28 }
  - { offset: 0x1E9366, size: 0x8, addend: 0x0, symName: _ggml_arange, symObjAddr: 0xA810, symBinAddr: 0x85288, symSize: 0x78 }
  - { offset: 0x1E94DD, size: 0x8, addend: 0x0, symName: _ggml_flash_attn_ext, symObjAddr: 0xA888, symBinAddr: 0x85300, symSize: 0x1D0 }
  - { offset: 0x1E94E8, size: 0x8, addend: 0x0, symName: _ggml_arange.cold.1, symObjAddr: 0x13FB0, symBinAddr: 0x148450, symSize: 0x28 }
  - { offset: 0x1E9500, size: 0x8, addend: 0x0, symName: _ggml_flash_attn_ext, symObjAddr: 0xA888, symBinAddr: 0x85300, symSize: 0x1D0 }
  - { offset: 0x1E9787, size: 0x8, addend: 0x0, symName: _ggml_flash_attn_ext_set_prec, symObjAddr: 0xAA58, symBinAddr: 0x854D0, symSize: 0x20 }
  - { offset: 0x1E9792, size: 0x8, addend: 0x0, symName: _ggml_flash_attn_ext.cold.7, symObjAddr: 0x140C8, symBinAddr: 0x148568, symSize: 0x28 }
  - { offset: 0x1E97AA, size: 0x8, addend: 0x0, symName: _ggml_flash_attn_ext.cold.1, symObjAddr: 0x13FD8, symBinAddr: 0x148478, symSize: 0x28 }
  - { offset: 0x1E97C2, size: 0x8, addend: 0x0, symName: _ggml_flash_attn_ext.cold.5, symObjAddr: 0x14078, symBinAddr: 0x148518, symSize: 0x28 }
  - { offset: 0x1E97DA, size: 0x8, addend: 0x0, symName: _ggml_flash_attn_ext.cold.2, symObjAddr: 0x14000, symBinAddr: 0x1484A0, symSize: 0x28 }
  - { offset: 0x1E97F2, size: 0x8, addend: 0x0, symName: _ggml_flash_attn_ext.cold.3, symObjAddr: 0x14028, symBinAddr: 0x1484C8, symSize: 0x28 }
  - { offset: 0x1E980A, size: 0x8, addend: 0x0, symName: _ggml_flash_attn_ext.cold.9, symObjAddr: 0x14118, symBinAddr: 0x1485B8, symSize: 0x10 }
  - { offset: 0x1E9822, size: 0x8, addend: 0x0, symName: _ggml_flash_attn_ext.cold.4, symObjAddr: 0x14050, symBinAddr: 0x1484F0, symSize: 0x28 }
  - { offset: 0x1E983A, size: 0x8, addend: 0x0, symName: _ggml_flash_attn_ext.cold.6, symObjAddr: 0x140A0, symBinAddr: 0x148540, symSize: 0x28 }
  - { offset: 0x1E9852, size: 0x8, addend: 0x0, symName: _ggml_flash_attn_ext.cold.8, symObjAddr: 0x140F0, symBinAddr: 0x148590, symSize: 0x28 }
  - { offset: 0x1E986A, size: 0x8, addend: 0x0, symName: _ggml_flash_attn_ext_set_prec, symObjAddr: 0xAA58, symBinAddr: 0x854D0, symSize: 0x20 }
  - { offset: 0x1E98E6, size: 0x8, addend: 0x0, symName: _ggml_flash_attn_ext_get_prec, symObjAddr: 0xAA78, symBinAddr: 0x854F0, symSize: 0x20 }
  - { offset: 0x1E98F1, size: 0x8, addend: 0x0, symName: _ggml_flash_attn_ext_set_prec.cold.1, symObjAddr: 0x14128, symBinAddr: 0x1485C8, symSize: 0x28 }
  - { offset: 0x1E9909, size: 0x8, addend: 0x0, symName: _ggml_flash_attn_ext_get_prec, symObjAddr: 0xAA78, symBinAddr: 0x854F0, symSize: 0x20 }
  - { offset: 0x1E9970, size: 0x8, addend: 0x0, symName: _ggml_flash_attn_ext_add_sinks, symObjAddr: 0xAA98, symBinAddr: 0x85510, symSize: 0x64 }
  - { offset: 0x1E997B, size: 0x8, addend: 0x0, symName: _ggml_flash_attn_ext_get_prec.cold.1, symObjAddr: 0x14150, symBinAddr: 0x1485F0, symSize: 0x28 }
  - { offset: 0x1E9993, size: 0x8, addend: 0x0, symName: _ggml_flash_attn_ext_add_sinks, symObjAddr: 0xAA98, symBinAddr: 0x85510, symSize: 0x64 }
  - { offset: 0x1E99FA, size: 0x8, addend: 0x0, symName: _ggml_flash_attn_back, symObjAddr: 0xAAFC, symBinAddr: 0x1465C4, symSize: 0x20 }
  - { offset: 0x1E9A05, size: 0x8, addend: 0x0, symName: _ggml_flash_attn_ext_add_sinks.cold.1, symObjAddr: 0x14178, symBinAddr: 0x148618, symSize: 0x28 }
  - { offset: 0x1E9A1D, size: 0x8, addend: 0x0, symName: _ggml_flash_attn_ext_add_sinks.cold.2, symObjAddr: 0x141A0, symBinAddr: 0x148640, symSize: 0x28 }
  - { offset: 0x1E9A35, size: 0x8, addend: 0x0, symName: _ggml_flash_attn_ext_add_sinks.cold.3, symObjAddr: 0x141C8, symBinAddr: 0x148668, symSize: 0x28 }
  - { offset: 0x1E9A4D, size: 0x8, addend: 0x0, symName: _ggml_flash_attn_ext_add_sinks.cold.4, symObjAddr: 0x141F0, symBinAddr: 0x148690, symSize: 0x28 }
  - { offset: 0x1E9A65, size: 0x8, addend: 0x0, symName: _ggml_flash_attn_back, symObjAddr: 0xAAFC, symBinAddr: 0x1465C4, symSize: 0x20 }
  - { offset: 0x1E9AED, size: 0x8, addend: 0x0, symName: _ggml_ssm_conv, symObjAddr: 0xAB1C, symBinAddr: 0x85574, symSize: 0xE0 }
  - { offset: 0x1E9B88, size: 0x8, addend: 0x0, symName: _ggml_ssm_conv, symObjAddr: 0xAB1C, symBinAddr: 0x85574, symSize: 0xE0 }
  - { offset: 0x1E9D56, size: 0x8, addend: 0x0, symName: _ggml_ssm_conv.cold.2, symObjAddr: 0x14240, symBinAddr: 0x1486E0, symSize: 0x28 }
  - { offset: 0x1E9D6E, size: 0x8, addend: 0x0, symName: _ggml_ssm_conv.cold.1, symObjAddr: 0x14218, symBinAddr: 0x1486B8, symSize: 0x28 }
  - { offset: 0x1E9D86, size: 0x8, addend: 0x0, symName: _ggml_ssm_conv.cold.3, symObjAddr: 0x14268, symBinAddr: 0x148708, symSize: 0x28 }
  - { offset: 0x1E9D9E, size: 0x8, addend: 0x0, symName: _ggml_ssm_conv.cold.4, symObjAddr: 0x14290, symBinAddr: 0x148730, symSize: 0x28 }
  - { offset: 0x1E9DB6, size: 0x8, addend: 0x0, symName: _ggml_ssm_scan, symObjAddr: 0xABFC, symBinAddr: 0x85654, symSize: 0x414 }
  - { offset: 0x1EA39D, size: 0x8, addend: 0x0, symName: _ggml_win_part, symObjAddr: 0xB010, symBinAddr: 0x85A68, symSize: 0x104 }
  - { offset: 0x1EA3A8, size: 0x8, addend: 0x0, symName: _ggml_ssm_scan.cold.10, symObjAddr: 0x14420, symBinAddr: 0x1488C0, symSize: 0x28 }
  - { offset: 0x1EA3C0, size: 0x8, addend: 0x0, symName: _ggml_ssm_scan.cold.22, symObjAddr: 0x14600, symBinAddr: 0x148AA0, symSize: 0x28 }
  - { offset: 0x1EA3D8, size: 0x8, addend: 0x0, symName: _ggml_ssm_scan.cold.1, symObjAddr: 0x142B8, symBinAddr: 0x148758, symSize: 0x28 }
  - { offset: 0x1EA3F0, size: 0x8, addend: 0x0, symName: _ggml_ssm_scan.cold.2, symObjAddr: 0x142E0, symBinAddr: 0x148780, symSize: 0x28 }
  - { offset: 0x1EA408, size: 0x8, addend: 0x0, symName: _ggml_ssm_scan.cold.3, symObjAddr: 0x14308, symBinAddr: 0x1487A8, symSize: 0x28 }
  - { offset: 0x1EA420, size: 0x8, addend: 0x0, symName: _ggml_ssm_scan.cold.4, symObjAddr: 0x14330, symBinAddr: 0x1487D0, symSize: 0x28 }
  - { offset: 0x1EA438, size: 0x8, addend: 0x0, symName: _ggml_ssm_scan.cold.5, symObjAddr: 0x14358, symBinAddr: 0x1487F8, symSize: 0x28 }
  - { offset: 0x1EA450, size: 0x8, addend: 0x0, symName: _ggml_ssm_scan.cold.6, symObjAddr: 0x14380, symBinAddr: 0x148820, symSize: 0x28 }
  - { offset: 0x1EA468, size: 0x8, addend: 0x0, symName: _ggml_ssm_scan.cold.7, symObjAddr: 0x143A8, symBinAddr: 0x148848, symSize: 0x28 }
  - { offset: 0x1EA480, size: 0x8, addend: 0x0, symName: _ggml_ssm_scan.cold.8, symObjAddr: 0x143D0, symBinAddr: 0x148870, symSize: 0x28 }
  - { offset: 0x1EA498, size: 0x8, addend: 0x0, symName: _ggml_ssm_scan.cold.9, symObjAddr: 0x143F8, symBinAddr: 0x148898, symSize: 0x28 }
  - { offset: 0x1EA4B0, size: 0x8, addend: 0x0, symName: _ggml_ssm_scan.cold.11, symObjAddr: 0x14448, symBinAddr: 0x1488E8, symSize: 0x28 }
  - { offset: 0x1EA4C8, size: 0x8, addend: 0x0, symName: _ggml_ssm_scan.cold.12, symObjAddr: 0x14470, symBinAddr: 0x148910, symSize: 0x28 }
  - { offset: 0x1EA4E0, size: 0x8, addend: 0x0, symName: _ggml_ssm_scan.cold.13, symObjAddr: 0x14498, symBinAddr: 0x148938, symSize: 0x28 }
  - { offset: 0x1EA4F8, size: 0x8, addend: 0x0, symName: _ggml_ssm_scan.cold.14, symObjAddr: 0x144C0, symBinAddr: 0x148960, symSize: 0x28 }
  - { offset: 0x1EA510, size: 0x8, addend: 0x0, symName: _ggml_ssm_scan.cold.15, symObjAddr: 0x144E8, symBinAddr: 0x148988, symSize: 0x28 }
  - { offset: 0x1EA528, size: 0x8, addend: 0x0, symName: _ggml_ssm_scan.cold.16, symObjAddr: 0x14510, symBinAddr: 0x1489B0, symSize: 0x28 }
  - { offset: 0x1EA540, size: 0x8, addend: 0x0, symName: _ggml_ssm_scan.cold.17, symObjAddr: 0x14538, symBinAddr: 0x1489D8, symSize: 0x28 }
  - { offset: 0x1EA558, size: 0x8, addend: 0x0, symName: _ggml_ssm_scan.cold.18, symObjAddr: 0x14560, symBinAddr: 0x148A00, symSize: 0x28 }
  - { offset: 0x1EA570, size: 0x8, addend: 0x0, symName: _ggml_ssm_scan.cold.19, symObjAddr: 0x14588, symBinAddr: 0x148A28, symSize: 0x28 }
  - { offset: 0x1EA588, size: 0x8, addend: 0x0, symName: _ggml_ssm_scan.cold.20, symObjAddr: 0x145B0, symBinAddr: 0x148A50, symSize: 0x28 }
  - { offset: 0x1EA5A0, size: 0x8, addend: 0x0, symName: _ggml_ssm_scan.cold.21, symObjAddr: 0x145D8, symBinAddr: 0x148A78, symSize: 0x28 }
  - { offset: 0x1EA5B8, size: 0x8, addend: 0x0, symName: _ggml_ssm_scan.cold.23, symObjAddr: 0x14628, symBinAddr: 0x148AC8, symSize: 0x28 }
  - { offset: 0x1EA5D0, size: 0x8, addend: 0x0, symName: _ggml_ssm_scan.cold.24, symObjAddr: 0x14650, symBinAddr: 0x148AF0, symSize: 0x28 }
  - { offset: 0x1EA5E8, size: 0x8, addend: 0x0, symName: _ggml_ssm_scan.cold.25, symObjAddr: 0x14678, symBinAddr: 0x148B18, symSize: 0x28 }
  - { offset: 0x1EA600, size: 0x8, addend: 0x0, symName: _ggml_win_part, symObjAddr: 0xB010, symBinAddr: 0x85A68, symSize: 0x104 }
  - { offset: 0x1EA788, size: 0x8, addend: 0x0, symName: _ggml_win_part.cold.1, symObjAddr: 0x146A0, symBinAddr: 0x148B40, symSize: 0x28 }
  - { offset: 0x1EA7A0, size: 0x8, addend: 0x0, symName: _ggml_win_part.cold.2, symObjAddr: 0x146C8, symBinAddr: 0x148B68, symSize: 0x20 }
  - { offset: 0x1EA7B8, size: 0x8, addend: 0x0, symName: _ggml_win_part.cold.3, symObjAddr: 0x146E8, symBinAddr: 0x148B88, symSize: 0x10 }
  - { offset: 0x1EA7D0, size: 0x8, addend: 0x0, symName: _ggml_win_unpart, symObjAddr: 0xB114, symBinAddr: 0x85B6C, symSize: 0xA4 }
  - { offset: 0x1EA917, size: 0x8, addend: 0x0, symName: _ggml_win_unpart.cold.1, symObjAddr: 0x146F8, symBinAddr: 0x148B98, symSize: 0x20 }
  - { offset: 0x1EA92F, size: 0x8, addend: 0x0, symName: _ggml_win_unpart.cold.2, symObjAddr: 0x14718, symBinAddr: 0x148BB8, symSize: 0x10 }
  - { offset: 0x1EA947, size: 0x8, addend: 0x0, symName: _ggml_get_rel_pos, symObjAddr: 0xB1B8, symBinAddr: 0x85C10, symSize: 0xAC }
  - { offset: 0x1EAA4B, size: 0x8, addend: 0x0, symName: _ggml_get_rel_pos.cold.1, symObjAddr: 0x14728, symBinAddr: 0x148BC8, symSize: 0x28 }
  - { offset: 0x1EAA63, size: 0x8, addend: 0x0, symName: _ggml_get_rel_pos.cold.2, symObjAddr: 0x14750, symBinAddr: 0x148BF0, symSize: 0x28 }
  - { offset: 0x1EAA7B, size: 0x8, addend: 0x0, symName: _ggml_add_rel_pos, symObjAddr: 0xB264, symBinAddr: 0x85CBC, symSize: 0x8 }
  - { offset: 0x1EAB08, size: 0x8, addend: 0x0, symName: _ggml_add_rel_pos_impl, symObjAddr: 0xB26C, symBinAddr: 0x85CC4, symSize: 0x2A4 }
  - { offset: 0x1EAF91, size: 0x8, addend: 0x0, symName: _ggml_add_rel_pos_inplace, symObjAddr: 0xB510, symBinAddr: 0x85F68, symSize: 0x8 }
  - { offset: 0x1EAF9C, size: 0x8, addend: 0x0, symName: _ggml_add_rel_pos_impl.cold.1, symObjAddr: 0x14778, symBinAddr: 0x148C18, symSize: 0x28 }
  - { offset: 0x1EAFB4, size: 0x8, addend: 0x0, symName: _ggml_add_rel_pos_impl.cold.2, symObjAddr: 0x147A0, symBinAddr: 0x148C40, symSize: 0x20 }
  - { offset: 0x1EAFCC, size: 0x8, addend: 0x0, symName: _ggml_add_rel_pos_impl.cold.3, symObjAddr: 0x147C0, symBinAddr: 0x148C60, symSize: 0x28 }
  - { offset: 0x1EAFE4, size: 0x8, addend: 0x0, symName: _ggml_add_rel_pos_impl.cold.4, symObjAddr: 0x147E8, symBinAddr: 0x148C88, symSize: 0x28 }
  - { offset: 0x1EAFFC, size: 0x8, addend: 0x0, symName: _ggml_add_rel_pos_impl.cold.5, symObjAddr: 0x14810, symBinAddr: 0x148CB0, symSize: 0x28 }
  - { offset: 0x1EB014, size: 0x8, addend: 0x0, symName: _ggml_add_rel_pos_impl.cold.6, symObjAddr: 0x14838, symBinAddr: 0x148CD8, symSize: 0x28 }
  - { offset: 0x1EB02C, size: 0x8, addend: 0x0, symName: _ggml_add_rel_pos_impl.cold.7, symObjAddr: 0x14860, symBinAddr: 0x148D00, symSize: 0x28 }
  - { offset: 0x1EB044, size: 0x8, addend: 0x0, symName: _ggml_add_rel_pos_impl.cold.8, symObjAddr: 0x14888, symBinAddr: 0x148D28, symSize: 0x28 }
  - { offset: 0x1EB05C, size: 0x8, addend: 0x0, symName: _ggml_add_rel_pos_impl.cold.9, symObjAddr: 0x148B0, symBinAddr: 0x148D50, symSize: 0x28 }
  - { offset: 0x1EB074, size: 0x8, addend: 0x0, symName: _ggml_add_rel_pos_inplace, symObjAddr: 0xB510, symBinAddr: 0x85F68, symSize: 0x8 }
  - { offset: 0x1EB101, size: 0x8, addend: 0x0, symName: _ggml_rwkv_wkv6, symObjAddr: 0xB518, symBinAddr: 0x85F70, symSize: 0x470 }
  - { offset: 0x1EB755, size: 0x8, addend: 0x0, symName: _ggml_rwkv_wkv6.cold.1, symObjAddr: 0x148D8, symBinAddr: 0x148D78, symSize: 0x28 }
  - { offset: 0x1EB76D, size: 0x8, addend: 0x0, symName: _ggml_rwkv_wkv6.cold.2, symObjAddr: 0x14900, symBinAddr: 0x148DA0, symSize: 0x28 }
  - { offset: 0x1EB785, size: 0x8, addend: 0x0, symName: _ggml_rwkv_wkv6.cold.3, symObjAddr: 0x14928, symBinAddr: 0x148DC8, symSize: 0x28 }
  - { offset: 0x1EB79D, size: 0x8, addend: 0x0, symName: _ggml_rwkv_wkv6.cold.4, symObjAddr: 0x14950, symBinAddr: 0x148DF0, symSize: 0x28 }
  - { offset: 0x1EB7B5, size: 0x8, addend: 0x0, symName: _ggml_rwkv_wkv6.cold.5, symObjAddr: 0x14978, symBinAddr: 0x148E18, symSize: 0x28 }
  - { offset: 0x1EB7CD, size: 0x8, addend: 0x0, symName: _ggml_rwkv_wkv6.cold.6, symObjAddr: 0x149A0, symBinAddr: 0x148E40, symSize: 0x28 }
  - { offset: 0x1EB7E5, size: 0x8, addend: 0x0, symName: _ggml_rwkv_wkv6.cold.7, symObjAddr: 0x149C8, symBinAddr: 0x148E68, symSize: 0x28 }
  - { offset: 0x1EB7FD, size: 0x8, addend: 0x0, symName: _ggml_rwkv_wkv6.cold.8, symObjAddr: 0x149F0, symBinAddr: 0x148E90, symSize: 0x28 }
  - { offset: 0x1EB815, size: 0x8, addend: 0x0, symName: _ggml_rwkv_wkv6.cold.9, symObjAddr: 0x14A18, symBinAddr: 0x148EB8, symSize: 0x28 }
  - { offset: 0x1EB82D, size: 0x8, addend: 0x0, symName: _ggml_rwkv_wkv6.cold.10, symObjAddr: 0x14A40, symBinAddr: 0x148EE0, symSize: 0x28 }
  - { offset: 0x1EB845, size: 0x8, addend: 0x0, symName: _ggml_gated_linear_attn, symObjAddr: 0xB988, symBinAddr: 0x863E0, symSize: 0x3EC }
  - { offset: 0x1EBE01, size: 0x8, addend: 0x0, symName: _ggml_gated_linear_attn.cold.1, symObjAddr: 0x14A68, symBinAddr: 0x148F08, symSize: 0x28 }
  - { offset: 0x1EBE19, size: 0x8, addend: 0x0, symName: _ggml_gated_linear_attn.cold.2, symObjAddr: 0x14A90, symBinAddr: 0x148F30, symSize: 0x28 }
  - { offset: 0x1EBE31, size: 0x8, addend: 0x0, symName: _ggml_gated_linear_attn.cold.3, symObjAddr: 0x14AB8, symBinAddr: 0x148F58, symSize: 0x28 }
  - { offset: 0x1EBE49, size: 0x8, addend: 0x0, symName: _ggml_gated_linear_attn.cold.4, symObjAddr: 0x14AE0, symBinAddr: 0x148F80, symSize: 0x28 }
  - { offset: 0x1EBE61, size: 0x8, addend: 0x0, symName: _ggml_gated_linear_attn.cold.5, symObjAddr: 0x14B08, symBinAddr: 0x148FA8, symSize: 0x28 }
  - { offset: 0x1EBE79, size: 0x8, addend: 0x0, symName: _ggml_gated_linear_attn.cold.6, symObjAddr: 0x14B30, symBinAddr: 0x148FD0, symSize: 0x28 }
  - { offset: 0x1EBE91, size: 0x8, addend: 0x0, symName: _ggml_gated_linear_attn.cold.7, symObjAddr: 0x14B58, symBinAddr: 0x148FF8, symSize: 0x28 }
  - { offset: 0x1EBEA9, size: 0x8, addend: 0x0, symName: _ggml_gated_linear_attn.cold.8, symObjAddr: 0x14B80, symBinAddr: 0x149020, symSize: 0x28 }
  - { offset: 0x1EBEC1, size: 0x8, addend: 0x0, symName: _ggml_gated_linear_attn.cold.9, symObjAddr: 0x14BA8, symBinAddr: 0x149048, symSize: 0x28 }
  - { offset: 0x1EBED9, size: 0x8, addend: 0x0, symName: _ggml_rwkv_wkv7, symObjAddr: 0xBD74, symBinAddr: 0x867CC, symSize: 0x524 }
  - { offset: 0x1EC611, size: 0x8, addend: 0x0, symName: _ggml_rwkv_wkv7.cold.1, symObjAddr: 0x14BD0, symBinAddr: 0x149070, symSize: 0x28 }
  - { offset: 0x1EC629, size: 0x8, addend: 0x0, symName: _ggml_rwkv_wkv7.cold.2, symObjAddr: 0x14BF8, symBinAddr: 0x149098, symSize: 0x28 }
  - { offset: 0x1EC641, size: 0x8, addend: 0x0, symName: _ggml_rwkv_wkv7.cold.3, symObjAddr: 0x14C20, symBinAddr: 0x1490C0, symSize: 0x28 }
  - { offset: 0x1EC659, size: 0x8, addend: 0x0, symName: _ggml_rwkv_wkv7.cold.4, symObjAddr: 0x14C48, symBinAddr: 0x1490E8, symSize: 0x28 }
  - { offset: 0x1EC671, size: 0x8, addend: 0x0, symName: _ggml_rwkv_wkv7.cold.5, symObjAddr: 0x14C70, symBinAddr: 0x149110, symSize: 0x20 }
  - { offset: 0x1EC689, size: 0x8, addend: 0x0, symName: _ggml_rwkv_wkv7.cold.6, symObjAddr: 0x14C90, symBinAddr: 0x149130, symSize: 0x28 }
  - { offset: 0x1EC6A1, size: 0x8, addend: 0x0, symName: _ggml_rwkv_wkv7.cold.7, symObjAddr: 0x14CB8, symBinAddr: 0x149158, symSize: 0x28 }
  - { offset: 0x1EC6B9, size: 0x8, addend: 0x0, symName: _ggml_rwkv_wkv7.cold.8, symObjAddr: 0x14CE0, symBinAddr: 0x149180, symSize: 0x28 }
  - { offset: 0x1EC6D1, size: 0x8, addend: 0x0, symName: _ggml_rwkv_wkv7.cold.9, symObjAddr: 0x14D08, symBinAddr: 0x1491A8, symSize: 0x28 }
  - { offset: 0x1EC6E9, size: 0x8, addend: 0x0, symName: _ggml_rwkv_wkv7.cold.10, symObjAddr: 0x14D30, symBinAddr: 0x1491D0, symSize: 0x28 }
  - { offset: 0x1EC701, size: 0x8, addend: 0x0, symName: _ggml_rwkv_wkv7.cold.11, symObjAddr: 0x14D58, symBinAddr: 0x1491F8, symSize: 0x28 }
  - { offset: 0x1EC719, size: 0x8, addend: 0x0, symName: _ggml_rwkv_wkv7.cold.12, symObjAddr: 0x14D80, symBinAddr: 0x149220, symSize: 0x28 }
  - { offset: 0x1EC813, size: 0x8, addend: 0x0, symName: _ggml_map_custom1, symObjAddr: 0xC298, symBinAddr: 0x86CF0, symSize: 0x7C }
  - { offset: 0x1EC994, size: 0x8, addend: 0x0, symName: _ggml_map_custom1_inplace, symObjAddr: 0xC314, symBinAddr: 0x86D6C, symSize: 0xB0 }
  - { offset: 0x1EC99F, size: 0x8, addend: 0x0, symName: _ggml_map_custom1.cold.1, symObjAddr: 0x14DA8, symBinAddr: 0x149248, symSize: 0x28 }
  - { offset: 0x1EC9CE, size: 0x8, addend: 0x0, symName: _ggml_map_custom1.cold.2, symObjAddr: 0x14DD0, symBinAddr: 0x149270, symSize: 0x10 }
  - { offset: 0x1EC9E6, size: 0x8, addend: 0x0, symName: _ggml_map_custom1_inplace, symObjAddr: 0xC314, symBinAddr: 0x86D6C, symSize: 0xB0 }
  - { offset: 0x1ECB65, size: 0x8, addend: 0x0, symName: _ggml_map_custom2, symObjAddr: 0xC3C4, symBinAddr: 0x86E1C, symSize: 0x88 }
  - { offset: 0x1ECB70, size: 0x8, addend: 0x0, symName: _ggml_map_custom1_inplace.cold.1, symObjAddr: 0x14DE0, symBinAddr: 0x149280, symSize: 0x28 }
  - { offset: 0x1ECC94, size: 0x8, addend: 0x0, symName: _ggml_map_custom2, symObjAddr: 0xC3C4, symBinAddr: 0x86E1C, symSize: 0x88 }
  - { offset: 0x1ECE30, size: 0x8, addend: 0x0, symName: _ggml_map_custom2_inplace, symObjAddr: 0xC44C, symBinAddr: 0x86EA4, symSize: 0xBC }
  - { offset: 0x1ECE3B, size: 0x8, addend: 0x0, symName: _ggml_map_custom2.cold.1, symObjAddr: 0x14E08, symBinAddr: 0x1492A8, symSize: 0x28 }
  - { offset: 0x1ECE6A, size: 0x8, addend: 0x0, symName: _ggml_map_custom2.cold.2, symObjAddr: 0x14E30, symBinAddr: 0x1492D0, symSize: 0x10 }
  - { offset: 0x1ECE82, size: 0x8, addend: 0x0, symName: _ggml_map_custom2_inplace, symObjAddr: 0xC44C, symBinAddr: 0x86EA4, symSize: 0xBC }
  - { offset: 0x1ED01C, size: 0x8, addend: 0x0, symName: _ggml_map_custom3, symObjAddr: 0xC508, symBinAddr: 0x86F60, symSize: 0x90 }
  - { offset: 0x1ED027, size: 0x8, addend: 0x0, symName: _ggml_map_custom2_inplace.cold.1, symObjAddr: 0x14E40, symBinAddr: 0x1492E0, symSize: 0x28 }
  - { offset: 0x1ED15E, size: 0x8, addend: 0x0, symName: _ggml_map_custom3, symObjAddr: 0xC508, symBinAddr: 0x86F60, symSize: 0x90 }
  - { offset: 0x1ED315, size: 0x8, addend: 0x0, symName: _ggml_map_custom3_inplace, symObjAddr: 0xC598, symBinAddr: 0x86FF0, symSize: 0xC4 }
  - { offset: 0x1ED320, size: 0x8, addend: 0x0, symName: _ggml_map_custom3.cold.1, symObjAddr: 0x14E68, symBinAddr: 0x149308, symSize: 0x28 }
  - { offset: 0x1ED34F, size: 0x8, addend: 0x0, symName: _ggml_map_custom3.cold.2, symObjAddr: 0x14E90, symBinAddr: 0x149330, symSize: 0x10 }
  - { offset: 0x1ED367, size: 0x8, addend: 0x0, symName: _ggml_map_custom3_inplace, symObjAddr: 0xC598, symBinAddr: 0x86FF0, symSize: 0xC4 }
  - { offset: 0x1ED51C, size: 0x8, addend: 0x0, symName: _ggml_custom_4d, symObjAddr: 0xC65C, symBinAddr: 0x870B4, symSize: 0xC4 }
  - { offset: 0x1ED527, size: 0x8, addend: 0x0, symName: _ggml_map_custom3_inplace.cold.1, symObjAddr: 0x14EA0, symBinAddr: 0x149340, symSize: 0x28 }
  - { offset: 0x1ED556, size: 0x8, addend: 0x0, symName: _ggml_custom_4d, symObjAddr: 0xC65C, symBinAddr: 0x870B4, symSize: 0xC4 }
  - { offset: 0x1ED763, size: 0x8, addend: 0x0, symName: _ggml_custom_4d.cold.1, symObjAddr: 0x14EC8, symBinAddr: 0x149368, symSize: 0x28 }
  - { offset: 0x1ED77B, size: 0x8, addend: 0x0, symName: _ggml_custom_4d.cold.2, symObjAddr: 0x14EF0, symBinAddr: 0x149390, symSize: 0x10 }
  - { offset: 0x1ED793, size: 0x8, addend: 0x0, symName: _ggml_custom_inplace, symObjAddr: 0xC720, symBinAddr: 0x87178, symSize: 0x138 }
  - { offset: 0x1ED918, size: 0x8, addend: 0x0, symName: _ggml_cross_entropy_loss, symObjAddr: 0xC858, symBinAddr: 0x872B0, symSize: 0x98 }
  - { offset: 0x1ED923, size: 0x8, addend: 0x0, symName: _ggml_custom_inplace.cold.1, symObjAddr: 0x14F00, symBinAddr: 0x1493A0, symSize: 0x28 }
  - { offset: 0x1ED93B, size: 0x8, addend: 0x0, symName: _ggml_cross_entropy_loss, symObjAddr: 0xC858, symBinAddr: 0x872B0, symSize: 0x98 }
  - { offset: 0x1EDA61, size: 0x8, addend: 0x0, symName: _ggml_cross_entropy_loss_back, symObjAddr: 0xC8F0, symBinAddr: 0x87348, symSize: 0xCC }
  - { offset: 0x1EDA6C, size: 0x8, addend: 0x0, symName: _ggml_cross_entropy_loss.cold.1, symObjAddr: 0x14F28, symBinAddr: 0x1493C8, symSize: 0x28 }
  - { offset: 0x1EDA84, size: 0x8, addend: 0x0, symName: _ggml_cross_entropy_loss_back, symObjAddr: 0xC8F0, symBinAddr: 0x87348, symSize: 0xCC }
  - { offset: 0x1EDBD4, size: 0x8, addend: 0x0, symName: _ggml_opt_step_adamw, symObjAddr: 0xC9BC, symBinAddr: 0x87414, symSize: 0x188 }
  - { offset: 0x1EDBDF, size: 0x8, addend: 0x0, symName: _ggml_cross_entropy_loss_back.cold.1, symObjAddr: 0x14F50, symBinAddr: 0x1493F0, symSize: 0x28 }
  - { offset: 0x1EDBF7, size: 0x8, addend: 0x0, symName: _ggml_cross_entropy_loss_back.cold.2, symObjAddr: 0x14F78, symBinAddr: 0x149418, symSize: 0x28 }
  - { offset: 0x1EDC0F, size: 0x8, addend: 0x0, symName: _ggml_opt_step_adamw, symObjAddr: 0xC9BC, symBinAddr: 0x87414, symSize: 0x188 }
  - { offset: 0x1EDDFF, size: 0x8, addend: 0x0, symName: _ggml_opt_step_sgd, symObjAddr: 0xCB44, symBinAddr: 0x8759C, symSize: 0x10C }
  - { offset: 0x1EDE0A, size: 0x8, addend: 0x0, symName: _ggml_opt_step_adamw.cold.1, symObjAddr: 0x14FA0, symBinAddr: 0x149440, symSize: 0x28 }
  - { offset: 0x1EDE22, size: 0x8, addend: 0x0, symName: _ggml_opt_step_adamw.cold.2, symObjAddr: 0x14FC8, symBinAddr: 0x149468, symSize: 0x28 }
  - { offset: 0x1EDE3A, size: 0x8, addend: 0x0, symName: _ggml_opt_step_adamw.cold.3, symObjAddr: 0x14FF0, symBinAddr: 0x149490, symSize: 0x28 }
  - { offset: 0x1EDE52, size: 0x8, addend: 0x0, symName: _ggml_opt_step_adamw.cold.6, symObjAddr: 0x15068, symBinAddr: 0x149508, symSize: 0x28 }
  - { offset: 0x1EDE6A, size: 0x8, addend: 0x0, symName: _ggml_opt_step_adamw.cold.4, symObjAddr: 0x15018, symBinAddr: 0x1494B8, symSize: 0x28 }
  - { offset: 0x1EDE82, size: 0x8, addend: 0x0, symName: _ggml_opt_step_adamw.cold.5, symObjAddr: 0x15040, symBinAddr: 0x1494E0, symSize: 0x28 }
  - { offset: 0x1EDE9A, size: 0x8, addend: 0x0, symName: _ggml_opt_step_sgd, symObjAddr: 0xCB44, symBinAddr: 0x8759C, symSize: 0x10C }
  - { offset: 0x1EDFFE, size: 0x8, addend: 0x0, symName: _ggml_solve_tri, symObjAddr: 0xCC50, symBinAddr: 0x876A8, symSize: 0x1B4 }
  - { offset: 0x1EE009, size: 0x8, addend: 0x0, symName: _ggml_opt_step_sgd.cold.1, symObjAddr: 0x15090, symBinAddr: 0x149530, symSize: 0x28 }
  - { offset: 0x1EE021, size: 0x8, addend: 0x0, symName: _ggml_opt_step_sgd.cold.4, symObjAddr: 0x15108, symBinAddr: 0x1495A8, symSize: 0x28 }
  - { offset: 0x1EE039, size: 0x8, addend: 0x0, symName: _ggml_opt_step_sgd.cold.2, symObjAddr: 0x150B8, symBinAddr: 0x149558, symSize: 0x28 }
  - { offset: 0x1EE051, size: 0x8, addend: 0x0, symName: _ggml_opt_step_sgd.cold.3, symObjAddr: 0x150E0, symBinAddr: 0x149580, symSize: 0x28 }
  - { offset: 0x1EE069, size: 0x8, addend: 0x0, symName: _ggml_solve_tri, symObjAddr: 0xCC50, symBinAddr: 0x876A8, symSize: 0x1B4 }
  - { offset: 0x1EE332, size: 0x8, addend: 0x0, symName: _ggml_solve_tri.cold.7, symObjAddr: 0x15218, symBinAddr: 0x1496B8, symSize: 0x20 }
  - { offset: 0x1EE34A, size: 0x8, addend: 0x0, symName: _ggml_solve_tri.cold.8, symObjAddr: 0x15238, symBinAddr: 0x1496D8, symSize: 0x28 }
  - { offset: 0x1EE362, size: 0x8, addend: 0x0, symName: _ggml_solve_tri.cold.1, symObjAddr: 0x15130, symBinAddr: 0x1495D0, symSize: 0x20 }
  - { offset: 0x1EE37A, size: 0x8, addend: 0x0, symName: _ggml_solve_tri.cold.2, symObjAddr: 0x15150, symBinAddr: 0x1495F0, symSize: 0x28 }
  - { offset: 0x1EE392, size: 0x8, addend: 0x0, symName: _ggml_solve_tri.cold.3, symObjAddr: 0x15178, symBinAddr: 0x149618, symSize: 0x28 }
  - { offset: 0x1EE3AA, size: 0x8, addend: 0x0, symName: _ggml_solve_tri.cold.4, symObjAddr: 0x151A0, symBinAddr: 0x149640, symSize: 0x28 }
  - { offset: 0x1EE3C2, size: 0x8, addend: 0x0, symName: _ggml_solve_tri.cold.5, symObjAddr: 0x151C8, symBinAddr: 0x149668, symSize: 0x28 }
  - { offset: 0x1EE3DA, size: 0x8, addend: 0x0, symName: _ggml_solve_tri.cold.6, symObjAddr: 0x151F0, symBinAddr: 0x149690, symSize: 0x28 }
  - { offset: 0x1EE3F2, size: 0x8, addend: 0x0, symName: _ggml_solve_tri.cold.9, symObjAddr: 0x15260, symBinAddr: 0x149700, symSize: 0x28 }
  - { offset: 0x1EE40A, size: 0x8, addend: 0x0, symName: _ggml_gated_delta_net, symObjAddr: 0xCE04, symBinAddr: 0x8785C, symSize: 0x380 }
  - { offset: 0x1EE98B, size: 0x8, addend: 0x0, symName: _ggml_hash_set_new, symObjAddr: 0xD184, symBinAddr: 0x87BDC, symSize: 0x104 }
  - { offset: 0x1EE996, size: 0x8, addend: 0x0, symName: _ggml_gated_delta_net.cold.4, symObjAddr: 0x15300, symBinAddr: 0x1497A0, symSize: 0x28 }
  - { offset: 0x1EE9AE, size: 0x8, addend: 0x0, symName: _ggml_gated_delta_net.cold.5, symObjAddr: 0x15328, symBinAddr: 0x1497C8, symSize: 0x28 }
  - { offset: 0x1EE9C6, size: 0x8, addend: 0x0, symName: _ggml_gated_delta_net.cold.6, symObjAddr: 0x15350, symBinAddr: 0x1497F0, symSize: 0x28 }
  - { offset: 0x1EE9DE, size: 0x8, addend: 0x0, symName: _ggml_gated_delta_net.cold.7, symObjAddr: 0x15378, symBinAddr: 0x149818, symSize: 0x28 }
  - { offset: 0x1EE9F6, size: 0x8, addend: 0x0, symName: _ggml_gated_delta_net.cold.8, symObjAddr: 0x153A0, symBinAddr: 0x149840, symSize: 0x28 }
  - { offset: 0x1EEA0E, size: 0x8, addend: 0x0, symName: _ggml_gated_delta_net.cold.9, symObjAddr: 0x153C8, symBinAddr: 0x149868, symSize: 0x28 }
  - { offset: 0x1EEA26, size: 0x8, addend: 0x0, symName: _ggml_gated_delta_net.cold.10, symObjAddr: 0x153F0, symBinAddr: 0x149890, symSize: 0x28 }
  - { offset: 0x1EEA3E, size: 0x8, addend: 0x0, symName: _ggml_gated_delta_net.cold.11, symObjAddr: 0x15418, symBinAddr: 0x1498B8, symSize: 0x28 }
  - { offset: 0x1EEA56, size: 0x8, addend: 0x0, symName: _ggml_gated_delta_net.cold.12, symObjAddr: 0x15440, symBinAddr: 0x1498E0, symSize: 0x28 }
  - { offset: 0x1EEA6E, size: 0x8, addend: 0x0, symName: _ggml_gated_delta_net.cold.13, symObjAddr: 0x15468, symBinAddr: 0x149908, symSize: 0x28 }
  - { offset: 0x1EEA86, size: 0x8, addend: 0x0, symName: _ggml_gated_delta_net.cold.14, symObjAddr: 0x15490, symBinAddr: 0x149930, symSize: 0x28 }
  - { offset: 0x1EEA9E, size: 0x8, addend: 0x0, symName: _ggml_gated_delta_net.cold.15, symObjAddr: 0x154B8, symBinAddr: 0x149958, symSize: 0x28 }
  - { offset: 0x1EEAB6, size: 0x8, addend: 0x0, symName: _ggml_gated_delta_net.cold.1, symObjAddr: 0x15288, symBinAddr: 0x149728, symSize: 0x28 }
  - { offset: 0x1EEACE, size: 0x8, addend: 0x0, symName: _ggml_gated_delta_net.cold.2, symObjAddr: 0x152B0, symBinAddr: 0x149750, symSize: 0x28 }
  - { offset: 0x1EEAE6, size: 0x8, addend: 0x0, symName: _ggml_gated_delta_net.cold.3, symObjAddr: 0x152D8, symBinAddr: 0x149778, symSize: 0x28 }
  - { offset: 0x1EEBA1, size: 0x8, addend: 0x0, symName: _ggml_hash_set_new, symObjAddr: 0xD184, symBinAddr: 0x87BDC, symSize: 0x104 }
  - { offset: 0x1EED00, size: 0x8, addend: 0x0, symName: _ggml_hash_size, symObjAddr: 0xD288, symBinAddr: 0x87CE0, symSize: 0x48 }
  - { offset: 0x1EED0B, size: 0x8, addend: 0x0, symName: _ggml_hash_set_new.cold.1, symObjAddr: 0x154E0, symBinAddr: 0x149980, symSize: 0x28 }
  - { offset: 0x1EED45, size: 0x8, addend: 0x0, symName: _ggml_hash_set_new.cold.2, symObjAddr: 0x15508, symBinAddr: 0x1499A8, symSize: 0x38 }
  - { offset: 0x1EED74, size: 0x8, addend: 0x0, symName: _ggml_hash_set_reset, symObjAddr: 0xD2D0, symBinAddr: 0x87D28, symSize: 0x18 }
  - { offset: 0x1EEDB2, size: 0x8, addend: 0x0, symName: _ggml_hash_set_free, symObjAddr: 0xD2E8, symBinAddr: 0x87D40, symSize: 0x28 }
  - { offset: 0x1EEE50, size: 0x8, addend: 0x0, symName: _ggml_build_forward_select, symObjAddr: 0xD310, symBinAddr: 0x87D68, symSize: 0xB4 }
  - { offset: 0x1EEF49, size: 0x8, addend: 0x0, symName: _ggml_build_forward_expand, symObjAddr: 0xD3C4, symBinAddr: 0x87E1C, symSize: 0x58 }
  - { offset: 0x1EEF54, size: 0x8, addend: 0x0, symName: _ggml_visit_parents_graph, symObjAddr: 0x11994, symBinAddr: 0x8C3EC, symSize: 0x4D4 }
  - { offset: 0x1EF322, size: 0x8, addend: 0x0, symName: _ggml_add_or_set, symObjAddr: 0x11E68, symBinAddr: 0x8C8C0, symSize: 0xD4 }
  - { offset: 0x1EF32D, size: 0x8, addend: 0x0, symName: _ggml_build_forward_select.cold.2, symObjAddr: 0x15568, symBinAddr: 0x149A08, symSize: 0x10 }
  - { offset: 0x1EF345, size: 0x8, addend: 0x0, symName: _ggml_build_forward_select.cold.1, symObjAddr: 0x15540, symBinAddr: 0x1499E0, symSize: 0x28 }
  - { offset: 0x1EF35D, size: 0x8, addend: 0x0, symName: _ggml_build_forward_expand, symObjAddr: 0xD3C4, symBinAddr: 0x87E1C, symSize: 0x58 }
  - { offset: 0x1EF3F9, size: 0x8, addend: 0x0, symName: _ggml_build_backward_expand, symObjAddr: 0xD41C, symBinAddr: 0x87E74, symSize: 0x2190 }
  - { offset: 0x1EF404, size: 0x8, addend: 0x0, symName: _ggml_build_forward_expand.cold.1, symObjAddr: 0x15578, symBinAddr: 0x149A18, symSize: 0x10 }
  - { offset: 0x1EFE28, size: 0x8, addend: 0x0, symName: _ggml_build_backward_expand, symObjAddr: 0xD41C, symBinAddr: 0x87E74, symSize: 0x2190 }
  - { offset: 0x1F3557, size: 0x8, addend: 0x0, symName: _ggml_graph_overhead_custom, symObjAddr: 0xF5AC, symBinAddr: 0x8A004, symSize: 0x98 }
  - { offset: 0x1F3562, size: 0x8, addend: 0x0, symName: _ggml_build_backward_expand.cold.5, symObjAddr: 0x15628, symBinAddr: 0x149AC8, symSize: 0x28 }
  - { offset: 0x1F357A, size: 0x8, addend: 0x0, symName: _ggml_add_or_set, symObjAddr: 0x11E68, symBinAddr: 0x8C8C0, symSize: 0xD4 }
  - { offset: 0x1F36A5, size: 0x8, addend: 0x0, symName: _ggml_sub_or_set, symObjAddr: 0x11F3C, symBinAddr: 0x8C994, symSize: 0x134 }
  - { offset: 0x1F36B0, size: 0x8, addend: 0x0, symName: _ggml_sub_or_set, symObjAddr: 0x11F3C, symBinAddr: 0x8C994, symSize: 0x134 }
  - { offset: 0x1F3943, size: 0x8, addend: 0x0, symName: _ggml_add1_or_set, symObjAddr: 0x12070, symBinAddr: 0x8CAC8, symSize: 0xD4 }
  - { offset: 0x1F394E, size: 0x8, addend: 0x0, symName: _ggml_add1_or_set, symObjAddr: 0x12070, symBinAddr: 0x8CAC8, symSize: 0xD4 }
  - { offset: 0x1F3A8F, size: 0x8, addend: 0x0, symName: _ggml_get_unary_op.cold.1, symObjAddr: 0x12144, symBinAddr: 0x1465E4, symSize: 0x28 }
  - { offset: 0x1F3A9A, size: 0x8, addend: 0x0, symName: _ggml_build_backward_expand.cold.25, symObjAddr: 0x15900, symBinAddr: 0x149DA0, symSize: 0x10 }
  - { offset: 0x1F3AB2, size: 0x8, addend: 0x0, symName: _ggml_build_backward_expand.cold.7, symObjAddr: 0x15678, symBinAddr: 0x149B18, symSize: 0x28 }
  - { offset: 0x1F3ACA, size: 0x8, addend: 0x0, symName: _ggml_build_backward_expand.cold.6, symObjAddr: 0x15650, symBinAddr: 0x149AF0, symSize: 0x28 }
  - { offset: 0x1F3AE2, size: 0x8, addend: 0x0, symName: _ggml_build_backward_expand.cold.52, symObjAddr: 0x15BD0, symBinAddr: 0x14A070, symSize: 0x28 }
  - { offset: 0x1F3B11, size: 0x8, addend: 0x0, symName: _ggml_build_backward_expand.cold.53, symObjAddr: 0x15BF8, symBinAddr: 0x14A098, symSize: 0x28 }
  - { offset: 0x1F3B40, size: 0x8, addend: 0x0, symName: _ggml_build_backward_expand.cold.54, symObjAddr: 0x15C20, symBinAddr: 0x14A0C0, symSize: 0x28 }
  - { offset: 0x1F3B6F, size: 0x8, addend: 0x0, symName: _ggml_build_backward_expand.cold.4, symObjAddr: 0x15600, symBinAddr: 0x149AA0, symSize: 0x28 }
  - { offset: 0x1F3B87, size: 0x8, addend: 0x0, symName: _ggml_build_backward_expand.cold.1, symObjAddr: 0x15588, symBinAddr: 0x149A28, symSize: 0x28 }
  - { offset: 0x1F3B9F, size: 0x8, addend: 0x0, symName: _ggml_build_backward_expand.cold.57, symObjAddr: 0x15CAC, symBinAddr: 0x14A14C, symSize: 0x28 }
  - { offset: 0x1F3BB7, size: 0x8, addend: 0x0, symName: _ggml_build_backward_expand.cold.56, symObjAddr: 0x15C84, symBinAddr: 0x14A124, symSize: 0x28 }
  - { offset: 0x1F3BCF, size: 0x8, addend: 0x0, symName: _ggml_build_backward_expand.cold.2, symObjAddr: 0x155B0, symBinAddr: 0x149A50, symSize: 0x28 }
  - { offset: 0x1F3BE7, size: 0x8, addend: 0x0, symName: _ggml_build_backward_expand.cold.3, symObjAddr: 0x155D8, symBinAddr: 0x149A78, symSize: 0x28 }
  - { offset: 0x1F3BFF, size: 0x8, addend: 0x0, symName: _ggml_build_backward_expand.cold.12, symObjAddr: 0x15738, symBinAddr: 0x149BD8, symSize: 0x28 }
  - { offset: 0x1F3C45, size: 0x8, addend: 0x0, symName: _ggml_build_backward_expand.cold.36, symObjAddr: 0x15A58, symBinAddr: 0x149EF8, symSize: 0x10 }
  - { offset: 0x1F3C5D, size: 0x8, addend: 0x0, symName: _ggml_build_backward_expand.cold.47, symObjAddr: 0x15B80, symBinAddr: 0x14A020, symSize: 0x10 }
  - { offset: 0x1F3C75, size: 0x8, addend: 0x0, symName: _ggml_build_backward_expand.cold.49, symObjAddr: 0x15BA0, symBinAddr: 0x14A040, symSize: 0x10 }
  - { offset: 0x1F3C8D, size: 0x8, addend: 0x0, symName: _ggml_build_backward_expand.cold.45, symObjAddr: 0x15B60, symBinAddr: 0x14A000, symSize: 0x10 }
  - { offset: 0x1F3CA5, size: 0x8, addend: 0x0, symName: _ggml_build_backward_expand.cold.8, symObjAddr: 0x156A0, symBinAddr: 0x149B40, symSize: 0x38 }
  - { offset: 0x1F3CFE, size: 0x8, addend: 0x0, symName: _ggml_build_backward_expand.cold.11, symObjAddr: 0x15710, symBinAddr: 0x149BB0, symSize: 0x28 }
  - { offset: 0x1F3D2D, size: 0x8, addend: 0x0, symName: _ggml_build_backward_expand.cold.17, symObjAddr: 0x15808, symBinAddr: 0x149CA8, symSize: 0x28 }
  - { offset: 0x1F3D5C, size: 0x8, addend: 0x0, symName: _ggml_build_backward_expand.cold.16, symObjAddr: 0x157E0, symBinAddr: 0x149C80, symSize: 0x28 }
  - { offset: 0x1F3D8B, size: 0x8, addend: 0x0, symName: _ggml_build_backward_expand.cold.29, symObjAddr: 0x15970, symBinAddr: 0x149E10, symSize: 0x28 }
  - { offset: 0x1F3DBA, size: 0x8, addend: 0x0, symName: _ggml_build_backward_expand.cold.55, symObjAddr: 0x15C48, symBinAddr: 0x14A0E8, symSize: 0x3C }
  - { offset: 0x1F3E09, size: 0x8, addend: 0x0, symName: _ggml_build_backward_expand.cold.24, symObjAddr: 0x158F0, symBinAddr: 0x149D90, symSize: 0x10 }
  - { offset: 0x1F3E21, size: 0x8, addend: 0x0, symName: _ggml_build_backward_expand.cold.9, symObjAddr: 0x156D8, symBinAddr: 0x149B78, symSize: 0x28 }
  - { offset: 0x1F3E50, size: 0x8, addend: 0x0, symName: _ggml_build_backward_expand.cold.14, symObjAddr: 0x157C0, symBinAddr: 0x149C60, symSize: 0x10 }
  - { offset: 0x1F3E68, size: 0x8, addend: 0x0, symName: _ggml_build_backward_expand.cold.15, symObjAddr: 0x157D0, symBinAddr: 0x149C70, symSize: 0x10 }
  - { offset: 0x1F3E80, size: 0x8, addend: 0x0, symName: _ggml_build_backward_expand.cold.30, symObjAddr: 0x15998, symBinAddr: 0x149E38, symSize: 0x28 }
  - { offset: 0x1F3EAF, size: 0x8, addend: 0x0, symName: _ggml_build_backward_expand.cold.37, symObjAddr: 0x15A68, symBinAddr: 0x149F08, symSize: 0x10 }
  - { offset: 0x1F3EC7, size: 0x8, addend: 0x0, symName: _ggml_build_backward_expand.cold.48, symObjAddr: 0x15B90, symBinAddr: 0x14A030, symSize: 0x10 }
  - { offset: 0x1F3EDF, size: 0x8, addend: 0x0, symName: _ggml_build_backward_expand.cold.38, symObjAddr: 0x15A78, symBinAddr: 0x149F18, symSize: 0x28 }
  - { offset: 0x1F3F0E, size: 0x8, addend: 0x0, symName: _ggml_build_backward_expand.cold.39, symObjAddr: 0x15AA0, symBinAddr: 0x149F40, symSize: 0x28 }
  - { offset: 0x1F3F3D, size: 0x8, addend: 0x0, symName: _ggml_build_backward_expand.cold.40, symObjAddr: 0x15AC8, symBinAddr: 0x149F68, symSize: 0x28 }
  - { offset: 0x1F3F6C, size: 0x8, addend: 0x0, symName: _ggml_build_backward_expand.cold.41, symObjAddr: 0x15AF0, symBinAddr: 0x149F90, symSize: 0x28 }
  - { offset: 0x1F3F9B, size: 0x8, addend: 0x0, symName: _ggml_build_backward_expand.cold.51, symObjAddr: 0x15BC0, symBinAddr: 0x14A060, symSize: 0x10 }
  - { offset: 0x1F3FB3, size: 0x8, addend: 0x0, symName: _ggml_build_backward_expand.cold.50, symObjAddr: 0x15BB0, symBinAddr: 0x14A050, symSize: 0x10 }
  - { offset: 0x1F3FCB, size: 0x8, addend: 0x0, symName: _ggml_build_backward_expand.cold.31, symObjAddr: 0x159C0, symBinAddr: 0x149E60, symSize: 0x28 }
  - { offset: 0x1F3FFA, size: 0x8, addend: 0x0, symName: _ggml_build_backward_expand.cold.35, symObjAddr: 0x15A48, symBinAddr: 0x149EE8, symSize: 0x10 }
  - { offset: 0x1F4012, size: 0x8, addend: 0x0, symName: _ggml_build_backward_expand.cold.46, symObjAddr: 0x15B70, symBinAddr: 0x14A010, symSize: 0x10 }
  - { offset: 0x1F402A, size: 0x8, addend: 0x0, symName: _ggml_build_backward_expand.cold.18, symObjAddr: 0x15830, symBinAddr: 0x149CD0, symSize: 0x10 }
  - { offset: 0x1F4042, size: 0x8, addend: 0x0, symName: _ggml_build_backward_expand.cold.19, symObjAddr: 0x15840, symBinAddr: 0x149CE0, symSize: 0x10 }
  - { offset: 0x1F405A, size: 0x8, addend: 0x0, symName: _ggml_build_backward_expand.cold.44, symObjAddr: 0x15B50, symBinAddr: 0x149FF0, symSize: 0x10 }
  - { offset: 0x1F4072, size: 0x8, addend: 0x0, symName: _ggml_build_backward_expand.cold.27, symObjAddr: 0x15920, symBinAddr: 0x149DC0, symSize: 0x28 }
  - { offset: 0x1F40B8, size: 0x8, addend: 0x0, symName: _ggml_build_backward_expand.cold.42, symObjAddr: 0x15B18, symBinAddr: 0x149FB8, symSize: 0x28 }
  - { offset: 0x1F40E7, size: 0x8, addend: 0x0, symName: _ggml_build_backward_expand.cold.43, symObjAddr: 0x15B40, symBinAddr: 0x149FE0, symSize: 0x10 }
  - { offset: 0x1F40FF, size: 0x8, addend: 0x0, symName: _ggml_build_backward_expand.cold.13, symObjAddr: 0x15760, symBinAddr: 0x149C00, symSize: 0x60 }
  - { offset: 0x1F4158, size: 0x8, addend: 0x0, symName: _ggml_build_backward_expand.cold.28, symObjAddr: 0x15948, symBinAddr: 0x149DE8, symSize: 0x28 }
  - { offset: 0x1F4187, size: 0x8, addend: 0x0, symName: _ggml_build_backward_expand.cold.32, symObjAddr: 0x159E8, symBinAddr: 0x149E88, symSize: 0x28 }
  - { offset: 0x1F41B6, size: 0x8, addend: 0x0, symName: _ggml_build_backward_expand.cold.10, symObjAddr: 0x15700, symBinAddr: 0x149BA0, symSize: 0x10 }
  - { offset: 0x1F41CE, size: 0x8, addend: 0x0, symName: _ggml_build_backward_expand.cold.33, symObjAddr: 0x15A10, symBinAddr: 0x149EB0, symSize: 0x28 }
  - { offset: 0x1F41FD, size: 0x8, addend: 0x0, symName: _ggml_build_backward_expand.cold.34, symObjAddr: 0x15A38, symBinAddr: 0x149ED8, symSize: 0x10 }
  - { offset: 0x1F4215, size: 0x8, addend: 0x0, symName: _ggml_build_backward_expand.cold.26, symObjAddr: 0x15910, symBinAddr: 0x149DB0, symSize: 0x10 }
  - { offset: 0x1F422D, size: 0x8, addend: 0x0, symName: _ggml_build_backward_expand.cold.20, symObjAddr: 0x15850, symBinAddr: 0x149CF0, symSize: 0x28 }
  - { offset: 0x1F425C, size: 0x8, addend: 0x0, symName: _ggml_build_backward_expand.cold.21, symObjAddr: 0x15878, symBinAddr: 0x149D18, symSize: 0x28 }
  - { offset: 0x1F428B, size: 0x8, addend: 0x0, symName: _ggml_build_backward_expand.cold.22, symObjAddr: 0x158A0, symBinAddr: 0x149D40, symSize: 0x28 }
  - { offset: 0x1F42BA, size: 0x8, addend: 0x0, symName: _ggml_build_backward_expand.cold.23, symObjAddr: 0x158C8, symBinAddr: 0x149D68, symSize: 0x28 }
  - { offset: 0x1F437C, size: 0x8, addend: 0x0, symName: _ggml_graph_overhead_custom, symObjAddr: 0xF5AC, symBinAddr: 0x8A004, symSize: 0x98 }
  - { offset: 0x1F44E0, size: 0x8, addend: 0x0, symName: _ggml_graph_overhead, symObjAddr: 0xF644, symBinAddr: 0x8A09C, symSize: 0x70 }
  - { offset: 0x1F4635, size: 0x8, addend: 0x0, symName: _ggml_new_graph_custom, symObjAddr: 0xF6B4, symBinAddr: 0x8A10C, symSize: 0x1A0 }
  - { offset: 0x1F49A7, size: 0x8, addend: 0x0, symName: _ggml_new_graph, symObjAddr: 0xF854, symBinAddr: 0x8A2AC, symSize: 0xC }
  - { offset: 0x1F49F7, size: 0x8, addend: 0x0, symName: _ggml_graph_view, symObjAddr: 0xF860, symBinAddr: 0x8A2B8, symSize: 0x3C }
  - { offset: 0x1F4AB5, size: 0x8, addend: 0x0, symName: _ggml_graph_cpy, symObjAddr: 0xF89C, symBinAddr: 0x8A2F4, symSize: 0x368 }
  - { offset: 0x1F4E40, size: 0x8, addend: 0x0, symName: _ggml_graph_dup, symObjAddr: 0xFC04, symBinAddr: 0x8A65C, symSize: 0x44 }
  - { offset: 0x1F4E4B, size: 0x8, addend: 0x0, symName: _ggml_graph_cpy.cold.1, symObjAddr: 0x15CD4, symBinAddr: 0x14A174, symSize: 0x20 }
  - { offset: 0x1F4E7A, size: 0x8, addend: 0x0, symName: _ggml_graph_cpy.cold.5, symObjAddr: 0x15D6C, symBinAddr: 0x14A20C, symSize: 0x28 }
  - { offset: 0x1F4E92, size: 0x8, addend: 0x0, symName: _ggml_graph_cpy.cold.4, symObjAddr: 0x15D44, symBinAddr: 0x14A1E4, symSize: 0x28 }
  - { offset: 0x1F4EAA, size: 0x8, addend: 0x0, symName: _ggml_graph_cpy.cold.3, symObjAddr: 0x15D1C, symBinAddr: 0x14A1BC, symSize: 0x28 }
  - { offset: 0x1F4EC2, size: 0x8, addend: 0x0, symName: _ggml_graph_cpy.cold.2, symObjAddr: 0x15CF4, symBinAddr: 0x14A194, symSize: 0x28 }
  - { offset: 0x1F4EDA, size: 0x8, addend: 0x0, symName: _ggml_graph_cpy.cold.10, symObjAddr: 0x15E34, symBinAddr: 0x14A2D4, symSize: 0x28 }
  - { offset: 0x1F4EF2, size: 0x8, addend: 0x0, symName: _ggml_graph_cpy.cold.9, symObjAddr: 0x15E0C, symBinAddr: 0x14A2AC, symSize: 0x28 }
  - { offset: 0x1F4F0A, size: 0x8, addend: 0x0, symName: _ggml_graph_cpy.cold.8, symObjAddr: 0x15DE4, symBinAddr: 0x14A284, symSize: 0x28 }
  - { offset: 0x1F4F22, size: 0x8, addend: 0x0, symName: _ggml_graph_cpy.cold.7, symObjAddr: 0x15DBC, symBinAddr: 0x14A25C, symSize: 0x28 }
  - { offset: 0x1F4F3A, size: 0x8, addend: 0x0, symName: _ggml_graph_cpy.cold.6, symObjAddr: 0x15D94, symBinAddr: 0x14A234, symSize: 0x28 }
  - { offset: 0x1F4F52, size: 0x8, addend: 0x0, symName: _ggml_graph_dup, symObjAddr: 0xFC04, symBinAddr: 0x8A65C, symSize: 0x44 }
  - { offset: 0x1F4FE6, size: 0x8, addend: 0x0, symName: _ggml_set_zero, symObjAddr: 0xFC48, symBinAddr: 0x8A6A0, symSize: 0x168 }
  - { offset: 0x1F5195, size: 0x8, addend: 0x0, symName: _ggml_graph_reset, symObjAddr: 0xFDB0, symBinAddr: 0x8A808, symSize: 0x190 }
  - { offset: 0x1F51C1, size: 0x8, addend: 0x0, symName: _ggml_set_zero.cold.1, symObjAddr: 0x15E5C, symBinAddr: 0x14A2FC, symSize: 0x28 }
  - { offset: 0x1F520F, size: 0x8, addend: 0x0, symName: _ggml_graph_reset, symObjAddr: 0xFDB0, symBinAddr: 0x8A808, symSize: 0x190 }
  - { offset: 0x1F53EC, size: 0x8, addend: 0x0, symName: _ggml_graph_get_grad_acc, symObjAddr: 0xFF40, symBinAddr: 0x8A998, symSize: 0x6C }
  - { offset: 0x1F5418, size: 0x8, addend: 0x0, symName: _ggml_graph_reset.cold.2, symObjAddr: 0x15EAC, symBinAddr: 0x14A34C, symSize: 0x28 }
  - { offset: 0x1F5430, size: 0x8, addend: 0x0, symName: _ggml_graph_reset.cold.1, symObjAddr: 0x15E84, symBinAddr: 0x14A324, symSize: 0x28 }
  - { offset: 0x1F5448, size: 0x8, addend: 0x0, symName: _ggml_graph_reset.cold.3, symObjAddr: 0x15ED4, symBinAddr: 0x14A374, symSize: 0x28 }
  - { offset: 0x1F5460, size: 0x8, addend: 0x0, symName: _ggml_graph_reset.cold.4, symObjAddr: 0x15EFC, symBinAddr: 0x14A39C, symSize: 0x28 }
  - { offset: 0x1F5478, size: 0x8, addend: 0x0, symName: _ggml_graph_get_grad_acc, symObjAddr: 0xFF40, symBinAddr: 0x8A998, symSize: 0x6C }
  - { offset: 0x1F54AC, size: 0x8, addend: 0x0, symName: _ggml_graph_get_grad_acc, symObjAddr: 0xFF40, symBinAddr: 0x8A998, symSize: 0x6C }
  - { offset: 0x1F54E8, size: 0x8, addend: 0x0, symName: _ggml_graph_get_grad_acc, symObjAddr: 0xFF40, symBinAddr: 0x8A998, symSize: 0x6C }
  - { offset: 0x1F552C, size: 0x8, addend: 0x0, symName: _ggml_graph_clear, symObjAddr: 0xFFAC, symBinAddr: 0x8AA04, symSize: 0x1C }
  - { offset: 0x1F5595, size: 0x8, addend: 0x0, symName: _ggml_graph_size, symObjAddr: 0xFFC8, symBinAddr: 0x8AA20, symSize: 0x8 }
  - { offset: 0x1F55C2, size: 0x8, addend: 0x0, symName: _ggml_graph_node, symObjAddr: 0xFFD0, symBinAddr: 0x8AA28, symSize: 0x38 }
  - { offset: 0x1F5611, size: 0x8, addend: 0x0, symName: _ggml_graph_nodes, symObjAddr: 0x10008, symBinAddr: 0x8AA60, symSize: 0x8 }
  - { offset: 0x1F561C, size: 0x8, addend: 0x0, symName: _ggml_graph_node.cold.1, symObjAddr: 0x15F24, symBinAddr: 0x14A3C4, symSize: 0x28 }
  - { offset: 0x1F5634, size: 0x8, addend: 0x0, symName: _ggml_graph_node.cold.2, symObjAddr: 0x15F4C, symBinAddr: 0x14A3EC, symSize: 0x28 }
  - { offset: 0x1F564C, size: 0x8, addend: 0x0, symName: _ggml_graph_nodes, symObjAddr: 0x10008, symBinAddr: 0x8AA60, symSize: 0x8 }
  - { offset: 0x1F5679, size: 0x8, addend: 0x0, symName: _ggml_graph_n_nodes, symObjAddr: 0x10010, symBinAddr: 0x8AA68, symSize: 0x8 }
  - { offset: 0x1F56A6, size: 0x8, addend: 0x0, symName: _ggml_graph_add_node, symObjAddr: 0x10018, symBinAddr: 0x8AA70, symSize: 0x30 }
  - { offset: 0x1F56E3, size: 0x8, addend: 0x0, symName: _ggml_graph_get_tensor, symObjAddr: 0x10048, symBinAddr: 0x8AAA0, symSize: 0xAC }
  - { offset: 0x1F56EE, size: 0x8, addend: 0x0, symName: _ggml_graph_add_node.cold.1, symObjAddr: 0x15F74, symBinAddr: 0x14A414, symSize: 0x28 }
  - { offset: 0x1F5706, size: 0x8, addend: 0x0, symName: _ggml_graph_get_tensor, symObjAddr: 0x10048, symBinAddr: 0x8AAA0, symSize: 0xAC }
  - { offset: 0x1F5800, size: 0x8, addend: 0x0, symName: _ggml_graph_get_grad, symObjAddr: 0x100F4, symBinAddr: 0x8AB4C, symSize: 0x6C }
  - { offset: 0x1F5834, size: 0x8, addend: 0x0, symName: _ggml_graph_get_grad, symObjAddr: 0x100F4, symBinAddr: 0x8AB4C, symSize: 0x6C }
  - { offset: 0x1F5870, size: 0x8, addend: 0x0, symName: _ggml_graph_get_grad, symObjAddr: 0x100F4, symBinAddr: 0x8AB4C, symSize: 0x6C }
  - { offset: 0x1F58D0, size: 0x8, addend: 0x0, symName: _ggml_graph_print, symObjAddr: 0x10160, symBinAddr: 0x8ABB8, symSize: 0x1D8 }
  - { offset: 0x1F5B92, size: 0x8, addend: 0x0, symName: _ggml_can_fuse_subgraph_ext, symObjAddr: 0x10338, symBinAddr: 0x8AD90, symSize: 0x22C }
  - { offset: 0x1F5E66, size: 0x8, addend: 0x0, symName: _ggml_graph_dump_dot, symObjAddr: 0x10564, symBinAddr: 0x8AFBC, symSize: 0xA30 }
  - { offset: 0x1F5E71, size: 0x8, addend: 0x0, symName: _ggml_can_fuse_subgraph_ext.cold.1, symObjAddr: 0x15F9C, symBinAddr: 0x14A43C, symSize: 0x28 }
  - { offset: 0x1F5E89, size: 0x8, addend: 0x0, symName: _ggml_can_fuse_subgraph_ext.cold.2, symObjAddr: 0x15FC4, symBinAddr: 0x14A464, symSize: 0x28 }
  - { offset: 0x1F604D, size: 0x8, addend: 0x0, symName: _ggml_graph_dump_dot, symObjAddr: 0x10564, symBinAddr: 0x8AFBC, symSize: 0xA30 }
  - { offset: 0x1F6A95, size: 0x8, addend: 0x0, symName: _ggml_graph_dump_dot.cold.1, symObjAddr: 0x15FEC, symBinAddr: 0x14A48C, symSize: 0x28 }
  - { offset: 0x1F6AAD, size: 0x8, addend: 0x0, symName: _ggml_set_input, symObjAddr: 0x10F94, symBinAddr: 0x8B9EC, symSize: 0x10 }
  - { offset: 0x1F6AD4, size: 0x8, addend: 0x0, symName: _ggml_set_output, symObjAddr: 0x10FA4, symBinAddr: 0x8B9FC, symSize: 0x10 }
  - { offset: 0x1F6AFB, size: 0x8, addend: 0x0, symName: _ggml_set_param, symObjAddr: 0x10FB4, symBinAddr: 0x8BA0C, symSize: 0x24 }
  - { offset: 0x1F6B27, size: 0x8, addend: 0x0, symName: _ggml_set_loss, symObjAddr: 0x10FD8, symBinAddr: 0x8BA30, symSize: 0x5C }
  - { offset: 0x1F6B32, size: 0x8, addend: 0x0, symName: _ggml_set_param.cold.1, symObjAddr: 0x16014, symBinAddr: 0x14A4B4, symSize: 0x28 }
  - { offset: 0x1F6B4A, size: 0x8, addend: 0x0, symName: _ggml_set_loss, symObjAddr: 0x10FD8, symBinAddr: 0x8BA30, symSize: 0x5C }
  - { offset: 0x1F6BA3, size: 0x8, addend: 0x0, symName: _ggml_quantize_init, symObjAddr: 0x11034, symBinAddr: 0x8BA8C, symSize: 0x7C }
  - { offset: 0x1F6BAE, size: 0x8, addend: 0x0, symName: _ggml_set_loss.cold.1, symObjAddr: 0x1603C, symBinAddr: 0x14A4DC, symSize: 0x28 }
  - { offset: 0x1F6BC6, size: 0x8, addend: 0x0, symName: _ggml_set_loss.cold.2, symObjAddr: 0x16064, symBinAddr: 0x14A504, symSize: 0x28 }
  - { offset: 0x1F6BDE, size: 0x8, addend: 0x0, symName: _ggml_quantize_init, symObjAddr: 0x11034, symBinAddr: 0x8BA8C, symSize: 0x7C }
  - { offset: 0x1F6C97, size: 0x8, addend: 0x0, symName: _ggml_quantize_free, symObjAddr: 0x110B0, symBinAddr: 0x8BB08, symSize: 0x4C }
  - { offset: 0x1F6D80, size: 0x8, addend: 0x0, symName: _ggml_quantize_requires_imatrix, symObjAddr: 0x110FC, symBinAddr: 0x8BB54, symSize: 0x14 }
  - { offset: 0x1F6E54, size: 0x8, addend: 0x0, symName: _ggml_quantize_chunk, symObjAddr: 0x11110, symBinAddr: 0x8BB68, symSize: 0x724 }
  - { offset: 0x1F756B, size: 0x8, addend: 0x0, symName: _ggml_log_get, symObjAddr: 0x11834, symBinAddr: 0x8C28C, symSize: 0x1C }
  - { offset: 0x1F7953, size: 0x8, addend: 0x0, symName: _ggml_quantize_chunk.cold.4, symObjAddr: 0x16104, symBinAddr: 0x14A5A4, symSize: 0x28 }
  - { offset: 0x1F796B, size: 0x8, addend: 0x0, symName: _ggml_quantize_chunk.cold.1, symObjAddr: 0x1608C, symBinAddr: 0x14A52C, symSize: 0x28 }
  - { offset: 0x1F7983, size: 0x8, addend: 0x0, symName: _ggml_quantize_chunk.cold.2, symObjAddr: 0x160B4, symBinAddr: 0x14A554, symSize: 0x28 }
  - { offset: 0x1F799B, size: 0x8, addend: 0x0, symName: _ggml_quantize_chunk.cold.3, symObjAddr: 0x160DC, symBinAddr: 0x14A57C, symSize: 0x28 }
  - { offset: 0x1F79B3, size: 0x8, addend: 0x0, symName: _ggml_log_get, symObjAddr: 0x11834, symBinAddr: 0x8C28C, symSize: 0x1C }
  - { offset: 0x1F79E9, size: 0x8, addend: 0x0, symName: _ggml_log_set, symObjAddr: 0x11850, symBinAddr: 0x8C2A8, symSize: 0x24 }
  - { offset: 0x1F7A1F, size: 0x8, addend: 0x0, symName: _ggml_threadpool_params_init, symObjAddr: 0x11874, symBinAddr: 0x8C2CC, symSize: 0x5C }
  - { offset: 0x1F7AE3, size: 0x8, addend: 0x0, symName: _ggml_threadpool_params_default, symObjAddr: 0x118D0, symBinAddr: 0x8C328, symSize: 0x5C }
  - { offset: 0x1F7B21, size: 0x8, addend: 0x0, symName: _ggml_threadpool_params_default, symObjAddr: 0x118D0, symBinAddr: 0x8C328, symSize: 0x5C }
  - { offset: 0x1F7B45, size: 0x8, addend: 0x0, symName: _ggml_threadpool_params_match, symObjAddr: 0x1192C, symBinAddr: 0x8C384, symSize: 0x68 }
  - { offset: 0x1F7BB9, size: 0x8, addend: 0x0, symName: _ggml_visit_parents_graph.cold.3, symObjAddr: 0x1617C, symBinAddr: 0x14A61C, symSize: 0x28 }
  - { offset: 0x1F7BD1, size: 0x8, addend: 0x0, symName: _ggml_visit_parents_graph.cold.1, symObjAddr: 0x1612C, symBinAddr: 0x14A5CC, symSize: 0x28 }
  - { offset: 0x1F7BE9, size: 0x8, addend: 0x0, symName: _ggml_visit_parents_graph.cold.2, symObjAddr: 0x16154, symBinAddr: 0x14A5F4, symSize: 0x28 }
  - { offset: 0x1F7C01, size: 0x8, addend: 0x0, symName: _ggml_add_or_set.cold.2, symObjAddr: 0x161B4, symBinAddr: 0x14A654, symSize: 0x28 }
  - { offset: 0x1F7C19, size: 0x8, addend: 0x0, symName: _ggml_add_or_set.cold.1, symObjAddr: 0x161A4, symBinAddr: 0x14A644, symSize: 0x10 }
  - { offset: 0x1F7C31, size: 0x8, addend: 0x0, symName: _ggml_sub_or_set.cold.3, symObjAddr: 0x161FC, symBinAddr: 0x14A69C, symSize: 0x28 }
  - { offset: 0x1F7C49, size: 0x8, addend: 0x0, symName: _ggml_sub_or_set.cold.2, symObjAddr: 0x161EC, symBinAddr: 0x14A68C, symSize: 0x10 }
  - { offset: 0x1F7C61, size: 0x8, addend: 0x0, symName: _ggml_sub_or_set.cold.1, symObjAddr: 0x161DC, symBinAddr: 0x14A67C, symSize: 0x10 }
  - { offset: 0x1F7C79, size: 0x8, addend: 0x0, symName: _ggml_add1_or_set.cold.2, symObjAddr: 0x16234, symBinAddr: 0x14A6D4, symSize: 0x28 }
  - { offset: 0x1F7C91, size: 0x8, addend: 0x0, symName: _ggml_add1_or_set.cold.1, symObjAddr: 0x16224, symBinAddr: 0x14A6C4, symSize: 0x10 }
  - { offset: 0x1F7CA9, size: 0x8, addend: 0x0, symName: _OUTLINED_FUNCTION_0, symObjAddr: 0x1625C, symBinAddr: 0x8CB9C, symSize: 0x24 }
  - { offset: 0x1F7CC1, size: 0x8, addend: 0x0, symName: _OUTLINED_FUNCTION_1, symObjAddr: 0x16280, symBinAddr: 0x8CBC0, symSize: 0x24 }
  - { offset: 0x1F7CD9, size: 0x8, addend: 0x0, symName: _OUTLINED_FUNCTION_2, symObjAddr: 0x162A4, symBinAddr: 0x8CBE4, symSize: 0x24 }
  - { offset: 0x1F7CF1, size: 0x8, addend: 0x0, symName: _OUTLINED_FUNCTION_3, symObjAddr: 0x162C8, symBinAddr: 0x8CC08, symSize: 0x24 }
  - { offset: 0x1F7D09, size: 0x8, addend: 0x0, symName: _OUTLINED_FUNCTION_4, symObjAddr: 0x162EC, symBinAddr: 0x8CC2C, symSize: 0x24 }
  - { offset: 0x1F7D21, size: 0x8, addend: 0x0, symName: _OUTLINED_FUNCTION_5, symObjAddr: 0x16310, symBinAddr: 0x8CC50, symSize: 0x24 }
  - { offset: 0x1F7D39, size: 0x8, addend: 0x0, symName: _OUTLINED_FUNCTION_6, symObjAddr: 0x16334, symBinAddr: 0x8CC74, symSize: 0x24 }
  - { offset: 0x1F7D51, size: 0x8, addend: 0x0, symName: _OUTLINED_FUNCTION_7, symObjAddr: 0x16358, symBinAddr: 0x8CC98, symSize: 0x24 }
  - { offset: 0x1F7D69, size: 0x8, addend: 0x0, symName: _OUTLINED_FUNCTION_8, symObjAddr: 0x1637C, symBinAddr: 0x8CCBC, symSize: 0x24 }
  - { offset: 0x1F7D81, size: 0x8, addend: 0x0, symName: _OUTLINED_FUNCTION_9, symObjAddr: 0x163A0, symBinAddr: 0x8CCE0, symSize: 0x20 }
  - { offset: 0x1F7D99, size: 0x8, addend: 0x0, symName: _OUTLINED_FUNCTION_10, symObjAddr: 0x163C0, symBinAddr: 0x8CD00, symSize: 0x20 }
  - { offset: 0x1F7DB1, size: 0x8, addend: 0x0, symName: _OUTLINED_FUNCTION_11, symObjAddr: 0x163E0, symBinAddr: 0x8CD20, symSize: 0x10 }
  - { offset: 0x1F7DC9, size: 0x8, addend: 0x0, symName: _OUTLINED_FUNCTION_12, symObjAddr: 0x163F0, symBinAddr: 0x8CD30, symSize: 0x18 }
  - { offset: 0x1F7DE1, size: 0x8, addend: 0x0, symName: _OUTLINED_FUNCTION_13, symObjAddr: 0x16408, symBinAddr: 0x8CD48, symSize: 0x18 }
  - { offset: 0x1F7FF4, size: 0x8, addend: 0x0, symName: __ZL26previous_terminate_handler, symObjAddr: 0x6140, symBinAddr: 0x216340, symSize: 0x0 }
  - { offset: 0x1F8D2E, size: 0x8, addend: 0x0, symName: __ZL23ggml_uncaught_exceptionv, symObjAddr: 0x0, symBinAddr: 0x8CD60, symSize: 0x20 }
  - { offset: 0x1F8D66, size: 0x8, addend: 0x0, symName: __GLOBAL__sub_I_ggml.cpp, symObjAddr: 0x20, symBinAddr: 0x8CD80, symSize: 0x7C }
  - { offset: 0x1F8DEF, size: 0x8, addend: 0x0, symName: __GLOBAL__sub_I_ggml.cpp, symObjAddr: 0x20, symBinAddr: 0x8CD80, symSize: 0x7C }
  - { offset: 0x1FADE7, size: 0x8, addend: 0x0, symName: __MergedGlobals, symObjAddr: 0x16B2B0, symBinAddr: 0x216348, symSize: 0x0 }
  - { offset: 0x2160B9, size: 0x8, addend: 0x0, symName: __ZNSt3__134__uninitialized_allocator_relocateB9nqe210106INS_9allocatorI7gguf_kvEEPS2_EEvRT_T0_S7_S7_, symObjAddr: 0xA714, symBinAddr: 0x97180, symSize: 0x11C }
  - { offset: 0x216118, size: 0x8, addend: 0x0, symName: __ZNSt3__134__uninitialized_allocator_relocateB9nqe210106INS_9allocatorI7gguf_kvEEPS2_EEvRT_T0_S7_S7_, symObjAddr: 0xA714, symBinAddr: 0x97180, symSize: 0x11C }
  - { offset: 0x2175CE, size: 0x8, addend: 0x0, symName: __ZNSt3__116__copy_unalignedB9nqe210106INS_6vectorIbNS_9allocatorIbEEEELb0EEENS_14__bit_iteratorIT_Lb0EXLi0EEEENS5_IS6_XT0_EXLi0EEEES8_S7_, symObjAddr: 0xCE20, symBinAddr: 0x9988C, symSize: 0x248 }
  - { offset: 0x21763C, size: 0x8, addend: 0x0, symName: __ZNSt3__116__copy_unalignedB9nqe210106INS_6vectorIbNS_9allocatorIbEEEELb0EEENS_14__bit_iteratorIT_Lb0EXLi0EEEENS5_IS6_XT0_EXLi0EEEES8_S7_, symObjAddr: 0xCE20, symBinAddr: 0x9988C, symSize: 0x248 }
  - { offset: 0x217C75, size: 0x8, addend: 0x0, symName: __ZNSt3__116__copy_unalignedB9nqe210106INS_6vectorIbNS_9allocatorIbEEEELb1EEENS_14__bit_iteratorIT_Lb0EXLi0EEEENS5_IS6_XT0_EXLi0EEEES8_S7_, symObjAddr: 0xD1F4, symBinAddr: 0x99C60, symSize: 0x20C }
  - { offset: 0x217CE4, size: 0x8, addend: 0x0, symName: __ZNSt3__116__copy_unalignedB9nqe210106INS_6vectorIbNS_9allocatorIbEEEELb1EEENS_14__bit_iteratorIT_Lb0EXLi0EEEENS5_IS6_XT0_EXLi0EEEES8_S7_, symObjAddr: 0xD1F4, symBinAddr: 0x99C60, symSize: 0x20C }
  - { offset: 0x219A70, size: 0x8, addend: 0x0, symName: __MergedGlobals, symObjAddr: 0x16B2B0, symBinAddr: 0x216348, symSize: 0x0 }
  - { offset: 0x219DCA, size: 0x8, addend: 0x0, symName: __ZTV15gguf_writer_buf, symObjAddr: 0x13F28, symBinAddr: 0x1828A0, symSize: 0x0 }
  - { offset: 0x21A9D2, size: 0x8, addend: 0x0, symName: __ZTV16gguf_writer_file, symObjAddr: 0x13F78, symBinAddr: 0x1828F0, symSize: 0x0 }
  - { offset: 0x21B8DF, size: 0x8, addend: 0x0, symName: __ZNSt3__13mapI9gguf_typemNS_4lessIS1_EENS_9allocatorINS_4pairIKS1_mEEEEED1B9nqe210106Ev, symObjAddr: 0x0, symBinAddr: 0x8CDFC, symSize: 0x28 }
  - { offset: 0x21B9A1, size: 0x8, addend: 0x0, symName: __ZNSt3__16__treeINS_12__value_typeI9gguf_typemEENS_19__map_value_compareIS2_NS_4pairIKS2_mEENS_4lessIS2_EELb1EEENS_9allocatorIS7_EEE7destroyEPNS_11__tree_nodeIS3_PvEE, symObjAddr: 0xA01C, symBinAddr: 0x96B28, symSize: 0x44 }
  - { offset: 0x21BB2B, size: 0x8, addend: 0x0, symName: __ZNSt3__13mapI9gguf_typePKcNS_4lessIS1_EENS_9allocatorINS_4pairIKS1_S3_EEEEED1B9nqe210106Ev, symObjAddr: 0x28, symBinAddr: 0x8CE24, symSize: 0x28 }
  - { offset: 0x21BBED, size: 0x8, addend: 0x0, symName: __ZNSt3__16__treeINS_12__value_typeI9gguf_typePKcEENS_19__map_value_compareIS2_NS_4pairIKS2_S4_EENS_4lessIS2_EELb1EEENS_9allocatorIS9_EEE7destroyEPNS_11__tree_nodeIS5_PvEE, symObjAddr: 0xA1D8, symBinAddr: 0x96CE4, symSize: 0x44 }
  - { offset: 0x21BE2A, size: 0x8, addend: 0x0, symName: __Z14gguf_type_size9gguf_type, symObjAddr: 0x50, symBinAddr: 0x8CE4C, symSize: 0x58 }
  - { offset: 0x21BE56, size: 0x8, addend: 0x0, symName: __Z14gguf_type_size9gguf_type, symObjAddr: 0x50, symBinAddr: 0x8CE4C, symSize: 0x58 }
  - { offset: 0x21BE6B, size: 0x8, addend: 0x0, symName: __Z14gguf_type_size9gguf_type, symObjAddr: 0x50, symBinAddr: 0x8CE4C, symSize: 0x58 }
  - { offset: 0x21BE8B, size: 0x8, addend: 0x0, symName: __Z14gguf_type_size9gguf_type, symObjAddr: 0x50, symBinAddr: 0x8CE4C, symSize: 0x58 }
  - { offset: 0x21C047, size: 0x8, addend: 0x0, symName: _gguf_init_empty, symObjAddr: 0xA8, symBinAddr: 0x8CEA4, symSize: 0x3C }
  - { offset: 0x21CE2B, size: 0x8, addend: 0x0, symName: _gguf_init_from_file_ptr, symObjAddr: 0xE4, symBinAddr: 0x8CEE0, symSize: 0x1478 }
  - { offset: 0x21F300, size: 0x8, addend: 0x0, symName: __ZNSt3__16vectorI7gguf_kvNS_9allocatorIS1_EEE5clearB9nqe210106Ev, symObjAddr: 0x8C88, symBinAddr: 0x95A04, symSize: 0xB8 }
  - { offset: 0x21F86F, size: 0x8, addend: 0x0, symName: __ZNK11gguf_reader4readERNSt3__112basic_stringIcNS0_11char_traitsIcEENS0_9allocatorIcEEEE, symObjAddr: 0x15B0, symBinAddr: 0x8E3AC, symSize: 0x138 }
  - { offset: 0x21F9F8, size: 0x8, addend: 0x0, symName: __ZNK11gguf_reader4readER9gguf_type, symObjAddr: 0x16F8, symBinAddr: 0x8E4E4, symSize: 0x84 }
  - { offset: 0x21FA9F, size: 0x8, addend: 0x0, symName: __Z24gguf_read_emplace_helperIhEbRK11gguf_readerRNSt3__16vectorI7gguf_kvNS3_9allocatorIS5_EEEERKNS3_12basic_stringIcNS3_11char_traitsIcEENS6_IcEEEEbm, symObjAddr: 0x177C, symBinAddr: 0x8E568, symSize: 0x250 }
  - { offset: 0x2202B6, size: 0x8, addend: 0x0, symName: __Z24gguf_read_emplace_helperIxEbRK11gguf_readerRNSt3__16vectorI7gguf_kvNS3_9allocatorIS5_EEEERKNS3_12basic_stringIcNS3_11char_traitsIcEENS6_IcEEEEbm, symObjAddr: 0x32C4, symBinAddr: 0x900B0, symSize: 0x2D8 }
  - { offset: 0x220DCE, size: 0x8, addend: 0x0, symName: __Z24gguf_read_emplace_helperItEbRK11gguf_readerRNSt3__16vectorI7gguf_kvNS3_9allocatorIS5_EEEERKNS3_12basic_stringIcNS3_11char_traitsIcEENS6_IcEEEEbm, symObjAddr: 0x1C1C, symBinAddr: 0x8EA08, symSize: 0x2D8 }
  - { offset: 0x2218DE, size: 0x8, addend: 0x0, symName: __Z24gguf_read_emplace_helperIiEbRK11gguf_readerRNSt3__16vectorI7gguf_kvNS3_9allocatorIS5_EEEERKNS3_12basic_stringIcNS3_11char_traitsIcEENS6_IcEEEEbm, symObjAddr: 0x24A4, symBinAddr: 0x8F290, symSize: 0x2D8 }
  - { offset: 0x2223F6, size: 0x8, addend: 0x0, symName: __Z24gguf_read_emplace_helperIdEbRK11gguf_readerRNSt3__16vectorI7gguf_kvNS3_9allocatorIS5_EEEERKNS3_12basic_stringIcNS3_11char_traitsIcEENS6_IcEEEEbm, symObjAddr: 0x359C, symBinAddr: 0x90388, symSize: 0x2D8 }
  - { offset: 0x222F0F, size: 0x8, addend: 0x0, symName: __Z24gguf_read_emplace_helperIaEbRK11gguf_readerRNSt3__16vectorI7gguf_kvNS3_9allocatorIS5_EEEERKNS3_12basic_stringIcNS3_11char_traitsIcEENS6_IcEEEEbm, symObjAddr: 0x19CC, symBinAddr: 0x8E7B8, symSize: 0x250 }
  - { offset: 0x223726, size: 0x8, addend: 0x0, symName: __Z24gguf_read_emplace_helperIsEbRK11gguf_readerRNSt3__16vectorI7gguf_kvNS3_9allocatorIS5_EEEERKNS3_12basic_stringIcNS3_11char_traitsIcEENS6_IcEEEEbm, symObjAddr: 0x1EF4, symBinAddr: 0x8ECE0, symSize: 0x2D8 }
  - { offset: 0x224236, size: 0x8, addend: 0x0, symName: __Z24gguf_read_emplace_helperIfEbRK11gguf_readerRNSt3__16vectorI7gguf_kvNS3_9allocatorIS5_EEEERKNS3_12basic_stringIcNS3_11char_traitsIcEENS6_IcEEEEbm, symObjAddr: 0x277C, symBinAddr: 0x8F568, symSize: 0x2D8 }
  - { offset: 0x224D4F, size: 0x8, addend: 0x0, symName: __Z24gguf_read_emplace_helperIbEbRK11gguf_readerRNSt3__16vectorI7gguf_kvNS3_9allocatorIS5_EEEERKNS3_12basic_stringIcNS3_11char_traitsIcEENS6_IcEEEEbm, symObjAddr: 0x2A54, symBinAddr: 0x8F840, symSize: 0x2FC }
  - { offset: 0x22562E, size: 0x8, addend: 0x0, symName: __Z24gguf_read_emplace_helperIjEbRK11gguf_readerRNSt3__16vectorI7gguf_kvNS3_9allocatorIS5_EEEERKNS3_12basic_stringIcNS3_11char_traitsIcEENS6_IcEEEEbm, symObjAddr: 0x21CC, symBinAddr: 0x8EFB8, symSize: 0x2D8 }
  - { offset: 0x226146, size: 0x8, addend: 0x0, symName: __Z24gguf_read_emplace_helperINSt3__112basic_stringIcNS0_11char_traitsIcEENS0_9allocatorIcEEEEEbRK11gguf_readerRNS0_6vectorI7gguf_kvNS4_ISB_EEEERKS6_bm, symObjAddr: 0x2D50, symBinAddr: 0x8FB3C, symSize: 0x29C }
  - { offset: 0x226B5D, size: 0x8, addend: 0x0, symName: __Z24gguf_read_emplace_helperIyEbRK11gguf_readerRNSt3__16vectorI7gguf_kvNS3_9allocatorIS5_EEEERKNS3_12basic_stringIcNS3_11char_traitsIcEENS6_IcEEEEbm, symObjAddr: 0x2FEC, symBinAddr: 0x8FDD8, symSize: 0x2D8 }
  - { offset: 0x227675, size: 0x8, addend: 0x0, symName: _gguf_find_key, symObjAddr: 0x3874, symBinAddr: 0x90660, symSize: 0x7C }
  - { offset: 0x2277EF, size: 0x8, addend: 0x0, symName: _gguf_get_val_u32, symObjAddr: 0x38F0, symBinAddr: 0x906DC, symSize: 0x178 }
  - { offset: 0x227A4C, size: 0x8, addend: 0x0, symName: __ZNK11gguf_reader4readER9ggml_type, symObjAddr: 0x3A68, symBinAddr: 0x90854, symSize: 0x84 }
  - { offset: 0x227A8F, size: 0x8, addend: 0x0, symName: __ZNK11gguf_reader4readER9ggml_type, symObjAddr: 0x3A68, symBinAddr: 0x90854, symSize: 0x84 }
  - { offset: 0x227B7A, size: 0x8, addend: 0x0, symName: __ZNSt3__16vectorI16gguf_tensor_infoNS_9allocatorIS1_EEE9push_backB9nqe210106ERKS1_, symObjAddr: 0x3AEC, symBinAddr: 0x908D8, symSize: 0x12C }
  - { offset: 0x227F57, size: 0x8, addend: 0x0, symName: _gguf_init_from_file, symObjAddr: 0x3C18, symBinAddr: 0x90A04, symSize: 0xA8 }
  - { offset: 0x227F95, size: 0x8, addend: 0x0, symName: _gguf_free, symObjAddr: 0x155C, symBinAddr: 0x8E358, symSize: 0x54 }
  - { offset: 0x2287E6, size: 0x8, addend: 0x0, symName: __ZNK11gguf_reader4readIhEEbRNSt3__16vectorIT_NS1_9allocatorIS3_EEEEm, symObjAddr: 0xA21C, symBinAddr: 0x96D28, symSize: 0x188 }
  - { offset: 0x228DC8, size: 0x8, addend: 0x0, symName: __ZN7gguf_kvC2IhEERKNSt3__112basic_stringIcNS1_11char_traitsIcEENS1_9allocatorIcEEEERKNS1_6vectorIT_NS5_ISB_EEEE, symObjAddr: 0xA4D8, symBinAddr: 0x96FE4, symSize: 0x158 }
  - { offset: 0x2293CE, size: 0x8, addend: 0x0, symName: __ZN7gguf_kvC2IhEERKNSt3__112basic_stringIcNS1_11char_traitsIcEENS1_9allocatorIcEEEET_, symObjAddr: 0xAA20, symBinAddr: 0x9748C, symSize: 0xF8 }
  - { offset: 0x229862, size: 0x8, addend: 0x0, symName: __ZNSt3__16vectorI7gguf_kvNS_9allocatorIS1_EEE24__emplace_back_slow_pathIJRKNS_12basic_stringIcNS_11char_traitsIcEENS2_IcEEEERNS0_IhNS2_IhEEEEEEEPS1_DpOT_, symObjAddr: 0xA3A4, symBinAddr: 0x96EB0, symSize: 0x134 }
  - { offset: 0x229C5E, size: 0x8, addend: 0x0, symName: __ZNSt3__16vectorI7gguf_kvNS_9allocatorIS1_EEE24__emplace_back_slow_pathIJRKNS_12basic_stringIcNS_11char_traitsIcEENS2_IcEEEERhEEEPS1_DpOT_, symObjAddr: 0xA8EC, symBinAddr: 0x97358, symSize: 0x134 }
  - { offset: 0x22A4CB, size: 0x8, addend: 0x0, symName: __ZNK11gguf_reader4readIaEEbRNSt3__16vectorIT_NS1_9allocatorIS3_EEEEm, symObjAddr: 0xAB18, symBinAddr: 0x97584, symSize: 0x188 }
  - { offset: 0x22AAAD, size: 0x8, addend: 0x0, symName: __ZN7gguf_kvC2IaEERKNSt3__112basic_stringIcNS1_11char_traitsIcEENS1_9allocatorIcEEEERKNS1_6vectorIT_NS5_ISB_EEEE, symObjAddr: 0xADD4, symBinAddr: 0x97840, symSize: 0x158 }
  - { offset: 0x22B05C, size: 0x8, addend: 0x0, symName: __ZN7gguf_kvC2IaEERKNSt3__112basic_stringIcNS1_11char_traitsIcEENS1_9allocatorIcEEEET_, symObjAddr: 0xB060, symBinAddr: 0x97ACC, symSize: 0xFC }
  - { offset: 0x22B4C7, size: 0x8, addend: 0x0, symName: __ZNSt3__16vectorI7gguf_kvNS_9allocatorIS1_EEE24__emplace_back_slow_pathIJRKNS_12basic_stringIcNS_11char_traitsIcEENS2_IcEEEERNS0_IaNS2_IaEEEEEEEPS1_DpOT_, symObjAddr: 0xACA0, symBinAddr: 0x9770C, symSize: 0x134 }
  - { offset: 0x22B8C3, size: 0x8, addend: 0x0, symName: __ZNSt3__16vectorI7gguf_kvNS_9allocatorIS1_EEE24__emplace_back_slow_pathIJRKNS_12basic_stringIcNS_11char_traitsIcEENS2_IcEEEERaEEEPS1_DpOT_, symObjAddr: 0xAF2C, symBinAddr: 0x97998, symSize: 0x134 }
  - { offset: 0x22C3C1, size: 0x8, addend: 0x0, symName: __ZN7gguf_kvC2ItEERKNSt3__112basic_stringIcNS1_11char_traitsIcEENS1_9allocatorIcEEEERKNS1_6vectorIT_NS5_ISB_EEEE, symObjAddr: 0xB290, symBinAddr: 0x97CFC, symSize: 0x158 }
  - { offset: 0x22C974, size: 0x8, addend: 0x0, symName: __ZN7gguf_kvC2ItEERKNSt3__112basic_stringIcNS1_11char_traitsIcEENS1_9allocatorIcEEEET_, symObjAddr: 0xB51C, symBinAddr: 0x97F88, symSize: 0xFC }
  - { offset: 0x22CDDF, size: 0x8, addend: 0x0, symName: __ZNSt3__16vectorI7gguf_kvNS_9allocatorIS1_EEE24__emplace_back_slow_pathIJRKNS_12basic_stringIcNS_11char_traitsIcEENS2_IcEEEERtEEEPS1_DpOT_, symObjAddr: 0xB3E8, symBinAddr: 0x97E54, symSize: 0x134 }
  - { offset: 0x22D1D3, size: 0x8, addend: 0x0, symName: __ZNSt3__16vectorI7gguf_kvNS_9allocatorIS1_EEE24__emplace_back_slow_pathIJRKNS_12basic_stringIcNS_11char_traitsIcEENS2_IcEEEERNS0_ItNS2_ItEEEEEEEPS1_DpOT_, symObjAddr: 0xB15C, symBinAddr: 0x97BC8, symSize: 0x134 }
  - { offset: 0x22DCD9, size: 0x8, addend: 0x0, symName: __ZN7gguf_kvC2IsEERKNSt3__112basic_stringIcNS1_11char_traitsIcEENS1_9allocatorIcEEEERKNS1_6vectorIT_NS5_ISB_EEEE, symObjAddr: 0xB74C, symBinAddr: 0x981B8, symSize: 0x158 }
  - { offset: 0x22E28C, size: 0x8, addend: 0x0, symName: __ZN7gguf_kvC2IsEERKNSt3__112basic_stringIcNS1_11char_traitsIcEENS1_9allocatorIcEEEET_, symObjAddr: 0xB9D8, symBinAddr: 0x98444, symSize: 0xFC }
  - { offset: 0x22E6F7, size: 0x8, addend: 0x0, symName: __ZNSt3__16vectorI7gguf_kvNS_9allocatorIS1_EEE24__emplace_back_slow_pathIJRKNS_12basic_stringIcNS_11char_traitsIcEENS2_IcEEEERsEEEPS1_DpOT_, symObjAddr: 0xB8A4, symBinAddr: 0x98310, symSize: 0x134 }
  - { offset: 0x22EAEB, size: 0x8, addend: 0x0, symName: __ZNSt3__16vectorI7gguf_kvNS_9allocatorIS1_EEE24__emplace_back_slow_pathIJRKNS_12basic_stringIcNS_11char_traitsIcEENS2_IcEEEERNS0_IsNS2_IsEEEEEEEPS1_DpOT_, symObjAddr: 0xB618, symBinAddr: 0x98084, symSize: 0x134 }
  - { offset: 0x22F5A1, size: 0x8, addend: 0x0, symName: __ZN7gguf_kvC2IjEERKNSt3__112basic_stringIcNS1_11char_traitsIcEENS1_9allocatorIcEEEERKNS1_6vectorIT_NS5_ISB_EEEE, symObjAddr: 0xBC08, symBinAddr: 0x98674, symSize: 0x158 }
  - { offset: 0x22FB54, size: 0x8, addend: 0x0, symName: __ZN7gguf_kvC2IjEERKNSt3__112basic_stringIcNS1_11char_traitsIcEENS1_9allocatorIcEEEET_, symObjAddr: 0xBE94, symBinAddr: 0x98900, symSize: 0xFC }
  - { offset: 0x22FFBF, size: 0x8, addend: 0x0, symName: __ZNSt3__16vectorI7gguf_kvNS_9allocatorIS1_EEE24__emplace_back_slow_pathIJRKNS_12basic_stringIcNS_11char_traitsIcEENS2_IcEEEERjEEEPS1_DpOT_, symObjAddr: 0xBD60, symBinAddr: 0x987CC, symSize: 0x134 }
  - { offset: 0x2303BB, size: 0x8, addend: 0x0, symName: __ZNSt3__16vectorI7gguf_kvNS_9allocatorIS1_EEE24__emplace_back_slow_pathIJRKNS_12basic_stringIcNS_11char_traitsIcEENS2_IcEEEERNS0_IjNS2_IjEEEEEEEPS1_DpOT_, symObjAddr: 0xBAD4, symBinAddr: 0x98540, symSize: 0x134 }
  - { offset: 0x230E71, size: 0x8, addend: 0x0, symName: __ZN7gguf_kvC2IiEERKNSt3__112basic_stringIcNS1_11char_traitsIcEENS1_9allocatorIcEEEERKNS1_6vectorIT_NS5_ISB_EEEE, symObjAddr: 0xC0C4, symBinAddr: 0x98B30, symSize: 0x158 }
  - { offset: 0x231424, size: 0x8, addend: 0x0, symName: __ZN7gguf_kvC2IiEERKNSt3__112basic_stringIcNS1_11char_traitsIcEENS1_9allocatorIcEEEET_, symObjAddr: 0xC350, symBinAddr: 0x98DBC, symSize: 0xFC }
  - { offset: 0x23188F, size: 0x8, addend: 0x0, symName: __ZNSt3__16vectorI7gguf_kvNS_9allocatorIS1_EEE24__emplace_back_slow_pathIJRKNS_12basic_stringIcNS_11char_traitsIcEENS2_IcEEEERiEEEPS1_DpOT_, symObjAddr: 0xC21C, symBinAddr: 0x98C88, symSize: 0x134 }
  - { offset: 0x231C8B, size: 0x8, addend: 0x0, symName: __ZNSt3__16vectorI7gguf_kvNS_9allocatorIS1_EEE24__emplace_back_slow_pathIJRKNS_12basic_stringIcNS_11char_traitsIcEENS2_IcEEEERNS0_IiNS2_IiEEEEEEEPS1_DpOT_, symObjAddr: 0xBF90, symBinAddr: 0x989FC, symSize: 0x134 }
  - { offset: 0x232791, size: 0x8, addend: 0x0, symName: __ZN7gguf_kvC2IfEERKNSt3__112basic_stringIcNS1_11char_traitsIcEENS1_9allocatorIcEEEERKNS1_6vectorIT_NS5_ISB_EEEE, symObjAddr: 0xC580, symBinAddr: 0x98FEC, symSize: 0x158 }
  - { offset: 0x232D44, size: 0x8, addend: 0x0, symName: __ZN7gguf_kvC2IfEERKNSt3__112basic_stringIcNS1_11char_traitsIcEENS1_9allocatorIcEEEET_, symObjAddr: 0xC80C, symBinAddr: 0x99278, symSize: 0x104 }
  - { offset: 0x2331AF, size: 0x8, addend: 0x0, symName: __ZNSt3__16vectorI7gguf_kvNS_9allocatorIS1_EEE24__emplace_back_slow_pathIJRKNS_12basic_stringIcNS_11char_traitsIcEENS2_IcEEEERfEEEPS1_DpOT_, symObjAddr: 0xC6D8, symBinAddr: 0x99144, symSize: 0x134 }
  - { offset: 0x2335AC, size: 0x8, addend: 0x0, symName: __ZNSt3__16vectorI7gguf_kvNS_9allocatorIS1_EEE24__emplace_back_slow_pathIJRKNS_12basic_stringIcNS_11char_traitsIcEENS2_IcEEEERNS0_IfNS2_IfEEEEEEEPS1_DpOT_, symObjAddr: 0xC44C, symBinAddr: 0x98EB8, symSize: 0x134 }
  - { offset: 0x233E97, size: 0x8, addend: 0x0, symName: __ZN7gguf_kvC2IbEERKNSt3__112basic_stringIcNS1_11char_traitsIcEENS1_9allocatorIcEEEET_, symObjAddr: 0xD7C0, symBinAddr: 0x9A22C, symSize: 0xFC }
  - { offset: 0x234302, size: 0x8, addend: 0x0, symName: __ZNSt3__16vectorIbNS_9allocatorIbEEE6resizeEmb, symObjAddr: 0xC910, symBinAddr: 0x9937C, symSize: 0x254 }
  - { offset: 0x234C2A, size: 0x8, addend: 0x0, symName: __ZN7gguf_kvC2IbEERKNSt3__112basic_stringIcNS1_11char_traitsIcEENS1_9allocatorIcEEEERKNS1_6vectorIT_NS5_ISB_EEEE, symObjAddr: 0xD534, symBinAddr: 0x99FA0, symSize: 0x158 }
  - { offset: 0x23523F, size: 0x8, addend: 0x0, symName: __ZNSt3__16vectorI7gguf_kvNS_9allocatorIS1_EEE24__emplace_back_slow_pathIJRKNS_12basic_stringIcNS_11char_traitsIcEENS2_IcEEEERbEEEPS1_DpOT_, symObjAddr: 0xD68C, symBinAddr: 0x9A0F8, symSize: 0x134 }
  - { offset: 0x235633, size: 0x8, addend: 0x0, symName: __ZNSt3__16vectorI7gguf_kvNS_9allocatorIS1_EEE24__emplace_back_slow_pathIJRKNS_12basic_stringIcNS_11char_traitsIcEENS2_IcEEEERNS0_IbNS2_IbEEEEEEEPS1_DpOT_, symObjAddr: 0xD400, symBinAddr: 0x99E6C, symSize: 0x134 }
  - { offset: 0x235EBD, size: 0x8, addend: 0x0, symName: __ZNK11gguf_reader4readINSt3__112basic_stringIcNS1_11char_traitsIcEENS1_9allocatorIcEEEEEEbRNS1_6vectorIT_NS5_IS9_EEEEm, symObjAddr: 0xD8BC, symBinAddr: 0x9A328, symSize: 0x138 }
  - { offset: 0x23612D, size: 0x8, addend: 0x0, symName: __ZN7gguf_kvC2ERKNSt3__112basic_stringIcNS0_11char_traitsIcEENS0_9allocatorIcEEEERKNS0_6vectorIS6_NS4_IS6_EEEE, symObjAddr: 0xDD1C, symBinAddr: 0x9A710, symSize: 0x120 }
  - { offset: 0x2364CE, size: 0x8, addend: 0x0, symName: __ZN7gguf_kvC2ERKNSt3__112basic_stringIcNS0_11char_traitsIcEENS0_9allocatorIcEEEES8_, symObjAddr: 0xE2BC, symBinAddr: 0x9AC54, symSize: 0xF8 }
  - { offset: 0x236806, size: 0x8, addend: 0x0, symName: __ZNSt3__16vectorI7gguf_kvNS_9allocatorIS1_EEE24__emplace_back_slow_pathIJRKNS_12basic_stringIcNS_11char_traitsIcEENS2_IcEEEERNS0_ISA_NS2_ISA_EEEEEEEPS1_DpOT_, symObjAddr: 0xDBE8, symBinAddr: 0x9A5DC, symSize: 0x134 }
  - { offset: 0x236C02, size: 0x8, addend: 0x0, symName: __ZNSt3__16vectorI7gguf_kvNS_9allocatorIS1_EEE24__emplace_back_slow_pathIJRKNS_12basic_stringIcNS_11char_traitsIcEENS2_IcEEEERSA_EEEPS1_DpOT_, symObjAddr: 0xE188, symBinAddr: 0x9AB20, symSize: 0x134 }
  - { offset: 0x23781B, size: 0x8, addend: 0x0, symName: __ZN7gguf_kvC2IyEERKNSt3__112basic_stringIcNS1_11char_traitsIcEENS1_9allocatorIcEEEERKNS1_6vectorIT_NS5_ISB_EEEE, symObjAddr: 0xE630, symBinAddr: 0x9AE80, symSize: 0x158 }
  - { offset: 0x237DCE, size: 0x8, addend: 0x0, symName: __ZN7gguf_kvC2IyEERKNSt3__112basic_stringIcNS1_11char_traitsIcEENS1_9allocatorIcEEEET_, symObjAddr: 0xE8BC, symBinAddr: 0x9B10C, symSize: 0xFC }
  - { offset: 0x238239, size: 0x8, addend: 0x0, symName: __ZNSt3__16vectorI7gguf_kvNS_9allocatorIS1_EEE24__emplace_back_slow_pathIJRKNS_12basic_stringIcNS_11char_traitsIcEENS2_IcEEEERyEEEPS1_DpOT_, symObjAddr: 0xE788, symBinAddr: 0x9AFD8, symSize: 0x134 }
  - { offset: 0x238635, size: 0x8, addend: 0x0, symName: __ZNSt3__16vectorI7gguf_kvNS_9allocatorIS1_EEE24__emplace_back_slow_pathIJRKNS_12basic_stringIcNS_11char_traitsIcEENS2_IcEEEERNS0_IyNS2_IyEEEEEEEPS1_DpOT_, symObjAddr: 0xE4FC, symBinAddr: 0x9AD4C, symSize: 0x134 }
  - { offset: 0x2390F6, size: 0x8, addend: 0x0, symName: __ZN7gguf_kvC2IxEERKNSt3__112basic_stringIcNS1_11char_traitsIcEENS1_9allocatorIcEEEERKNS1_6vectorIT_NS5_ISB_EEEE, symObjAddr: 0xEAEC, symBinAddr: 0x9B33C, symSize: 0x158 }
  - { offset: 0x2396A9, size: 0x8, addend: 0x0, symName: __ZN7gguf_kvC2IxEERKNSt3__112basic_stringIcNS1_11char_traitsIcEENS1_9allocatorIcEEEET_, symObjAddr: 0xED78, symBinAddr: 0x9B5C8, symSize: 0xFC }
  - { offset: 0x239B14, size: 0x8, addend: 0x0, symName: __ZNSt3__16vectorI7gguf_kvNS_9allocatorIS1_EEE24__emplace_back_slow_pathIJRKNS_12basic_stringIcNS_11char_traitsIcEENS2_IcEEEERxEEEPS1_DpOT_, symObjAddr: 0xEC44, symBinAddr: 0x9B494, symSize: 0x134 }
  - { offset: 0x239F10, size: 0x8, addend: 0x0, symName: __ZNSt3__16vectorI7gguf_kvNS_9allocatorIS1_EEE24__emplace_back_slow_pathIJRKNS_12basic_stringIcNS_11char_traitsIcEENS2_IcEEEERNS0_IxNS2_IxEEEEEEEPS1_DpOT_, symObjAddr: 0xE9B8, symBinAddr: 0x9B208, symSize: 0x134 }
  - { offset: 0x23AA16, size: 0x8, addend: 0x0, symName: __ZN7gguf_kvC2IdEERKNSt3__112basic_stringIcNS1_11char_traitsIcEENS1_9allocatorIcEEEERKNS1_6vectorIT_NS5_ISB_EEEE, symObjAddr: 0xEFA8, symBinAddr: 0x9B7F8, symSize: 0x158 }
  - { offset: 0x23AFC9, size: 0x8, addend: 0x0, symName: __ZN7gguf_kvC2IdEERKNSt3__112basic_stringIcNS1_11char_traitsIcEENS1_9allocatorIcEEEET_, symObjAddr: 0xF234, symBinAddr: 0x9BA84, symSize: 0x104 }
  - { offset: 0x23B434, size: 0x8, addend: 0x0, symName: __ZNSt3__16vectorI7gguf_kvNS_9allocatorIS1_EEE24__emplace_back_slow_pathIJRKNS_12basic_stringIcNS_11char_traitsIcEENS2_IcEEEERdEEEPS1_DpOT_, symObjAddr: 0xF100, symBinAddr: 0x9B950, symSize: 0x134 }
  - { offset: 0x23B831, size: 0x8, addend: 0x0, symName: __ZNSt3__16vectorI7gguf_kvNS_9allocatorIS1_EEE24__emplace_back_slow_pathIJRKNS_12basic_stringIcNS_11char_traitsIcEENS2_IcEEEERNS0_IdNS2_IdEEEEEEEPS1_DpOT_, symObjAddr: 0xEE74, symBinAddr: 0x9B6C4, symSize: 0x134 }
  - { offset: 0x23BD16, size: 0x8, addend: 0x0, symName: __ZNK7gguf_kv6get_neEv, symObjAddr: 0x42C8, symBinAddr: 0x910B4, symSize: 0x144 }
  - { offset: 0x23BF01, size: 0x8, addend: 0x0, symName: _gguf_get_val_i8, symObjAddr: 0x440C, symBinAddr: 0x911F8, symSize: 0x178 }
  - { offset: 0x23C1E6, size: 0x8, addend: 0x0, symName: __ZNSt3__16vectorI16gguf_tensor_infoNS_9allocatorIS1_EEE20__throw_length_errorB9nqe210106Ev, symObjAddr: 0xF338, symBinAddr: 0x9BB88, symSize: 0x14 }
  - { offset: 0x23C1FE, size: 0x8, addend: 0x0, symName: __ZNKSt3__111__move_implINS_17_ClassicAlgPolicyEEclB9nqe210106IP7gguf_kvS5_S5_EENS_4pairIT_T1_EES7_T0_S8_, symObjAddr: 0xF34C, symBinAddr: 0x9BB9C, symSize: 0x12C }
  - { offset: 0x23C209, size: 0x8, addend: 0x0, symName: _gguf_init_from_file, symObjAddr: 0x3C18, symBinAddr: 0x90A04, symSize: 0xA8 }
  - { offset: 0x23C42F, size: 0x8, addend: 0x0, symName: _gguf_type_name, symObjAddr: 0x3CC0, symBinAddr: 0x90AAC, symSize: 0x58 }
  - { offset: 0x23C470, size: 0x8, addend: 0x0, symName: _gguf_type_name, symObjAddr: 0x3CC0, symBinAddr: 0x90AAC, symSize: 0x58 }
  - { offset: 0x23C486, size: 0x8, addend: 0x0, symName: _gguf_type_name, symObjAddr: 0x3CC0, symBinAddr: 0x90AAC, symSize: 0x58 }
  - { offset: 0x23C4A6, size: 0x8, addend: 0x0, symName: _gguf_type_name, symObjAddr: 0x3CC0, symBinAddr: 0x90AAC, symSize: 0x58 }
  - { offset: 0x23C568, size: 0x8, addend: 0x0, symName: _gguf_get_version, symObjAddr: 0x3D18, symBinAddr: 0x90B04, symSize: 0x8 }
  - { offset: 0x23C595, size: 0x8, addend: 0x0, symName: _gguf_get_alignment, symObjAddr: 0x3D20, symBinAddr: 0x90B0C, symSize: 0x8 }
  - { offset: 0x23C5C2, size: 0x8, addend: 0x0, symName: _gguf_get_data_offset, symObjAddr: 0x3D28, symBinAddr: 0x90B14, symSize: 0x8 }
  - { offset: 0x23C5EF, size: 0x8, addend: 0x0, symName: _gguf_get_n_kv, symObjAddr: 0x3D30, symBinAddr: 0x90B1C, symSize: 0x1C }
  - { offset: 0x23C611, size: 0x8, addend: 0x0, symName: _gguf_get_n_kv, symObjAddr: 0x3D30, symBinAddr: 0x90B1C, symSize: 0x1C }
  - { offset: 0x23C62F, size: 0x8, addend: 0x0, symName: _gguf_get_key, symObjAddr: 0x3D4C, symBinAddr: 0x90B38, symSize: 0x70 }
  - { offset: 0x23C743, size: 0x8, addend: 0x0, symName: _gguf_get_kv_type, symObjAddr: 0x3DBC, symBinAddr: 0x90BA8, symSize: 0x74 }
  - { offset: 0x23C757, size: 0x8, addend: 0x0, symName: _gguf_get_kv_type, symObjAddr: 0x3DBC, symBinAddr: 0x90BA8, symSize: 0x74 }
  - { offset: 0x23C7F7, size: 0x8, addend: 0x0, symName: _gguf_get_arr_type, symObjAddr: 0x3E30, symBinAddr: 0x90C1C, symSize: 0x98 }
  - { offset: 0x23C80B, size: 0x8, addend: 0x0, symName: _gguf_get_arr_type, symObjAddr: 0x3E30, symBinAddr: 0x90C1C, symSize: 0x98 }
  - { offset: 0x23C8C2, size: 0x8, addend: 0x0, symName: _gguf_get_arr_data, symObjAddr: 0x3EC8, symBinAddr: 0x90CB4, symSize: 0x9C }
  - { offset: 0x23C8EC, size: 0x8, addend: 0x0, symName: _gguf_get_arr_data, symObjAddr: 0x3EC8, symBinAddr: 0x90CB4, symSize: 0x9C }
  - { offset: 0x23C9C4, size: 0x8, addend: 0x0, symName: _gguf_get_arr_str, symObjAddr: 0x3F64, symBinAddr: 0x90D50, symSize: 0xBC }
  - { offset: 0x23C9FA, size: 0x8, addend: 0x0, symName: _gguf_get_arr_str, symObjAddr: 0x3F64, symBinAddr: 0x90D50, symSize: 0xBC }
  - { offset: 0x23CB74, size: 0x8, addend: 0x0, symName: _gguf_get_arr_n, symObjAddr: 0x4020, symBinAddr: 0x90E0C, symSize: 0x134 }
  - { offset: 0x23CB88, size: 0x8, addend: 0x0, symName: _gguf_get_arr_n, symObjAddr: 0x4020, symBinAddr: 0x90E0C, symSize: 0x134 }
  - { offset: 0x23CDA7, size: 0x8, addend: 0x0, symName: _gguf_get_val_u8, symObjAddr: 0x4154, symBinAddr: 0x90F40, symSize: 0x174 }
  - { offset: 0x23CDF1, size: 0x8, addend: 0x0, symName: _gguf_get_val_u8, symObjAddr: 0x4154, symBinAddr: 0x90F40, symSize: 0x174 }
  - { offset: 0x23D04E, size: 0x8, addend: 0x0, symName: __ZNK7gguf_kv6get_neEv, symObjAddr: 0x42C8, symBinAddr: 0x910B4, symSize: 0x144 }
  - { offset: 0x23D098, size: 0x8, addend: 0x0, symName: _gguf_get_val_i8, symObjAddr: 0x440C, symBinAddr: 0x911F8, symSize: 0x178 }
  - { offset: 0x23D2F5, size: 0x8, addend: 0x0, symName: _gguf_get_val_u16, symObjAddr: 0x4584, symBinAddr: 0x91370, symSize: 0x178 }
  - { offset: 0x23D33F, size: 0x8, addend: 0x0, symName: _gguf_get_val_u16, symObjAddr: 0x4584, symBinAddr: 0x91370, symSize: 0x178 }
  - { offset: 0x23D59C, size: 0x8, addend: 0x0, symName: _gguf_get_val_i16, symObjAddr: 0x46FC, symBinAddr: 0x914E8, symSize: 0x178 }
  - { offset: 0x23D5E6, size: 0x8, addend: 0x0, symName: _gguf_get_val_i16, symObjAddr: 0x46FC, symBinAddr: 0x914E8, symSize: 0x178 }
  - { offset: 0x23D843, size: 0x8, addend: 0x0, symName: _gguf_get_val_i32, symObjAddr: 0x4874, symBinAddr: 0x91660, symSize: 0x178 }
  - { offset: 0x23D88D, size: 0x8, addend: 0x0, symName: _gguf_get_val_i32, symObjAddr: 0x4874, symBinAddr: 0x91660, symSize: 0x178 }
  - { offset: 0x23DAEA, size: 0x8, addend: 0x0, symName: _gguf_get_val_f32, symObjAddr: 0x49EC, symBinAddr: 0x917D8, symSize: 0x178 }
  - { offset: 0x23DB34, size: 0x8, addend: 0x0, symName: _gguf_get_val_f32, symObjAddr: 0x49EC, symBinAddr: 0x917D8, symSize: 0x178 }
  - { offset: 0x23DD91, size: 0x8, addend: 0x0, symName: _gguf_get_val_u64, symObjAddr: 0x4B64, symBinAddr: 0x91950, symSize: 0x178 }
  - { offset: 0x23DDDB, size: 0x8, addend: 0x0, symName: _gguf_get_val_u64, symObjAddr: 0x4B64, symBinAddr: 0x91950, symSize: 0x178 }
  - { offset: 0x23E038, size: 0x8, addend: 0x0, symName: _gguf_get_val_i64, symObjAddr: 0x4CDC, symBinAddr: 0x91AC8, symSize: 0x178 }
  - { offset: 0x23E082, size: 0x8, addend: 0x0, symName: _gguf_get_val_i64, symObjAddr: 0x4CDC, symBinAddr: 0x91AC8, symSize: 0x178 }
  - { offset: 0x23E2DF, size: 0x8, addend: 0x0, symName: _gguf_get_val_f64, symObjAddr: 0x4E54, symBinAddr: 0x91C40, symSize: 0x178 }
  - { offset: 0x23E329, size: 0x8, addend: 0x0, symName: _gguf_get_val_f64, symObjAddr: 0x4E54, symBinAddr: 0x91C40, symSize: 0x178 }
  - { offset: 0x23E586, size: 0x8, addend: 0x0, symName: _gguf_get_val_bool, symObjAddr: 0x4FCC, symBinAddr: 0x91DB8, symSize: 0x178 }
  - { offset: 0x23E5D0, size: 0x8, addend: 0x0, symName: _gguf_get_val_bool, symObjAddr: 0x4FCC, symBinAddr: 0x91DB8, symSize: 0x178 }
  - { offset: 0x23E82D, size: 0x8, addend: 0x0, symName: _gguf_get_val_str, symObjAddr: 0x5144, symBinAddr: 0x91F30, symSize: 0x130 }
  - { offset: 0x23E86B, size: 0x8, addend: 0x0, symName: _gguf_get_val_str, symObjAddr: 0x5144, symBinAddr: 0x91F30, symSize: 0x130 }
  - { offset: 0x23EA5D, size: 0x8, addend: 0x0, symName: _gguf_get_val_data, symObjAddr: 0x5274, symBinAddr: 0x92060, symSize: 0xE8 }
  - { offset: 0x23EA71, size: 0x8, addend: 0x0, symName: _gguf_get_val_data, symObjAddr: 0x5274, symBinAddr: 0x92060, symSize: 0xE8 }
  - { offset: 0x23EBA1, size: 0x8, addend: 0x0, symName: _gguf_get_n_tensors, symObjAddr: 0x535C, symBinAddr: 0x92148, symSize: 0x24 }
  - { offset: 0x23EBB5, size: 0x8, addend: 0x0, symName: _gguf_get_n_tensors, symObjAddr: 0x535C, symBinAddr: 0x92148, symSize: 0x24 }
  - { offset: 0x23EBD7, size: 0x8, addend: 0x0, symName: _gguf_get_n_tensors, symObjAddr: 0x535C, symBinAddr: 0x92148, symSize: 0x24 }
  - { offset: 0x23EC10, size: 0x8, addend: 0x0, symName: _gguf_find_tensor, symObjAddr: 0x5380, symBinAddr: 0x9216C, symSize: 0x7C }
  - { offset: 0x23ECAF, size: 0x8, addend: 0x0, symName: _gguf_get_tensor_name, symObjAddr: 0x53FC, symBinAddr: 0x921E8, symSize: 0x6C }
  - { offset: 0x23ED30, size: 0x8, addend: 0x0, symName: _gguf_get_tensor_offset, symObjAddr: 0x5468, symBinAddr: 0x92254, symSize: 0x6C }
  - { offset: 0x23ED44, size: 0x8, addend: 0x0, symName: _gguf_get_tensor_offset, symObjAddr: 0x5468, symBinAddr: 0x92254, symSize: 0x6C }
  - { offset: 0x23EDC5, size: 0x8, addend: 0x0, symName: _gguf_get_tensor_type, symObjAddr: 0x54D4, symBinAddr: 0x922C0, symSize: 0x6C }
  - { offset: 0x23EDFB, size: 0x8, addend: 0x0, symName: _gguf_get_tensor_type, symObjAddr: 0x54D4, symBinAddr: 0x922C0, symSize: 0x6C }
  - { offset: 0x23EE9B, size: 0x8, addend: 0x0, symName: _gguf_get_tensor_size, symObjAddr: 0x5540, symBinAddr: 0x9232C, symSize: 0x68 }
  - { offset: 0x23EEAF, size: 0x8, addend: 0x0, symName: _gguf_get_tensor_size, symObjAddr: 0x5540, symBinAddr: 0x9232C, symSize: 0x68 }
  - { offset: 0x23EF5D, size: 0x8, addend: 0x0, symName: _gguf_remove_key, symObjAddr: 0x55A8, symBinAddr: 0x92394, symSize: 0x138 }
  - { offset: 0x23F10B, size: 0x8, addend: 0x0, symName: _gguf_remove_key, symObjAddr: 0x55A8, symBinAddr: 0x92394, symSize: 0x138 }
  - { offset: 0x23F93F, size: 0x8, addend: 0x0, symName: __ZNKSt3__111__move_implINS_17_ClassicAlgPolicyEEclB9nqe210106IP7gguf_kvS5_S5_EENS_4pairIT_T1_EES7_T0_S8_, symObjAddr: 0xF34C, symBinAddr: 0x9BB9C, symSize: 0x12C }
  - { offset: 0x2401A5, size: 0x8, addend: 0x0, symName: _gguf_set_val_u8, symObjAddr: 0x56E0, symBinAddr: 0x924CC, symSize: 0x1E4 }
  - { offset: 0x24084F, size: 0x8, addend: 0x0, symName: __ZNSt3__19allocatorI7gguf_kvE9constructB9nqe210106IS1_JRPKcRhEEEvPT_DpOT0_, symObjAddr: 0xF5B0, symBinAddr: 0x9BE00, symSize: 0x104 }
  - { offset: 0x240D77, size: 0x8, addend: 0x0, symName: __ZNSt3__16vectorI7gguf_kvNS_9allocatorIS1_EEE24__emplace_back_slow_pathIJRPKcRhEEEPS1_DpOT_, symObjAddr: 0xF478, symBinAddr: 0x9BCC8, symSize: 0x138 }
  - { offset: 0x241135, size: 0x8, addend: 0x0, symName: __ZNSt3__114__split_bufferI7gguf_kvRNS_9allocatorIS1_EEED1Ev, symObjAddr: 0xA6D0, symBinAddr: 0x9713C, symSize: 0x30 }
  - { offset: 0x24125D, size: 0x8, addend: 0x0, symName: _gguf_set_val_i8, symObjAddr: 0x58C4, symBinAddr: 0x926B0, symSize: 0x1E4 }
  - { offset: 0x2418F5, size: 0x8, addend: 0x0, symName: __ZNSt3__19allocatorI7gguf_kvE9constructB9nqe210106IS1_JRPKcRaEEEvPT_DpOT0_, symObjAddr: 0xF7EC, symBinAddr: 0x9C03C, symSize: 0x104 }
  - { offset: 0x241E1D, size: 0x8, addend: 0x0, symName: __ZNSt3__16vectorI7gguf_kvNS_9allocatorIS1_EEE24__emplace_back_slow_pathIJRPKcRaEEEPS1_DpOT_, symObjAddr: 0xF6B4, symBinAddr: 0x9BF04, symSize: 0x138 }
  - { offset: 0x2422EE, size: 0x8, addend: 0x0, symName: _gguf_set_val_u16, symObjAddr: 0x5AA8, symBinAddr: 0x92894, symSize: 0x1E4 }
  - { offset: 0x242986, size: 0x8, addend: 0x0, symName: __ZNSt3__19allocatorI7gguf_kvE9constructB9nqe210106IS1_JRPKcRtEEEvPT_DpOT0_, symObjAddr: 0xFA28, symBinAddr: 0x9C278, symSize: 0x104 }
  - { offset: 0x242EAE, size: 0x8, addend: 0x0, symName: __ZNSt3__16vectorI7gguf_kvNS_9allocatorIS1_EEE24__emplace_back_slow_pathIJRPKcRtEEEPS1_DpOT_, symObjAddr: 0xF8F0, symBinAddr: 0x9C140, symSize: 0x138 }
  - { offset: 0x24337F, size: 0x8, addend: 0x0, symName: _gguf_set_val_i16, symObjAddr: 0x5C8C, symBinAddr: 0x92A78, symSize: 0x1E4 }
  - { offset: 0x243A17, size: 0x8, addend: 0x0, symName: __ZNSt3__19allocatorI7gguf_kvE9constructB9nqe210106IS1_JRPKcRsEEEvPT_DpOT0_, symObjAddr: 0xFC64, symBinAddr: 0x9C4B4, symSize: 0x104 }
  - { offset: 0x243F3F, size: 0x8, addend: 0x0, symName: __ZNSt3__16vectorI7gguf_kvNS_9allocatorIS1_EEE24__emplace_back_slow_pathIJRPKcRsEEEPS1_DpOT_, symObjAddr: 0xFB2C, symBinAddr: 0x9C37C, symSize: 0x138 }
  - { offset: 0x244410, size: 0x8, addend: 0x0, symName: _gguf_set_val_u32, symObjAddr: 0x5E70, symBinAddr: 0x92C5C, symSize: 0x1E0 }
  - { offset: 0x244ABF, size: 0x8, addend: 0x0, symName: __ZNSt3__19allocatorI7gguf_kvE9constructB9nqe210106IS1_JRPKcRjEEEvPT_DpOT0_, symObjAddr: 0xFEA0, symBinAddr: 0x9C6F0, symSize: 0x104 }
  - { offset: 0x244FEF, size: 0x8, addend: 0x0, symName: __ZNSt3__16vectorI7gguf_kvNS_9allocatorIS1_EEE24__emplace_back_slow_pathIJRPKcRjEEEPS1_DpOT_, symObjAddr: 0xFD68, symBinAddr: 0x9C5B8, symSize: 0x138 }
  - { offset: 0x2454C0, size: 0x8, addend: 0x0, symName: _gguf_set_val_i32, symObjAddr: 0x6050, symBinAddr: 0x92E3C, symSize: 0x1E4 }
  - { offset: 0x245B58, size: 0x8, addend: 0x0, symName: __ZNSt3__19allocatorI7gguf_kvE9constructB9nqe210106IS1_JRPKcRiEEEvPT_DpOT0_, symObjAddr: 0x100DC, symBinAddr: 0x9C92C, symSize: 0x104 }
  - { offset: 0x246088, size: 0x8, addend: 0x0, symName: __ZNSt3__16vectorI7gguf_kvNS_9allocatorIS1_EEE24__emplace_back_slow_pathIJRPKcRiEEEPS1_DpOT_, symObjAddr: 0xFFA4, symBinAddr: 0x9C7F4, symSize: 0x138 }
  - { offset: 0x246559, size: 0x8, addend: 0x0, symName: _gguf_set_val_f32, symObjAddr: 0x6234, symBinAddr: 0x93020, symSize: 0x1E4 }
  - { offset: 0x246BF1, size: 0x8, addend: 0x0, symName: __ZNSt3__19allocatorI7gguf_kvE9constructB9nqe210106IS1_JRPKcRfEEEvPT_DpOT0_, symObjAddr: 0x10318, symBinAddr: 0x9CB68, symSize: 0x104 }
  - { offset: 0x247122, size: 0x8, addend: 0x0, symName: __ZNSt3__16vectorI7gguf_kvNS_9allocatorIS1_EEE24__emplace_back_slow_pathIJRPKcRfEEEPS1_DpOT_, symObjAddr: 0x101E0, symBinAddr: 0x9CA30, symSize: 0x138 }
  - { offset: 0x2475F3, size: 0x8, addend: 0x0, symName: _gguf_set_val_u64, symObjAddr: 0x6418, symBinAddr: 0x93204, symSize: 0x1E0 }
  - { offset: 0x247C8B, size: 0x8, addend: 0x0, symName: __ZNSt3__19allocatorI7gguf_kvE9constructB9nqe210106IS1_JRPKcRyEEEvPT_DpOT0_, symObjAddr: 0x10554, symBinAddr: 0x9CDA4, symSize: 0x104 }
  - { offset: 0x2481BB, size: 0x8, addend: 0x0, symName: __ZNSt3__16vectorI7gguf_kvNS_9allocatorIS1_EEE24__emplace_back_slow_pathIJRPKcRyEEEPS1_DpOT_, symObjAddr: 0x1041C, symBinAddr: 0x9CC6C, symSize: 0x138 }
  - { offset: 0x24868C, size: 0x8, addend: 0x0, symName: _gguf_set_val_i64, symObjAddr: 0x65F8, symBinAddr: 0x933E4, symSize: 0x1E0 }
  - { offset: 0x248D24, size: 0x8, addend: 0x0, symName: __ZNSt3__19allocatorI7gguf_kvE9constructB9nqe210106IS1_JRPKcRxEEEvPT_DpOT0_, symObjAddr: 0x10790, symBinAddr: 0x9CFE0, symSize: 0x104 }
  - { offset: 0x249254, size: 0x8, addend: 0x0, symName: __ZNSt3__16vectorI7gguf_kvNS_9allocatorIS1_EEE24__emplace_back_slow_pathIJRPKcRxEEEPS1_DpOT_, symObjAddr: 0x10658, symBinAddr: 0x9CEA8, symSize: 0x138 }
  - { offset: 0x249725, size: 0x8, addend: 0x0, symName: _gguf_set_val_f64, symObjAddr: 0x67D8, symBinAddr: 0x935C4, symSize: 0x1E4 }
  - { offset: 0x249DBD, size: 0x8, addend: 0x0, symName: __ZNSt3__19allocatorI7gguf_kvE9constructB9nqe210106IS1_JRPKcRdEEEvPT_DpOT0_, symObjAddr: 0x109CC, symBinAddr: 0x9D21C, symSize: 0x104 }
  - { offset: 0x24A2EE, size: 0x8, addend: 0x0, symName: __ZNSt3__16vectorI7gguf_kvNS_9allocatorIS1_EEE24__emplace_back_slow_pathIJRPKcRdEEEPS1_DpOT_, symObjAddr: 0x10894, symBinAddr: 0x9D0E4, symSize: 0x138 }
  - { offset: 0x24A7BF, size: 0x8, addend: 0x0, symName: _gguf_set_val_bool, symObjAddr: 0x69BC, symBinAddr: 0x937A8, symSize: 0x1E4 }
  - { offset: 0x24AE57, size: 0x8, addend: 0x0, symName: __ZNSt3__19allocatorI7gguf_kvE9constructB9nqe210106IS1_JRPKcRbEEEvPT_DpOT0_, symObjAddr: 0x10C08, symBinAddr: 0x9D458, symSize: 0x104 }
  - { offset: 0x24B37F, size: 0x8, addend: 0x0, symName: __ZNSt3__16vectorI7gguf_kvNS_9allocatorIS1_EEE24__emplace_back_slow_pathIJRPKcRbEEEPS1_DpOT_, symObjAddr: 0x10AD0, symBinAddr: 0x9D320, symSize: 0x138 }
  - { offset: 0x24B856, size: 0x8, addend: 0x0, symName: _gguf_set_val_str, symObjAddr: 0x6BA0, symBinAddr: 0x9398C, symSize: 0x28C }
  - { offset: 0x24C2B0, size: 0x8, addend: 0x0, symName: __ZNSt3__19allocatorI7gguf_kvE9constructB9nqe210106IS1_JRPKcNS_12basic_stringIcNS_11char_traitsIcEENS0_IcEEEEEEEvPT_DpOT0_, symObjAddr: 0x10E44, symBinAddr: 0x9D694, symSize: 0x104 }
  - { offset: 0x24C7E7, size: 0x8, addend: 0x0, symName: __ZNSt3__16vectorI7gguf_kvNS_9allocatorIS1_EEE24__emplace_back_slow_pathIJRPKcNS_12basic_stringIcNS_11char_traitsIcEENS2_IcEEEEEEEPS1_DpOT_, symObjAddr: 0x10D0C, symBinAddr: 0x9D55C, symSize: 0x138 }
  - { offset: 0x24CEA2, size: 0x8, addend: 0x0, symName: _gguf_set_arr_data, symObjAddr: 0x6E2C, symBinAddr: 0x93C18, symSize: 0x368 }
  - { offset: 0x24DB53, size: 0x8, addend: 0x0, symName: __ZNSt3__19allocatorI7gguf_kvE9constructB9nqe210106IS1_JRPKcRNS_6vectorIaNS0_IaEEEEEEEvPT_DpOT0_, symObjAddr: 0x11080, symBinAddr: 0x9D8D0, symSize: 0x104 }
  - { offset: 0x24E08A, size: 0x8, addend: 0x0, symName: __ZNSt3__16vectorI7gguf_kvNS_9allocatorIS1_EEE24__emplace_back_slow_pathIJRPKcRNS0_IaNS2_IaEEEEEEEPS1_DpOT_, symObjAddr: 0x10F48, symBinAddr: 0x9D798, symSize: 0x138 }
  - { offset: 0x24E43E, size: 0x8, addend: 0x0, symName: __ZNSt3__16vectorIaNS_9allocatorIaEEE20__throw_length_errorB9nqe210106Ev, symObjAddr: 0x90CC, symBinAddr: 0x95E48, symSize: 0x14 }
  - { offset: 0x24E7CF, size: 0x8, addend: 0x0, symName: _gguf_set_arr_str, symObjAddr: 0x7194, symBinAddr: 0x93F80, symSize: 0x328 }
  - { offset: 0x24F3E3, size: 0x8, addend: 0x0, symName: __ZNSt3__19allocatorI7gguf_kvE9constructB9nqe210106IS1_JRPKcRNS_6vectorINS_12basic_stringIcNS_11char_traitsIcEENS0_IcEEEENS0_ISC_EEEEEEEvPT_DpOT0_, symObjAddr: 0x1133C, symBinAddr: 0x9DB0C, symSize: 0x104 }
  - { offset: 0x24F91A, size: 0x8, addend: 0x0, symName: __ZNSt3__16vectorI7gguf_kvNS_9allocatorIS1_EEE24__emplace_back_slow_pathIJRPKcRNS0_INS_12basic_stringIcNS_11char_traitsIcEENS2_IcEEEENS2_ISD_EEEEEEEPS1_DpOT_, symObjAddr: 0x11204, symBinAddr: 0x9D9D4, symSize: 0x138 }
  - { offset: 0x24FCD8, size: 0x8, addend: 0x0, symName: __ZNSt3__16vectorI7gguf_kvNS_9allocatorIS1_EEE24__emplace_back_slow_pathIJRKNS_12basic_stringIcNS_11char_traitsIcEENS2_IcEEEERNS0_ISA_NS2_ISA_EEEEEEEPS1_DpOT_, symObjAddr: 0xDBE8, symBinAddr: 0x9A5DC, symSize: 0x134 }
  - { offset: 0x250089, size: 0x8, addend: 0x0, symName: _gguf_set_kv, symObjAddr: 0x752C, symBinAddr: 0x942A8, symSize: 0x6E4 }
  - { offset: 0x251C77, size: 0x8, addend: 0x0, symName: __ZNSt3__16vectorIPKcNS_9allocatorIS2_EEE20__throw_length_errorB9nqe210106Ev, symObjAddr: 0x11440, symBinAddr: 0x9DC10, symSize: 0x14 }
  - { offset: 0x251C8F, size: 0x8, addend: 0x0, symName: __ZN16gguf_writer_base5writeERK7gguf_kv, symObjAddr: 0x11454, symBinAddr: 0x9DC24, symSize: 0x3B0 }
  - { offset: 0x251D23, size: 0x8, addend: 0x0, symName: _gguf_add_tensor, symObjAddr: 0x7C10, symBinAddr: 0x9498C, symSize: 0x250 }
  - { offset: 0x252206, size: 0x8, addend: 0x0, symName: _gguf_set_tensor_type, symObjAddr: 0x7E60, symBinAddr: 0x94BDC, symSize: 0x184 }
  - { offset: 0x252233, size: 0x8, addend: 0x0, symName: _gguf_set_tensor_type, symObjAddr: 0x7E60, symBinAddr: 0x94BDC, symSize: 0x184 }
  - { offset: 0x25245F, size: 0x8, addend: 0x0, symName: _gguf_set_tensor_data, symObjAddr: 0x7FE4, symBinAddr: 0x94D60, symSize: 0x98 }
  - { offset: 0x252473, size: 0x8, addend: 0x0, symName: _gguf_set_tensor_data, symObjAddr: 0x7FE4, symBinAddr: 0x94D60, symSize: 0x98 }
  - { offset: 0x252A28, size: 0x8, addend: 0x0, symName: __Z17gguf_write_to_bufPK12gguf_contextRNSt3__16vectorIaNS2_9allocatorIaEEEEb, symObjAddr: 0x807C, symBinAddr: 0x94DF8, symSize: 0x698 }
  - { offset: 0x254449, size: 0x8, addend: 0x0, symName: _gguf_write_to_file_ptr, symObjAddr: 0x8714, symBinAddr: 0x95490, symSize: 0x3D0 }
  - { offset: 0x254454, size: 0x8, addend: 0x0, symName: __ZN15gguf_writer_buf5writeEa, symObjAddr: 0x8D40, symBinAddr: 0x95ABC, symSize: 0xE0 }
  - { offset: 0x25485D, size: 0x8, addend: 0x0, symName: __ZN15gguf_writer_buf5writeERKNSt3__16vectorIaNS0_9allocatorIaEEEE, symObjAddr: 0x8E20, symBinAddr: 0x95B9C, symSize: 0x48 }
  - { offset: 0x254868, size: 0x8, addend: 0x0, symName: __ZN16gguf_writer_base5writeERK7gguf_kv, symObjAddr: 0x11454, symBinAddr: 0x9DC24, symSize: 0x3B0 }
  - { offset: 0x254DB3, size: 0x8, addend: 0x0, symName: __ZN16gguf_writer_base17write_tensor_metaERK16gguf_tensor_info, symObjAddr: 0x11804, symBinAddr: 0x9DFD4, symSize: 0x234 }
  - { offset: 0x254DC7, size: 0x8, addend: 0x0, symName: __ZN16gguf_writer_base17write_tensor_metaERK16gguf_tensor_info, symObjAddr: 0x11804, symBinAddr: 0x9DFD4, symSize: 0x234 }
  - { offset: 0x255154, size: 0x8, addend: 0x0, symName: __ZN15gguf_writer_buf17write_tensor_dataERK16gguf_tensor_infomm, symObjAddr: 0x8E68, symBinAddr: 0x95BE4, symSize: 0x264 }
  - { offset: 0x25580F, size: 0x8, addend: 0x0, symName: __ZNSt3__16vectorIaNS_9allocatorIaEEE20__throw_length_errorB9nqe210106Ev, symObjAddr: 0x90CC, symBinAddr: 0x95E48, symSize: 0x14 }
  - { offset: 0x255922, size: 0x8, addend: 0x0, symName: _gguf_write_to_file_ptr, symObjAddr: 0x8714, symBinAddr: 0x95490, symSize: 0x3D0 }
  - { offset: 0x255F82, size: 0x8, addend: 0x0, symName: __ZN16gguf_writer_file5writeEa, symObjAddr: 0x95F8, symBinAddr: 0x962D8, symSize: 0x288 }
  - { offset: 0x2567EE, size: 0x8, addend: 0x0, symName: __ZN16gguf_writer_file17write_tensor_dataERK16gguf_tensor_infomm, symObjAddr: 0x9B1C, symBinAddr: 0x967FC, symSize: 0x1B4 }
  - { offset: 0x256D73, size: 0x8, addend: 0x0, symName: _gguf_write_to_file, symObjAddr: 0x8AE4, symBinAddr: 0x95860, symSize: 0xC4 }
  - { offset: 0x256E5E, size: 0x8, addend: 0x0, symName: _gguf_get_meta_size, symObjAddr: 0x8BA8, symBinAddr: 0x95924, symSize: 0x68 }
  - { offset: 0x257167, size: 0x8, addend: 0x0, symName: _gguf_get_meta_data, symObjAddr: 0x8C10, symBinAddr: 0x9598C, symSize: 0x78 }
  - { offset: 0x25750B, size: 0x8, addend: 0x0, symName: __ZN15gguf_writer_buf5writeERKNSt3__16vectorIaNS0_9allocatorIaEEEE, symObjAddr: 0x8E20, symBinAddr: 0x95B9C, symSize: 0x48 }
  - { offset: 0x257647, size: 0x8, addend: 0x0, symName: __ZNSt3__16vectorIaNS_9allocatorIaEEE18__insert_with_sizeB9nqe210106INS_11__wrap_iterIPKaEES8_EENS5_IPaEES8_T_T0_l, symObjAddr: 0x917C, symBinAddr: 0x95E5C, symSize: 0x47C }
  - { offset: 0x2581A4, size: 0x8, addend: 0x0, symName: __ZN16gguf_writer_file5writeEa, symObjAddr: 0x95F8, symBinAddr: 0x962D8, symSize: 0x288 }
  - { offset: 0x258818, size: 0x8, addend: 0x0, symName: __ZN16gguf_writer_file5writeERKNSt3__16vectorIaNS0_9allocatorIaEEEE, symObjAddr: 0x9880, symBinAddr: 0x96560, symSize: 0x29C }
  - { offset: 0x259528, size: 0x8, addend: 0x0, symName: __ZNSt3__13mapI9gguf_typemNS_4lessIS1_EENS_9allocatorINS_4pairIKS1_mEEEEEC2B9nqe210106ESt16initializer_listIS7_ERKS3_, symObjAddr: 0x9CD0, symBinAddr: 0x969B0, symSize: 0x178 }
  - { offset: 0x259F1B, size: 0x8, addend: 0x0, symName: __ZNSt3__13mapI9gguf_typePKcNS_4lessIS1_EENS_9allocatorINS_4pairIKS1_S3_EEEEEC2B9nqe210106ESt16initializer_listIS9_ERKS5_, symObjAddr: 0xA060, symBinAddr: 0x96B6C, symSize: 0x178 }
  - { offset: 0x25AA86, size: 0x8, addend: 0x0, symName: __ZNSt3__16vectorI7gguf_kvNS_9allocatorIS1_EEE20__throw_length_errorB9nqe210106Ev, symObjAddr: 0xA700, symBinAddr: 0x9716C, symSize: 0x14 }
  - { offset: 0x25AA9E, size: 0x8, addend: 0x0, symName: __ZNSt3__134__uninitialized_allocator_relocateB9nqe210106INS_9allocatorI7gguf_kvEEPS2_EEvRT_T0_S7_S7_, symObjAddr: 0xA714, symBinAddr: 0x97180, symSize: 0x11C }
  - { offset: 0x25AAA9, size: 0x8, addend: 0x0, symName: __ZNSt3__114__split_bufferI7gguf_kvRNS_9allocatorIS1_EEED1Ev, symObjAddr: 0xA6D0, symBinAddr: 0x9713C, symSize: 0x30 }
  - { offset: 0x25ACE8, size: 0x8, addend: 0x0, symName: __ZN7gguf_kvC2IhEERKNSt3__112basic_stringIcNS1_11char_traitsIcEENS1_9allocatorIcEEEERKNS1_6vectorIT_NS5_ISB_EEEE.cold.1, symObjAddr: 0x11C54, symBinAddr: 0x14A6FC, symSize: 0x10 }
  - { offset: 0x25AD10, size: 0x8, addend: 0x0, symName: __ZN7gguf_kvC2IhEERKNSt3__112basic_stringIcNS1_11char_traitsIcEENS1_9allocatorIcEEEERKNS1_6vectorIT_NS5_ISB_EEEE.cold.1, symObjAddr: 0x11C54, symBinAddr: 0x14A6FC, symSize: 0x10 }
  - { offset: 0x25AD2D, size: 0x8, addend: 0x0, symName: __ZN7gguf_kvC2IhEERKNSt3__112basic_stringIcNS1_11char_traitsIcEENS1_9allocatorIcEEEERKNS1_6vectorIT_NS5_ISB_EEEE.cold.1, symObjAddr: 0x11C54, symBinAddr: 0x14A6FC, symSize: 0x10 }
  - { offset: 0x25AD4B, size: 0x8, addend: 0x0, symName: __ZN7gguf_kvC2IhEERKNSt3__112basic_stringIcNS1_11char_traitsIcEENS1_9allocatorIcEEEERKNS1_6vectorIT_NS5_ISB_EEEE.cold.1, symObjAddr: 0x11C54, symBinAddr: 0x14A6FC, symSize: 0x10 }
  - { offset: 0x25AD69, size: 0x8, addend: 0x0, symName: __ZNSt3__114__split_bufferI7gguf_kvRNS_9allocatorIS1_EEE5clearB9nqe210106Ev, symObjAddr: 0xA830, symBinAddr: 0x9729C, symSize: 0xBC }
  - { offset: 0x25B462, size: 0x8, addend: 0x0, symName: __ZN7gguf_kvC2IhEERKNSt3__112basic_stringIcNS1_11char_traitsIcEENS1_9allocatorIcEEEET_.cold.1, symObjAddr: 0x11C64, symBinAddr: 0x14A70C, symSize: 0x10 }
  - { offset: 0x25B48A, size: 0x8, addend: 0x0, symName: __ZN7gguf_kvC2IhEERKNSt3__112basic_stringIcNS1_11char_traitsIcEENS1_9allocatorIcEEEET_.cold.1, symObjAddr: 0x11C64, symBinAddr: 0x14A70C, symSize: 0x10 }
  - { offset: 0x25B4A7, size: 0x8, addend: 0x0, symName: __ZN7gguf_kvC2IhEERKNSt3__112basic_stringIcNS1_11char_traitsIcEENS1_9allocatorIcEEEET_.cold.1, symObjAddr: 0x11C64, symBinAddr: 0x14A70C, symSize: 0x10 }
  - { offset: 0x25B4C5, size: 0x8, addend: 0x0, symName: __ZN7gguf_kvC2IhEERKNSt3__112basic_stringIcNS1_11char_traitsIcEENS1_9allocatorIcEEEET_.cold.1, symObjAddr: 0x11C64, symBinAddr: 0x14A70C, symSize: 0x10 }
  - { offset: 0x25B505, size: 0x8, addend: 0x0, symName: __ZN7gguf_kvC2IaEERKNSt3__112basic_stringIcNS1_11char_traitsIcEENS1_9allocatorIcEEEERKNS1_6vectorIT_NS5_ISB_EEEE.cold.1, symObjAddr: 0x11C74, symBinAddr: 0x14A71C, symSize: 0x10 }
  - { offset: 0x25B52D, size: 0x8, addend: 0x0, symName: __ZN7gguf_kvC2IaEERKNSt3__112basic_stringIcNS1_11char_traitsIcEENS1_9allocatorIcEEEERKNS1_6vectorIT_NS5_ISB_EEEE.cold.1, symObjAddr: 0x11C74, symBinAddr: 0x14A71C, symSize: 0x10 }
  - { offset: 0x25B54A, size: 0x8, addend: 0x0, symName: __ZN7gguf_kvC2IaEERKNSt3__112basic_stringIcNS1_11char_traitsIcEENS1_9allocatorIcEEEERKNS1_6vectorIT_NS5_ISB_EEEE.cold.1, symObjAddr: 0x11C74, symBinAddr: 0x14A71C, symSize: 0x10 }
  - { offset: 0x25B568, size: 0x8, addend: 0x0, symName: __ZN7gguf_kvC2IaEERKNSt3__112basic_stringIcNS1_11char_traitsIcEENS1_9allocatorIcEEEERKNS1_6vectorIT_NS5_ISB_EEEE.cold.1, symObjAddr: 0x11C74, symBinAddr: 0x14A71C, symSize: 0x10 }
  - { offset: 0x25B586, size: 0x8, addend: 0x0, symName: __ZN7gguf_kvC2IaEERKNSt3__112basic_stringIcNS1_11char_traitsIcEENS1_9allocatorIcEEEET_.cold.1, symObjAddr: 0x11C84, symBinAddr: 0x14A72C, symSize: 0x10 }
  - { offset: 0x25B5AE, size: 0x8, addend: 0x0, symName: __ZN7gguf_kvC2IaEERKNSt3__112basic_stringIcNS1_11char_traitsIcEENS1_9allocatorIcEEEET_.cold.1, symObjAddr: 0x11C84, symBinAddr: 0x14A72C, symSize: 0x10 }
  - { offset: 0x25B5CB, size: 0x8, addend: 0x0, symName: __ZN7gguf_kvC2IaEERKNSt3__112basic_stringIcNS1_11char_traitsIcEENS1_9allocatorIcEEEET_.cold.1, symObjAddr: 0x11C84, symBinAddr: 0x14A72C, symSize: 0x10 }
  - { offset: 0x25B5E9, size: 0x8, addend: 0x0, symName: __ZN7gguf_kvC2IaEERKNSt3__112basic_stringIcNS1_11char_traitsIcEENS1_9allocatorIcEEEET_.cold.1, symObjAddr: 0x11C84, symBinAddr: 0x14A72C, symSize: 0x10 }
  - { offset: 0x25B623, size: 0x8, addend: 0x0, symName: __ZN7gguf_kvC2ItEERKNSt3__112basic_stringIcNS1_11char_traitsIcEENS1_9allocatorIcEEEERKNS1_6vectorIT_NS5_ISB_EEEE.cold.1, symObjAddr: 0x11C94, symBinAddr: 0x14A73C, symSize: 0x10 }
  - { offset: 0x25B64B, size: 0x8, addend: 0x0, symName: __ZN7gguf_kvC2ItEERKNSt3__112basic_stringIcNS1_11char_traitsIcEENS1_9allocatorIcEEEERKNS1_6vectorIT_NS5_ISB_EEEE.cold.1, symObjAddr: 0x11C94, symBinAddr: 0x14A73C, symSize: 0x10 }
  - { offset: 0x25B668, size: 0x8, addend: 0x0, symName: __ZN7gguf_kvC2ItEERKNSt3__112basic_stringIcNS1_11char_traitsIcEENS1_9allocatorIcEEEERKNS1_6vectorIT_NS5_ISB_EEEE.cold.1, symObjAddr: 0x11C94, symBinAddr: 0x14A73C, symSize: 0x10 }
  - { offset: 0x25B686, size: 0x8, addend: 0x0, symName: __ZN7gguf_kvC2ItEERKNSt3__112basic_stringIcNS1_11char_traitsIcEENS1_9allocatorIcEEEERKNS1_6vectorIT_NS5_ISB_EEEE.cold.1, symObjAddr: 0x11C94, symBinAddr: 0x14A73C, symSize: 0x10 }
  - { offset: 0x25B6A4, size: 0x8, addend: 0x0, symName: __ZN7gguf_kvC2ItEERKNSt3__112basic_stringIcNS1_11char_traitsIcEENS1_9allocatorIcEEEET_.cold.1, symObjAddr: 0x11CA4, symBinAddr: 0x14A74C, symSize: 0x10 }
  - { offset: 0x25B6CC, size: 0x8, addend: 0x0, symName: __ZN7gguf_kvC2ItEERKNSt3__112basic_stringIcNS1_11char_traitsIcEENS1_9allocatorIcEEEET_.cold.1, symObjAddr: 0x11CA4, symBinAddr: 0x14A74C, symSize: 0x10 }
  - { offset: 0x25B6E9, size: 0x8, addend: 0x0, symName: __ZN7gguf_kvC2ItEERKNSt3__112basic_stringIcNS1_11char_traitsIcEENS1_9allocatorIcEEEET_.cold.1, symObjAddr: 0x11CA4, symBinAddr: 0x14A74C, symSize: 0x10 }
  - { offset: 0x25B707, size: 0x8, addend: 0x0, symName: __ZN7gguf_kvC2ItEERKNSt3__112basic_stringIcNS1_11char_traitsIcEENS1_9allocatorIcEEEET_.cold.1, symObjAddr: 0x11CA4, symBinAddr: 0x14A74C, symSize: 0x10 }
  - { offset: 0x25B741, size: 0x8, addend: 0x0, symName: __ZN7gguf_kvC2IsEERKNSt3__112basic_stringIcNS1_11char_traitsIcEENS1_9allocatorIcEEEERKNS1_6vectorIT_NS5_ISB_EEEE.cold.1, symObjAddr: 0x11CB4, symBinAddr: 0x14A75C, symSize: 0x10 }
  - { offset: 0x25B769, size: 0x8, addend: 0x0, symName: __ZN7gguf_kvC2IsEERKNSt3__112basic_stringIcNS1_11char_traitsIcEENS1_9allocatorIcEEEERKNS1_6vectorIT_NS5_ISB_EEEE.cold.1, symObjAddr: 0x11CB4, symBinAddr: 0x14A75C, symSize: 0x10 }
  - { offset: 0x25B786, size: 0x8, addend: 0x0, symName: __ZN7gguf_kvC2IsEERKNSt3__112basic_stringIcNS1_11char_traitsIcEENS1_9allocatorIcEEEERKNS1_6vectorIT_NS5_ISB_EEEE.cold.1, symObjAddr: 0x11CB4, symBinAddr: 0x14A75C, symSize: 0x10 }
  - { offset: 0x25B7A4, size: 0x8, addend: 0x0, symName: __ZN7gguf_kvC2IsEERKNSt3__112basic_stringIcNS1_11char_traitsIcEENS1_9allocatorIcEEEERKNS1_6vectorIT_NS5_ISB_EEEE.cold.1, symObjAddr: 0x11CB4, symBinAddr: 0x14A75C, symSize: 0x10 }
  - { offset: 0x25B7C2, size: 0x8, addend: 0x0, symName: __ZN7gguf_kvC2IsEERKNSt3__112basic_stringIcNS1_11char_traitsIcEENS1_9allocatorIcEEEET_.cold.1, symObjAddr: 0x11CC4, symBinAddr: 0x14A76C, symSize: 0x10 }
  - { offset: 0x25B7EA, size: 0x8, addend: 0x0, symName: __ZN7gguf_kvC2IsEERKNSt3__112basic_stringIcNS1_11char_traitsIcEENS1_9allocatorIcEEEET_.cold.1, symObjAddr: 0x11CC4, symBinAddr: 0x14A76C, symSize: 0x10 }
  - { offset: 0x25B807, size: 0x8, addend: 0x0, symName: __ZN7gguf_kvC2IsEERKNSt3__112basic_stringIcNS1_11char_traitsIcEENS1_9allocatorIcEEEET_.cold.1, symObjAddr: 0x11CC4, symBinAddr: 0x14A76C, symSize: 0x10 }
  - { offset: 0x25B825, size: 0x8, addend: 0x0, symName: __ZN7gguf_kvC2IsEERKNSt3__112basic_stringIcNS1_11char_traitsIcEENS1_9allocatorIcEEEET_.cold.1, symObjAddr: 0x11CC4, symBinAddr: 0x14A76C, symSize: 0x10 }
  - { offset: 0x25B85F, size: 0x8, addend: 0x0, symName: __ZN7gguf_kvC2IjEERKNSt3__112basic_stringIcNS1_11char_traitsIcEENS1_9allocatorIcEEEERKNS1_6vectorIT_NS5_ISB_EEEE.cold.1, symObjAddr: 0x11CD4, symBinAddr: 0x14A77C, symSize: 0x10 }
  - { offset: 0x25B887, size: 0x8, addend: 0x0, symName: __ZN7gguf_kvC2IjEERKNSt3__112basic_stringIcNS1_11char_traitsIcEENS1_9allocatorIcEEEERKNS1_6vectorIT_NS5_ISB_EEEE.cold.1, symObjAddr: 0x11CD4, symBinAddr: 0x14A77C, symSize: 0x10 }
  - { offset: 0x25B8A4, size: 0x8, addend: 0x0, symName: __ZN7gguf_kvC2IjEERKNSt3__112basic_stringIcNS1_11char_traitsIcEENS1_9allocatorIcEEEERKNS1_6vectorIT_NS5_ISB_EEEE.cold.1, symObjAddr: 0x11CD4, symBinAddr: 0x14A77C, symSize: 0x10 }
  - { offset: 0x25B8C2, size: 0x8, addend: 0x0, symName: __ZN7gguf_kvC2IjEERKNSt3__112basic_stringIcNS1_11char_traitsIcEENS1_9allocatorIcEEEERKNS1_6vectorIT_NS5_ISB_EEEE.cold.1, symObjAddr: 0x11CD4, symBinAddr: 0x14A77C, symSize: 0x10 }
  - { offset: 0x25B8E0, size: 0x8, addend: 0x0, symName: __ZN7gguf_kvC2IjEERKNSt3__112basic_stringIcNS1_11char_traitsIcEENS1_9allocatorIcEEEET_.cold.1, symObjAddr: 0x11CE4, symBinAddr: 0x14A78C, symSize: 0x10 }
  - { offset: 0x25B908, size: 0x8, addend: 0x0, symName: __ZN7gguf_kvC2IjEERKNSt3__112basic_stringIcNS1_11char_traitsIcEENS1_9allocatorIcEEEET_.cold.1, symObjAddr: 0x11CE4, symBinAddr: 0x14A78C, symSize: 0x10 }
  - { offset: 0x25B925, size: 0x8, addend: 0x0, symName: __ZN7gguf_kvC2IjEERKNSt3__112basic_stringIcNS1_11char_traitsIcEENS1_9allocatorIcEEEET_.cold.1, symObjAddr: 0x11CE4, symBinAddr: 0x14A78C, symSize: 0x10 }
  - { offset: 0x25B943, size: 0x8, addend: 0x0, symName: __ZN7gguf_kvC2IjEERKNSt3__112basic_stringIcNS1_11char_traitsIcEENS1_9allocatorIcEEEET_.cold.1, symObjAddr: 0x11CE4, symBinAddr: 0x14A78C, symSize: 0x10 }
  - { offset: 0x25B97D, size: 0x8, addend: 0x0, symName: __ZN7gguf_kvC2IiEERKNSt3__112basic_stringIcNS1_11char_traitsIcEENS1_9allocatorIcEEEERKNS1_6vectorIT_NS5_ISB_EEEE.cold.1, symObjAddr: 0x11CF4, symBinAddr: 0x14A79C, symSize: 0x10 }
  - { offset: 0x25B9A5, size: 0x8, addend: 0x0, symName: __ZN7gguf_kvC2IiEERKNSt3__112basic_stringIcNS1_11char_traitsIcEENS1_9allocatorIcEEEERKNS1_6vectorIT_NS5_ISB_EEEE.cold.1, symObjAddr: 0x11CF4, symBinAddr: 0x14A79C, symSize: 0x10 }
  - { offset: 0x25B9C2, size: 0x8, addend: 0x0, symName: __ZN7gguf_kvC2IiEERKNSt3__112basic_stringIcNS1_11char_traitsIcEENS1_9allocatorIcEEEERKNS1_6vectorIT_NS5_ISB_EEEE.cold.1, symObjAddr: 0x11CF4, symBinAddr: 0x14A79C, symSize: 0x10 }
  - { offset: 0x25B9E0, size: 0x8, addend: 0x0, symName: __ZN7gguf_kvC2IiEERKNSt3__112basic_stringIcNS1_11char_traitsIcEENS1_9allocatorIcEEEERKNS1_6vectorIT_NS5_ISB_EEEE.cold.1, symObjAddr: 0x11CF4, symBinAddr: 0x14A79C, symSize: 0x10 }
  - { offset: 0x25B9FE, size: 0x8, addend: 0x0, symName: __ZN7gguf_kvC2IiEERKNSt3__112basic_stringIcNS1_11char_traitsIcEENS1_9allocatorIcEEEET_.cold.1, symObjAddr: 0x11D04, symBinAddr: 0x14A7AC, symSize: 0x10 }
  - { offset: 0x25BA26, size: 0x8, addend: 0x0, symName: __ZN7gguf_kvC2IiEERKNSt3__112basic_stringIcNS1_11char_traitsIcEENS1_9allocatorIcEEEET_.cold.1, symObjAddr: 0x11D04, symBinAddr: 0x14A7AC, symSize: 0x10 }
  - { offset: 0x25BA43, size: 0x8, addend: 0x0, symName: __ZN7gguf_kvC2IiEERKNSt3__112basic_stringIcNS1_11char_traitsIcEENS1_9allocatorIcEEEET_.cold.1, symObjAddr: 0x11D04, symBinAddr: 0x14A7AC, symSize: 0x10 }
  - { offset: 0x25BA61, size: 0x8, addend: 0x0, symName: __ZN7gguf_kvC2IiEERKNSt3__112basic_stringIcNS1_11char_traitsIcEENS1_9allocatorIcEEEET_.cold.1, symObjAddr: 0x11D04, symBinAddr: 0x14A7AC, symSize: 0x10 }
  - { offset: 0x25BA9B, size: 0x8, addend: 0x0, symName: __ZN7gguf_kvC2IfEERKNSt3__112basic_stringIcNS1_11char_traitsIcEENS1_9allocatorIcEEEERKNS1_6vectorIT_NS5_ISB_EEEE.cold.1, symObjAddr: 0x11D14, symBinAddr: 0x14A7BC, symSize: 0x10 }
  - { offset: 0x25BAC3, size: 0x8, addend: 0x0, symName: __ZN7gguf_kvC2IfEERKNSt3__112basic_stringIcNS1_11char_traitsIcEENS1_9allocatorIcEEEERKNS1_6vectorIT_NS5_ISB_EEEE.cold.1, symObjAddr: 0x11D14, symBinAddr: 0x14A7BC, symSize: 0x10 }
  - { offset: 0x25BAE0, size: 0x8, addend: 0x0, symName: __ZN7gguf_kvC2IfEERKNSt3__112basic_stringIcNS1_11char_traitsIcEENS1_9allocatorIcEEEERKNS1_6vectorIT_NS5_ISB_EEEE.cold.1, symObjAddr: 0x11D14, symBinAddr: 0x14A7BC, symSize: 0x10 }
  - { offset: 0x25BAFE, size: 0x8, addend: 0x0, symName: __ZN7gguf_kvC2IfEERKNSt3__112basic_stringIcNS1_11char_traitsIcEENS1_9allocatorIcEEEERKNS1_6vectorIT_NS5_ISB_EEEE.cold.1, symObjAddr: 0x11D14, symBinAddr: 0x14A7BC, symSize: 0x10 }
  - { offset: 0x25BB1C, size: 0x8, addend: 0x0, symName: __ZN7gguf_kvC2IfEERKNSt3__112basic_stringIcNS1_11char_traitsIcEENS1_9allocatorIcEEEET_.cold.1, symObjAddr: 0x11D24, symBinAddr: 0x14A7CC, symSize: 0x10 }
  - { offset: 0x25BB44, size: 0x8, addend: 0x0, symName: __ZN7gguf_kvC2IfEERKNSt3__112basic_stringIcNS1_11char_traitsIcEENS1_9allocatorIcEEEET_.cold.1, symObjAddr: 0x11D24, symBinAddr: 0x14A7CC, symSize: 0x10 }
  - { offset: 0x25BB61, size: 0x8, addend: 0x0, symName: __ZN7gguf_kvC2IfEERKNSt3__112basic_stringIcNS1_11char_traitsIcEENS1_9allocatorIcEEEET_.cold.1, symObjAddr: 0x11D24, symBinAddr: 0x14A7CC, symSize: 0x10 }
  - { offset: 0x25BB7F, size: 0x8, addend: 0x0, symName: __ZN7gguf_kvC2IfEERKNSt3__112basic_stringIcNS1_11char_traitsIcEENS1_9allocatorIcEEEET_.cold.1, symObjAddr: 0x11D24, symBinAddr: 0x14A7CC, symSize: 0x10 }
  - { offset: 0x25BDB2, size: 0x8, addend: 0x0, symName: __ZNSt3__16vectorIbNS_9allocatorIbEEE7reserveEm, symObjAddr: 0xCB64, symBinAddr: 0x995D0, symSize: 0x104 }
  - { offset: 0x25C345, size: 0x8, addend: 0x0, symName: __ZNKSt3__111__copy_implclB9nqe210106INS_6vectorIbNS_9allocatorIbEEEELb1EEENS_4pairINS_14__bit_iteratorIT_XT0_EXLi0EEEENS7_IS8_Lb0EXLi0EEEEEES9_S9_SA_, symObjAddr: 0xD068, symBinAddr: 0x99AD4, symSize: 0x18C }
  - { offset: 0x25C84C, size: 0x8, addend: 0x0, symName: __ZNSt3__16vectorIbNS_9allocatorIbEEE20__throw_length_errorB9nqe210106Ev, symObjAddr: 0xCC68, symBinAddr: 0x996D4, symSize: 0x14 }
  - { offset: 0x25C864, size: 0x8, addend: 0x0, symName: __ZNKSt3__111__copy_implclB9nqe210106INS_6vectorIbNS_9allocatorIbEEEELb0EEENS_4pairINS_14__bit_iteratorIT_XT0_EXLi0EEEENS7_IS8_Lb0EXLi0EEEEEES9_S9_SA_, symObjAddr: 0xCC7C, symBinAddr: 0x996E8, symSize: 0x1A4 }
  - { offset: 0x25C973, size: 0x8, addend: 0x0, symName: __ZNKSt3__111__copy_implclB9nqe210106INS_6vectorIbNS_9allocatorIbEEEELb0EEENS_4pairINS_14__bit_iteratorIT_XT0_EXLi0EEEENS7_IS8_Lb0EXLi0EEEEEES9_S9_SA_, symObjAddr: 0xCC7C, symBinAddr: 0x996E8, symSize: 0x1A4 }
  - { offset: 0x25D2CB, size: 0x8, addend: 0x0, symName: __ZN7gguf_kvC2IbEERKNSt3__112basic_stringIcNS1_11char_traitsIcEENS1_9allocatorIcEEEERKNS1_6vectorIT_NS5_ISB_EEEE.cold.1, symObjAddr: 0x11D34, symBinAddr: 0x14A7DC, symSize: 0x10 }
  - { offset: 0x25D2F3, size: 0x8, addend: 0x0, symName: __ZN7gguf_kvC2IbEERKNSt3__112basic_stringIcNS1_11char_traitsIcEENS1_9allocatorIcEEEERKNS1_6vectorIT_NS5_ISB_EEEE.cold.1, symObjAddr: 0x11D34, symBinAddr: 0x14A7DC, symSize: 0x10 }
  - { offset: 0x25D310, size: 0x8, addend: 0x0, symName: __ZN7gguf_kvC2IbEERKNSt3__112basic_stringIcNS1_11char_traitsIcEENS1_9allocatorIcEEEERKNS1_6vectorIT_NS5_ISB_EEEE.cold.1, symObjAddr: 0x11D34, symBinAddr: 0x14A7DC, symSize: 0x10 }
  - { offset: 0x25D32E, size: 0x8, addend: 0x0, symName: __ZN7gguf_kvC2IbEERKNSt3__112basic_stringIcNS1_11char_traitsIcEENS1_9allocatorIcEEEERKNS1_6vectorIT_NS5_ISB_EEEE.cold.1, symObjAddr: 0x11D34, symBinAddr: 0x14A7DC, symSize: 0x10 }
  - { offset: 0x25D34C, size: 0x8, addend: 0x0, symName: __ZN7gguf_kvC2IbEERKNSt3__112basic_stringIcNS1_11char_traitsIcEENS1_9allocatorIcEEEET_.cold.1, symObjAddr: 0x11D44, symBinAddr: 0x14A7EC, symSize: 0x10 }
  - { offset: 0x25D374, size: 0x8, addend: 0x0, symName: __ZN7gguf_kvC2IbEERKNSt3__112basic_stringIcNS1_11char_traitsIcEENS1_9allocatorIcEEEET_.cold.1, symObjAddr: 0x11D44, symBinAddr: 0x14A7EC, symSize: 0x10 }
  - { offset: 0x25D391, size: 0x8, addend: 0x0, symName: __ZN7gguf_kvC2IbEERKNSt3__112basic_stringIcNS1_11char_traitsIcEENS1_9allocatorIcEEEET_.cold.1, symObjAddr: 0x11D44, symBinAddr: 0x14A7EC, symSize: 0x10 }
  - { offset: 0x25D3AF, size: 0x8, addend: 0x0, symName: __ZN7gguf_kvC2IbEERKNSt3__112basic_stringIcNS1_11char_traitsIcEENS1_9allocatorIcEEEET_.cold.1, symObjAddr: 0x11D44, symBinAddr: 0x14A7EC, symSize: 0x10 }
  - { offset: 0x25D42D, size: 0x8, addend: 0x0, symName: __ZNSt3__16vectorINS_12basic_stringIcNS_11char_traitsIcEENS_9allocatorIcEEEENS4_IS6_EEE8__appendEm, symObjAddr: 0xD9F4, symBinAddr: 0x9A460, symSize: 0x17C }
  - { offset: 0x25DBFE, size: 0x8, addend: 0x0, symName: __ZNSt3__16vectorINS_12basic_stringIcNS_11char_traitsIcEENS_9allocatorIcEEEENS4_IS6_EEE18__assign_with_sizeB9nqe210106IPS6_SA_EEvT_T0_l, symObjAddr: 0xDE3C, symBinAddr: 0x9A830, symSize: 0x2F0 }
  - { offset: 0x25E8DA, size: 0x8, addend: 0x0, symName: __ZN7gguf_kvC2ERKNSt3__112basic_stringIcNS0_11char_traitsIcEENS0_9allocatorIcEEEERKNS0_6vectorIS6_NS4_IS6_EEEE.cold.1, symObjAddr: 0x11D54, symBinAddr: 0x14A7FC, symSize: 0x10 }
  - { offset: 0x25E902, size: 0x8, addend: 0x0, symName: __ZN7gguf_kvC2ERKNSt3__112basic_stringIcNS0_11char_traitsIcEENS0_9allocatorIcEEEERKNS0_6vectorIS6_NS4_IS6_EEEE.cold.1, symObjAddr: 0x11D54, symBinAddr: 0x14A7FC, symSize: 0x10 }
  - { offset: 0x25E91F, size: 0x8, addend: 0x0, symName: __ZN7gguf_kvC2ERKNSt3__112basic_stringIcNS0_11char_traitsIcEENS0_9allocatorIcEEEERKNS0_6vectorIS6_NS4_IS6_EEEE.cold.1, symObjAddr: 0x11D54, symBinAddr: 0x14A7FC, symSize: 0x10 }
  - { offset: 0x25E93D, size: 0x8, addend: 0x0, symName: __ZN7gguf_kvC2ERKNSt3__112basic_stringIcNS0_11char_traitsIcEENS0_9allocatorIcEEEERKNS0_6vectorIS6_NS4_IS6_EEEE.cold.1, symObjAddr: 0x11D54, symBinAddr: 0x14A7FC, symSize: 0x10 }
  - { offset: 0x25EFA4, size: 0x8, addend: 0x0, symName: __ZN7gguf_kvC2ERKNSt3__112basic_stringIcNS0_11char_traitsIcEENS0_9allocatorIcEEEES8_.cold.1, symObjAddr: 0x11D64, symBinAddr: 0x14A80C, symSize: 0x10 }
  - { offset: 0x25EFCC, size: 0x8, addend: 0x0, symName: __ZN7gguf_kvC2ERKNSt3__112basic_stringIcNS0_11char_traitsIcEENS0_9allocatorIcEEEES8_.cold.1, symObjAddr: 0x11D64, symBinAddr: 0x14A80C, symSize: 0x10 }
  - { offset: 0x25EFE9, size: 0x8, addend: 0x0, symName: __ZN7gguf_kvC2ERKNSt3__112basic_stringIcNS0_11char_traitsIcEENS0_9allocatorIcEEEES8_.cold.1, symObjAddr: 0x11D64, symBinAddr: 0x14A80C, symSize: 0x10 }
  - { offset: 0x25F007, size: 0x8, addend: 0x0, symName: __ZN7gguf_kvC2ERKNSt3__112basic_stringIcNS0_11char_traitsIcEENS0_9allocatorIcEEEES8_.cold.1, symObjAddr: 0x11D64, symBinAddr: 0x14A80C, symSize: 0x10 }
  - { offset: 0x25F0C7, size: 0x8, addend: 0x0, symName: __ZN7gguf_kvC2IyEERKNSt3__112basic_stringIcNS1_11char_traitsIcEENS1_9allocatorIcEEEERKNS1_6vectorIT_NS5_ISB_EEEE.cold.1, symObjAddr: 0x11D74, symBinAddr: 0x14A81C, symSize: 0x10 }
  - { offset: 0x25F0EF, size: 0x8, addend: 0x0, symName: __ZN7gguf_kvC2IyEERKNSt3__112basic_stringIcNS1_11char_traitsIcEENS1_9allocatorIcEEEERKNS1_6vectorIT_NS5_ISB_EEEE.cold.1, symObjAddr: 0x11D74, symBinAddr: 0x14A81C, symSize: 0x10 }
  - { offset: 0x25F10C, size: 0x8, addend: 0x0, symName: __ZN7gguf_kvC2IyEERKNSt3__112basic_stringIcNS1_11char_traitsIcEENS1_9allocatorIcEEEERKNS1_6vectorIT_NS5_ISB_EEEE.cold.1, symObjAddr: 0x11D74, symBinAddr: 0x14A81C, symSize: 0x10 }
  - { offset: 0x25F12A, size: 0x8, addend: 0x0, symName: __ZN7gguf_kvC2IyEERKNSt3__112basic_stringIcNS1_11char_traitsIcEENS1_9allocatorIcEEEERKNS1_6vectorIT_NS5_ISB_EEEE.cold.1, symObjAddr: 0x11D74, symBinAddr: 0x14A81C, symSize: 0x10 }
  - { offset: 0x25F148, size: 0x8, addend: 0x0, symName: __ZN7gguf_kvC2IyEERKNSt3__112basic_stringIcNS1_11char_traitsIcEENS1_9allocatorIcEEEET_.cold.1, symObjAddr: 0x11D84, symBinAddr: 0x14A82C, symSize: 0x10 }
  - { offset: 0x25F170, size: 0x8, addend: 0x0, symName: __ZN7gguf_kvC2IyEERKNSt3__112basic_stringIcNS1_11char_traitsIcEENS1_9allocatorIcEEEET_.cold.1, symObjAddr: 0x11D84, symBinAddr: 0x14A82C, symSize: 0x10 }
  - { offset: 0x25F18D, size: 0x8, addend: 0x0, symName: __ZN7gguf_kvC2IyEERKNSt3__112basic_stringIcNS1_11char_traitsIcEENS1_9allocatorIcEEEET_.cold.1, symObjAddr: 0x11D84, symBinAddr: 0x14A82C, symSize: 0x10 }
  - { offset: 0x25F1AB, size: 0x8, addend: 0x0, symName: __ZN7gguf_kvC2IyEERKNSt3__112basic_stringIcNS1_11char_traitsIcEENS1_9allocatorIcEEEET_.cold.1, symObjAddr: 0x11D84, symBinAddr: 0x14A82C, symSize: 0x10 }
  - { offset: 0x25F1E5, size: 0x8, addend: 0x0, symName: __ZN7gguf_kvC2IxEERKNSt3__112basic_stringIcNS1_11char_traitsIcEENS1_9allocatorIcEEEERKNS1_6vectorIT_NS5_ISB_EEEE.cold.1, symObjAddr: 0x11D94, symBinAddr: 0x14A83C, symSize: 0x10 }
  - { offset: 0x25F20D, size: 0x8, addend: 0x0, symName: __ZN7gguf_kvC2IxEERKNSt3__112basic_stringIcNS1_11char_traitsIcEENS1_9allocatorIcEEEERKNS1_6vectorIT_NS5_ISB_EEEE.cold.1, symObjAddr: 0x11D94, symBinAddr: 0x14A83C, symSize: 0x10 }
  - { offset: 0x25F22A, size: 0x8, addend: 0x0, symName: __ZN7gguf_kvC2IxEERKNSt3__112basic_stringIcNS1_11char_traitsIcEENS1_9allocatorIcEEEERKNS1_6vectorIT_NS5_ISB_EEEE.cold.1, symObjAddr: 0x11D94, symBinAddr: 0x14A83C, symSize: 0x10 }
  - { offset: 0x25F248, size: 0x8, addend: 0x0, symName: __ZN7gguf_kvC2IxEERKNSt3__112basic_stringIcNS1_11char_traitsIcEENS1_9allocatorIcEEEERKNS1_6vectorIT_NS5_ISB_EEEE.cold.1, symObjAddr: 0x11D94, symBinAddr: 0x14A83C, symSize: 0x10 }
  - { offset: 0x25F266, size: 0x8, addend: 0x0, symName: __ZN7gguf_kvC2IxEERKNSt3__112basic_stringIcNS1_11char_traitsIcEENS1_9allocatorIcEEEET_.cold.1, symObjAddr: 0x11DA4, symBinAddr: 0x14A84C, symSize: 0x10 }
  - { offset: 0x25F28E, size: 0x8, addend: 0x0, symName: __ZN7gguf_kvC2IxEERKNSt3__112basic_stringIcNS1_11char_traitsIcEENS1_9allocatorIcEEEET_.cold.1, symObjAddr: 0x11DA4, symBinAddr: 0x14A84C, symSize: 0x10 }
  - { offset: 0x25F2AB, size: 0x8, addend: 0x0, symName: __ZN7gguf_kvC2IxEERKNSt3__112basic_stringIcNS1_11char_traitsIcEENS1_9allocatorIcEEEET_.cold.1, symObjAddr: 0x11DA4, symBinAddr: 0x14A84C, symSize: 0x10 }
  - { offset: 0x25F2C9, size: 0x8, addend: 0x0, symName: __ZN7gguf_kvC2IxEERKNSt3__112basic_stringIcNS1_11char_traitsIcEENS1_9allocatorIcEEEET_.cold.1, symObjAddr: 0x11DA4, symBinAddr: 0x14A84C, symSize: 0x10 }
  - { offset: 0x25F303, size: 0x8, addend: 0x0, symName: __ZN7gguf_kvC2IdEERKNSt3__112basic_stringIcNS1_11char_traitsIcEENS1_9allocatorIcEEEERKNS1_6vectorIT_NS5_ISB_EEEE.cold.1, symObjAddr: 0x11DB4, symBinAddr: 0x14A85C, symSize: 0x10 }
  - { offset: 0x25F32B, size: 0x8, addend: 0x0, symName: __ZN7gguf_kvC2IdEERKNSt3__112basic_stringIcNS1_11char_traitsIcEENS1_9allocatorIcEEEERKNS1_6vectorIT_NS5_ISB_EEEE.cold.1, symObjAddr: 0x11DB4, symBinAddr: 0x14A85C, symSize: 0x10 }
  - { offset: 0x25F348, size: 0x8, addend: 0x0, symName: __ZN7gguf_kvC2IdEERKNSt3__112basic_stringIcNS1_11char_traitsIcEENS1_9allocatorIcEEEERKNS1_6vectorIT_NS5_ISB_EEEE.cold.1, symObjAddr: 0x11DB4, symBinAddr: 0x14A85C, symSize: 0x10 }
  - { offset: 0x25F366, size: 0x8, addend: 0x0, symName: __ZN7gguf_kvC2IdEERKNSt3__112basic_stringIcNS1_11char_traitsIcEENS1_9allocatorIcEEEERKNS1_6vectorIT_NS5_ISB_EEEE.cold.1, symObjAddr: 0x11DB4, symBinAddr: 0x14A85C, symSize: 0x10 }
  - { offset: 0x25F384, size: 0x8, addend: 0x0, symName: __ZN7gguf_kvC2IdEERKNSt3__112basic_stringIcNS1_11char_traitsIcEENS1_9allocatorIcEEEET_.cold.1, symObjAddr: 0x11DC4, symBinAddr: 0x14A86C, symSize: 0x10 }
  - { offset: 0x25F3AC, size: 0x8, addend: 0x0, symName: __ZN7gguf_kvC2IdEERKNSt3__112basic_stringIcNS1_11char_traitsIcEENS1_9allocatorIcEEEET_.cold.1, symObjAddr: 0x11DC4, symBinAddr: 0x14A86C, symSize: 0x10 }
  - { offset: 0x25F3C9, size: 0x8, addend: 0x0, symName: __ZN7gguf_kvC2IdEERKNSt3__112basic_stringIcNS1_11char_traitsIcEENS1_9allocatorIcEEEET_.cold.1, symObjAddr: 0x11DC4, symBinAddr: 0x14A86C, symSize: 0x10 }
  - { offset: 0x25F3E7, size: 0x8, addend: 0x0, symName: __ZN7gguf_kvC2IdEERKNSt3__112basic_stringIcNS1_11char_traitsIcEENS1_9allocatorIcEEEET_.cold.1, symObjAddr: 0x11DC4, symBinAddr: 0x14A86C, symSize: 0x10 }
  - { offset: 0x25F626, size: 0x8, addend: 0x0, symName: __ZN16gguf_writer_base5writeERKNSt3__112basic_stringIcNS0_11char_traitsIcEENS0_9allocatorIcEEEE, symObjAddr: 0x11A38, symBinAddr: 0x9E208, symSize: 0x120 }
  - { offset: 0x25F90A, size: 0x8, addend: 0x0, symName: __ZN16gguf_writer_base5writeEPKc, symObjAddr: 0x11B58, symBinAddr: 0x9E328, symSize: 0xFC }
  - { offset: 0x25FE5B, size: 0x8, addend: 0x0, symName: __GLOBAL__sub_I_gguf.cpp, symObjAddr: 0x12EBC, symBinAddr: 0x9E42C, symSize: 0x138 }
  - { offset: 0x25FF30, size: 0x8, addend: 0x0, symName: _OUTLINED_FUNCTION_0, symObjAddr: 0x11DD4, symBinAddr: 0x9E424, symSize: 0x8 }
  - { offset: 0x261CAC, size: 0x8, addend: 0x0, symName: _quantize_row_q8_0, symObjAddr: 0x0, symBinAddr: 0x9E564, symSize: 0x1B8 }
  - { offset: 0x261CBA, size: 0x8, addend: 0x0, symName: _ggml_vec_dot_q4_K_q8_K, symObjAddr: 0x239C, symBinAddr: 0xA0900, symSize: 0x304 }
  - { offset: 0x26218B, size: 0x8, addend: 0x0, symName: _ggml_vec_dot_q5_K_q8_K, symObjAddr: 0x26A0, symBinAddr: 0xA0C04, symSize: 0x388 }
  - { offset: 0x26266B, size: 0x8, addend: 0x0, symName: _ggml_vec_dot_iq2_s_q8_K, symObjAddr: 0x3200, symBinAddr: 0xA1764, symSize: 0x234 }
  - { offset: 0x26268F, size: 0x8, addend: 0x0, symName: _ggml_vec_dot_iq2_s_q8_K.k_mask1, symObjAddr: 0x73C8, symBinAddr: 0x15EF58, symSize: 0x0 }
  - { offset: 0x262AFD, size: 0x8, addend: 0x0, symName: _ggml_vec_dot_iq3_s_q8_K, symObjAddr: 0x365C, symBinAddr: 0xA1BC0, symSize: 0x2D8 }
  - { offset: 0x262B21, size: 0x8, addend: 0x0, symName: _ggml_vec_dot_iq3_s_q8_K.k_mask1, symObjAddr: 0x97E8, symBinAddr: 0x161378, symSize: 0x0 }
  - { offset: 0x262F84, size: 0x8, addend: 0x0, symName: _kvalues_mxfp4, symObjAddr: 0x47B8, symBinAddr: 0x15C348, symSize: 0x0 }
  - { offset: 0x262FC1, size: 0x8, addend: 0x0, symName: _table_b2b_1, symObjAddr: 0x47C8, symBinAddr: 0x15C358, symSize: 0x0 }
  - { offset: 0x262FFF, size: 0x8, addend: 0x0, symName: _table_b2b_0, symObjAddr: 0x4FC8, symBinAddr: 0x15CB58, symSize: 0x0 }
  - { offset: 0x263016, size: 0x8, addend: 0x0, symName: _keven_signs_q2xs, symObjAddr: 0x57C8, symBinAddr: 0x15D358, symSize: 0x0 }
  - { offset: 0x26303C, size: 0x8, addend: 0x0, symName: _iq2xxs_grid, symObjAddr: 0x5BC8, symBinAddr: 0x15D758, symSize: 0x0 }
  - { offset: 0x263053, size: 0x8, addend: 0x0, symName: _iq2xs_grid, symObjAddr: 0x63C8, symBinAddr: 0x15DF58, symSize: 0x0 }
  - { offset: 0x263079, size: 0x8, addend: 0x0, symName: _iq2s_grid, symObjAddr: 0x73E8, symBinAddr: 0x15EF78, symSize: 0x0 }
  - { offset: 0x26309F, size: 0x8, addend: 0x0, symName: _iq3xxs_grid, symObjAddr: 0x93E8, symBinAddr: 0x160F78, symSize: 0x0 }
  - { offset: 0x2630C5, size: 0x8, addend: 0x0, symName: _iq3s_grid, symObjAddr: 0x9808, symBinAddr: 0x161398, symSize: 0x0 }
  - { offset: 0x2630EB, size: 0x8, addend: 0x0, symName: _iq1s_grid, symObjAddr: 0xA008, symBinAddr: 0x161B98, symSize: 0x0 }
  - { offset: 0x263111, size: 0x8, addend: 0x0, symName: _kvalues_iq4nl, symObjAddr: 0xE008, symBinAddr: 0x165B98, symSize: 0x0 }
  - { offset: 0x2633EA, size: 0x8, addend: 0x0, symName: _quantize_row_q8_0, symObjAddr: 0x0, symBinAddr: 0x9E564, symSize: 0x1B8 }
  - { offset: 0x26369D, size: 0x8, addend: 0x0, symName: _quantize_row_q8_1, symObjAddr: 0x1B8, symBinAddr: 0x9E71C, symSize: 0x238 }
  - { offset: 0x263A81, size: 0x8, addend: 0x0, symName: _quantize_row_q8_K, symObjAddr: 0x3F0, symBinAddr: 0x9E954, symSize: 0x4 }
  - { offset: 0x263AC5, size: 0x8, addend: 0x0, symName: _quantize_row_q8_K, symObjAddr: 0x3F0, symBinAddr: 0x9E954, symSize: 0x4 }
  - { offset: 0x263C0F, size: 0x8, addend: 0x0, symName: _ggml_vec_dot_q4_0_q8_0, symObjAddr: 0x3F4, symBinAddr: 0x9E958, symSize: 0x244 }
  - { offset: 0x264195, size: 0x8, addend: 0x0, symName: _ggml_vec_dot_q4_1_q8_1, symObjAddr: 0x638, symBinAddr: 0x9EB9C, symSize: 0x260 }
  - { offset: 0x264824, size: 0x8, addend: 0x0, symName: _ggml_vec_dot_mxfp4_q8_0, symObjAddr: 0x898, symBinAddr: 0x9EDFC, symSize: 0x404 }
  - { offset: 0x264CB9, size: 0x8, addend: 0x0, symName: _ggml_vec_dot_nvfp4_q8_0, symObjAddr: 0xC9C, symBinAddr: 0x9F200, symSize: 0x2C4 }
  - { offset: 0x2650E6, size: 0x8, addend: 0x0, symName: _ggml_vec_dot_q5_0_q8_0, symObjAddr: 0xF60, symBinAddr: 0x9F4C4, symSize: 0x390 }
  - { offset: 0x265727, size: 0x8, addend: 0x0, symName: _ggml_vec_dot_q5_1_q8_1, symObjAddr: 0x12F0, symBinAddr: 0x9F854, symSize: 0x37C }
  - { offset: 0x265E4A, size: 0x8, addend: 0x0, symName: _ggml_vec_dot_q8_0_q8_0, symObjAddr: 0x166C, symBinAddr: 0x9FBD0, symSize: 0x188 }
  - { offset: 0x2662F9, size: 0x8, addend: 0x0, symName: _ggml_vec_dot_tq1_0_q8_K, symObjAddr: 0x17F4, symBinAddr: 0x9FD58, symSize: 0x24C }
  - { offset: 0x266EEB, size: 0x8, addend: 0x0, symName: _ggml_vec_dot_tq2_0_q8_K, symObjAddr: 0x1A40, symBinAddr: 0x9FFA4, symSize: 0x188 }
  - { offset: 0x2673C1, size: 0x8, addend: 0x0, symName: _ggml_vec_dot_q2_K_q8_K, symObjAddr: 0x1BC8, symBinAddr: 0xA012C, symSize: 0x380 }
  - { offset: 0x267985, size: 0x8, addend: 0x0, symName: _ggml_vec_dot_q3_K_q8_K, symObjAddr: 0x1F48, symBinAddr: 0xA04AC, symSize: 0x454 }
  - { offset: 0x267FB3, size: 0x8, addend: 0x0, symName: _ggml_vec_dot_q6_K_q8_K, symObjAddr: 0x2A28, symBinAddr: 0xA0F8C, symSize: 0x3EC }
  - { offset: 0x268563, size: 0x8, addend: 0x0, symName: _ggml_vec_dot_iq2_xxs_q8_K, symObjAddr: 0x2E14, symBinAddr: 0xA1378, symSize: 0x1D0 }
  - { offset: 0x268A02, size: 0x8, addend: 0x0, symName: _ggml_vec_dot_iq2_xs_q8_K, symObjAddr: 0x2FE4, symBinAddr: 0xA1548, symSize: 0x21C }
  - { offset: 0x268FAB, size: 0x8, addend: 0x0, symName: _ggml_vec_dot_iq3_xxs_q8_K, symObjAddr: 0x3434, symBinAddr: 0xA1998, symSize: 0x228 }
  - { offset: 0x2693DE, size: 0x8, addend: 0x0, symName: _ggml_vec_dot_iq1_s_q8_K, symObjAddr: 0x3934, symBinAddr: 0xA1E98, symSize: 0x21C }
  - { offset: 0x2697CE, size: 0x8, addend: 0x0, symName: _ggml_vec_dot_iq1_m_q8_K, symObjAddr: 0x3B50, symBinAddr: 0xA20B4, symSize: 0x298 }
  - { offset: 0x269D17, size: 0x8, addend: 0x0, symName: _ggml_vec_dot_iq4_nl_q8_0, symObjAddr: 0x3DE8, symBinAddr: 0xA234C, symSize: 0x3C0 }
  - { offset: 0x26A156, size: 0x8, addend: 0x0, symName: _ggml_vec_dot_iq4_xs_q8_K, symObjAddr: 0x41A8, symBinAddr: 0xA270C, symSize: 0x2E4 }
  - { offset: 0x26B0BF, size: 0x8, addend: 0x0, symName: _ggml_quantize_mat_q8_0_4x4, symObjAddr: 0x0, symBinAddr: 0xA29F0, symSize: 0x668 }
  - { offset: 0x26B304, size: 0x8, addend: 0x0, symName: _ggml_quantize_mat_q8_0_4x4, symObjAddr: 0x0, symBinAddr: 0xA29F0, symSize: 0x668 }
  - { offset: 0x26B5B0, size: 0x8, addend: 0x0, symName: _ggml_quantize_mat_q8_0_4x8, symObjAddr: 0x668, symBinAddr: 0xA3058, symSize: 0x644 }
  - { offset: 0x26B85C, size: 0x8, addend: 0x0, symName: _ggml_gemv_q4_0_4x4_q8_0, symObjAddr: 0xCAC, symBinAddr: 0xA369C, symSize: 0x4 }
  - { offset: 0x26B912, size: 0x8, addend: 0x0, symName: _ggml_gemv_q4_0_4x4_q8_0, symObjAddr: 0xCAC, symBinAddr: 0xA369C, symSize: 0x4 }
  - { offset: 0x26B9A3, size: 0x8, addend: 0x0, symName: _ggml_gemv_q4_0_4x8_q8_0, symObjAddr: 0xCB0, symBinAddr: 0xA36A0, symSize: 0x4 }
  - { offset: 0x26BA65, size: 0x8, addend: 0x0, symName: _ggml_gemv_q4_0_4x8_q8_0, symObjAddr: 0xCB0, symBinAddr: 0xA36A0, symSize: 0x4 }
  - { offset: 0x26BAD5, size: 0x8, addend: 0x0, symName: _ggml_gemv_q4_0_8x8_q8_0, symObjAddr: 0xCB4, symBinAddr: 0xA36A4, symSize: 0x4 }
  - { offset: 0x26BB97, size: 0x8, addend: 0x0, symName: _ggml_gemv_q4_0_8x8_q8_0, symObjAddr: 0xCB4, symBinAddr: 0xA36A4, symSize: 0x4 }
  - { offset: 0x26BC07, size: 0x8, addend: 0x0, symName: _ggml_gemv_iq4_nl_4x4_q8_0, symObjAddr: 0xCB8, symBinAddr: 0xA36A8, symSize: 0x4 }
  - { offset: 0x26BCC9, size: 0x8, addend: 0x0, symName: _ggml_gemv_iq4_nl_4x4_q8_0, symObjAddr: 0xCB8, symBinAddr: 0xA36A8, symSize: 0x4 }
  - { offset: 0x26BD39, size: 0x8, addend: 0x0, symName: _ggml_gemv_mxfp4_4x4_q8_0, symObjAddr: 0xCBC, symBinAddr: 0xA36AC, symSize: 0x4 }
  - { offset: 0x26BDFB, size: 0x8, addend: 0x0, symName: _ggml_gemv_mxfp4_4x4_q8_0, symObjAddr: 0xCBC, symBinAddr: 0xA36AC, symSize: 0x4 }
  - { offset: 0x26BE6B, size: 0x8, addend: 0x0, symName: _ggml_gemv_q4_K_8x4_q8_K, symObjAddr: 0xCC0, symBinAddr: 0xA36B0, symSize: 0x4 }
  - { offset: 0x26BF2F, size: 0x8, addend: 0x0, symName: _ggml_gemv_q4_K_8x4_q8_K, symObjAddr: 0xCC0, symBinAddr: 0xA36B0, symSize: 0x4 }
  - { offset: 0x26BF9F, size: 0x8, addend: 0x0, symName: _ggml_gemv_q4_K_8x8_q8_K, symObjAddr: 0xCC4, symBinAddr: 0xA36B4, symSize: 0x4 }
  - { offset: 0x26C063, size: 0x8, addend: 0x0, symName: _ggml_gemv_q4_K_8x8_q8_K, symObjAddr: 0xCC4, symBinAddr: 0xA36B4, symSize: 0x4 }
  - { offset: 0x26C0D3, size: 0x8, addend: 0x0, symName: _ggml_gemv_q5_K_8x4_q8_K, symObjAddr: 0xCC8, symBinAddr: 0xA36B8, symSize: 0x4 }
  - { offset: 0x26C197, size: 0x8, addend: 0x0, symName: _ggml_gemv_q5_K_8x4_q8_K, symObjAddr: 0xCC8, symBinAddr: 0xA36B8, symSize: 0x4 }
  - { offset: 0x26C207, size: 0x8, addend: 0x0, symName: _ggml_gemv_q5_K_8x8_q8_K, symObjAddr: 0xCCC, symBinAddr: 0xA36BC, symSize: 0x4 }
  - { offset: 0x26C2CB, size: 0x8, addend: 0x0, symName: _ggml_gemv_q5_K_8x8_q8_K, symObjAddr: 0xCCC, symBinAddr: 0xA36BC, symSize: 0x4 }
  - { offset: 0x26C33B, size: 0x8, addend: 0x0, symName: _ggml_gemv_q6_K_8x4_q8_K, symObjAddr: 0xCD0, symBinAddr: 0xA36C0, symSize: 0x4 }
  - { offset: 0x26C3FF, size: 0x8, addend: 0x0, symName: _ggml_gemv_q6_K_8x4_q8_K, symObjAddr: 0xCD0, symBinAddr: 0xA36C0, symSize: 0x4 }
  - { offset: 0x26C46F, size: 0x8, addend: 0x0, symName: _ggml_gemv_q6_K_8x8_q8_K, symObjAddr: 0xCD4, symBinAddr: 0xA36C4, symSize: 0x4 }
  - { offset: 0x26C533, size: 0x8, addend: 0x0, symName: _ggml_gemv_q6_K_8x8_q8_K, symObjAddr: 0xCD4, symBinAddr: 0xA36C4, symSize: 0x4 }
  - { offset: 0x26C5A3, size: 0x8, addend: 0x0, symName: _ggml_gemv_q8_0_4x4_q8_0, symObjAddr: 0xCD8, symBinAddr: 0xA36C8, symSize: 0x4 }
  - { offset: 0x26C665, size: 0x8, addend: 0x0, symName: _ggml_gemv_q8_0_4x4_q8_0, symObjAddr: 0xCD8, symBinAddr: 0xA36C8, symSize: 0x4 }
  - { offset: 0x26C6D5, size: 0x8, addend: 0x0, symName: _ggml_gemv_q8_0_4x8_q8_0, symObjAddr: 0xCDC, symBinAddr: 0xA36CC, symSize: 0x4 }
  - { offset: 0x26C797, size: 0x8, addend: 0x0, symName: _ggml_gemv_q8_0_4x8_q8_0, symObjAddr: 0xCDC, symBinAddr: 0xA36CC, symSize: 0x4 }
  - { offset: 0x26C807, size: 0x8, addend: 0x0, symName: _ggml_gemm_q4_0_4x4_q8_0, symObjAddr: 0xCE0, symBinAddr: 0xA36D0, symSize: 0x4 }
  - { offset: 0x26C8C9, size: 0x8, addend: 0x0, symName: _ggml_gemm_q4_0_4x4_q8_0, symObjAddr: 0xCE0, symBinAddr: 0xA36D0, symSize: 0x4 }
  - { offset: 0x26C939, size: 0x8, addend: 0x0, symName: _ggml_gemm_q4_0_4x8_q8_0, symObjAddr: 0xCE4, symBinAddr: 0xA36D4, symSize: 0x4 }
  - { offset: 0x26C9FB, size: 0x8, addend: 0x0, symName: _ggml_gemm_q4_0_4x8_q8_0, symObjAddr: 0xCE4, symBinAddr: 0xA36D4, symSize: 0x4 }
  - { offset: 0x26CA6B, size: 0x8, addend: 0x0, symName: _ggml_gemm_q4_0_8x8_q8_0, symObjAddr: 0xCE8, symBinAddr: 0xA36D8, symSize: 0x4 }
  - { offset: 0x26CB2D, size: 0x8, addend: 0x0, symName: _ggml_gemm_q4_0_8x8_q8_0, symObjAddr: 0xCE8, symBinAddr: 0xA36D8, symSize: 0x4 }
  - { offset: 0x26CB9D, size: 0x8, addend: 0x0, symName: _ggml_gemm_iq4_nl_4x4_q8_0, symObjAddr: 0xCEC, symBinAddr: 0xA36DC, symSize: 0x4 }
  - { offset: 0x26CC5F, size: 0x8, addend: 0x0, symName: _ggml_gemm_iq4_nl_4x4_q8_0, symObjAddr: 0xCEC, symBinAddr: 0xA36DC, symSize: 0x4 }
  - { offset: 0x26CCCF, size: 0x8, addend: 0x0, symName: _ggml_gemm_mxfp4_4x4_q8_0, symObjAddr: 0xCF0, symBinAddr: 0xA36E0, symSize: 0x4 }
  - { offset: 0x26CD91, size: 0x8, addend: 0x0, symName: _ggml_gemm_mxfp4_4x4_q8_0, symObjAddr: 0xCF0, symBinAddr: 0xA36E0, symSize: 0x4 }
  - { offset: 0x26CE01, size: 0x8, addend: 0x0, symName: _ggml_gemm_q4_K_8x4_q8_K, symObjAddr: 0xCF4, symBinAddr: 0xA36E4, symSize: 0x4 }
  - { offset: 0x26CEC5, size: 0x8, addend: 0x0, symName: _ggml_gemm_q4_K_8x4_q8_K, symObjAddr: 0xCF4, symBinAddr: 0xA36E4, symSize: 0x4 }
  - { offset: 0x26CF35, size: 0x8, addend: 0x0, symName: _ggml_gemm_q5_K_8x4_q8_K, symObjAddr: 0xCF8, symBinAddr: 0xA36E8, symSize: 0x4 }
  - { offset: 0x26CFF9, size: 0x8, addend: 0x0, symName: _ggml_gemm_q5_K_8x4_q8_K, symObjAddr: 0xCF8, symBinAddr: 0xA36E8, symSize: 0x4 }
  - { offset: 0x26D069, size: 0x8, addend: 0x0, symName: _ggml_gemm_q4_K_8x8_q8_K, symObjAddr: 0xCFC, symBinAddr: 0xA36EC, symSize: 0x4 }
  - { offset: 0x26D12D, size: 0x8, addend: 0x0, symName: _ggml_gemm_q4_K_8x8_q8_K, symObjAddr: 0xCFC, symBinAddr: 0xA36EC, symSize: 0x4 }
  - { offset: 0x26D19D, size: 0x8, addend: 0x0, symName: _ggml_gemm_q5_K_8x8_q8_K, symObjAddr: 0xD00, symBinAddr: 0xA36F0, symSize: 0x4 }
  - { offset: 0x26D261, size: 0x8, addend: 0x0, symName: _ggml_gemm_q5_K_8x8_q8_K, symObjAddr: 0xD00, symBinAddr: 0xA36F0, symSize: 0x4 }
  - { offset: 0x26D2D1, size: 0x8, addend: 0x0, symName: _ggml_gemm_q6_K_8x4_q8_K, symObjAddr: 0xD04, symBinAddr: 0xA36F4, symSize: 0x4 }
  - { offset: 0x26D395, size: 0x8, addend: 0x0, symName: _ggml_gemm_q6_K_8x4_q8_K, symObjAddr: 0xD04, symBinAddr: 0xA36F4, symSize: 0x4 }
  - { offset: 0x26D405, size: 0x8, addend: 0x0, symName: _ggml_gemm_q6_K_8x8_q8_K, symObjAddr: 0xD08, symBinAddr: 0xA36F8, symSize: 0x4 }
  - { offset: 0x26D4C9, size: 0x8, addend: 0x0, symName: _ggml_gemm_q6_K_8x8_q8_K, symObjAddr: 0xD08, symBinAddr: 0xA36F8, symSize: 0x4 }
  - { offset: 0x26D539, size: 0x8, addend: 0x0, symName: _ggml_gemm_q8_0_4x4_q8_0, symObjAddr: 0xD0C, symBinAddr: 0xA36FC, symSize: 0x4 }
  - { offset: 0x26D5FB, size: 0x8, addend: 0x0, symName: _ggml_gemm_q8_0_4x4_q8_0, symObjAddr: 0xD0C, symBinAddr: 0xA36FC, symSize: 0x4 }
  - { offset: 0x26D66B, size: 0x8, addend: 0x0, symName: _ggml_gemm_q8_0_4x8_q8_0, symObjAddr: 0xD10, symBinAddr: 0xA3700, symSize: 0x4 }
  - { offset: 0x26D72D, size: 0x8, addend: 0x0, symName: _ggml_gemm_q8_0_4x8_q8_0, symObjAddr: 0xD10, symBinAddr: 0xA3700, symSize: 0x4 }
  - { offset: 0x270404, size: 0x8, addend: 0x0, symName: _ggml_compute_forward_add_non_quantized, symObjAddr: 0x0, symBinAddr: 0xA3704, symSize: 0x3240 }
  - { offset: 0x2730C3, size: 0x8, addend: 0x0, symName: _ggml_compute_forward_add_non_quantized, symObjAddr: 0x0, symBinAddr: 0xA3704, symSize: 0x3240 }
  - { offset: 0x27510B, size: 0x8, addend: 0x0, symName: _ggml_compute_forward_sub, symObjAddr: 0x3240, symBinAddr: 0xA6944, symSize: 0x3240 }
  - { offset: 0x276B62, size: 0x8, addend: 0x0, symName: _ggml_compute_forward_sub, symObjAddr: 0x3240, symBinAddr: 0xA6944, symSize: 0x3240 }
  - { offset: 0x278BAA, size: 0x8, addend: 0x0, symName: _ggml_compute_forward_mul, symObjAddr: 0x6480, symBinAddr: 0xA9B84, symSize: 0x3240 }
  - { offset: 0x27A57E, size: 0x8, addend: 0x0, symName: _ggml_compute_forward_mul, symObjAddr: 0x6480, symBinAddr: 0xA9B84, symSize: 0x3240 }
  - { offset: 0x27C5C6, size: 0x8, addend: 0x0, symName: _ggml_compute_forward_div, symObjAddr: 0x96C0, symBinAddr: 0xACDC4, symSize: 0x3260 }
  - { offset: 0x27DF9A, size: 0x8, addend: 0x0, symName: _ggml_compute_forward_div, symObjAddr: 0x96C0, symBinAddr: 0xACDC4, symSize: 0x3260 }
  - { offset: 0x281EEB, size: 0x8, addend: 0x0, symName: _ggml_get_type_traits_cpu, symObjAddr: 0x0, symBinAddr: 0xB0024, symSize: 0x14 }
  - { offset: 0x281F05, size: 0x8, addend: 0x0, symName: _ggml_arm_arch_features, symObjAddr: 0x20A9C, symBinAddr: 0x2167B8, symSize: 0x0 }
  - { offset: 0x281F49, size: 0x8, addend: 0x0, symName: _ggml_cpu_init, symObjAddr: 0x3684, symBinAddr: 0xB36A8, symSize: 0x704 }
  - { offset: 0x281F6D, size: 0x8, addend: 0x0, symName: _ggml_cpu_init.is_first_call, symObjAddr: 0x20AA0, symBinAddr: 0x216378, symSize: 0x0 }
  - { offset: 0x282135, size: 0x8, addend: 0x0, symName: _ggml_table_f32_f16, symBinAddr: 0x256BBC, symSize: 0x0 }
  - { offset: 0x282163, size: 0x8, addend: 0x0, symName: _ggml_table_f32_e8m0_half, symBinAddr: 0x2567BC, symSize: 0x0 }
  - { offset: 0x282188, size: 0x8, addend: 0x0, symName: _type_traits_cpu, symObjAddr: 0x6500, symBinAddr: 0x182930, symSize: 0x0 }
  - { offset: 0x2837AF, size: 0x8, addend: 0x0, symName: _ggml_get_type_traits_cpu, symObjAddr: 0x0, symBinAddr: 0xB0024, symSize: 0x14 }
  - { offset: 0x2837E6, size: 0x8, addend: 0x0, symName: _ggml_barrier, symObjAddr: 0x14, symBinAddr: 0xB0038, symSize: 0x68 }
  - { offset: 0x283837, size: 0x8, addend: 0x0, symName: _ggml_threadpool_chunk_set, symObjAddr: 0x7C, symBinAddr: 0xB00A0, symSize: 0x8 }
  - { offset: 0x28386D, size: 0x8, addend: 0x0, symName: _ggml_threadpool_chunk_add, symObjAddr: 0x84, symBinAddr: 0xB00A8, symSize: 0x18 }
  - { offset: 0x2838A9, size: 0x8, addend: 0x0, symName: _ggml_numa_init, symObjAddr: 0x9C, symBinAddr: 0xB00C0, symSize: 0x4 }
  - { offset: 0x2838D0, size: 0x8, addend: 0x0, symName: _ggml_is_numa, symObjAddr: 0xA0, symBinAddr: 0xB00C4, symSize: 0x8 }
  - { offset: 0x2838EB, size: 0x8, addend: 0x0, symName: _ggml_new_i32, symObjAddr: 0xA8, symBinAddr: 0xB00CC, symSize: 0x68 }
  - { offset: 0x283984, size: 0x8, addend: 0x0, symName: _ggml_set_i32, symObjAddr: 0x110, symBinAddr: 0xB0134, symSize: 0x610 }
  - { offset: 0x2839D7, size: 0x8, addend: 0x0, symName: _ggml_set_i32, symObjAddr: 0x110, symBinAddr: 0xB0134, symSize: 0x610 }
  - { offset: 0x283CB7, size: 0x8, addend: 0x0, symName: _ggml_new_f32, symObjAddr: 0x720, symBinAddr: 0xB0744, symSize: 0x70 }
  - { offset: 0x283E88, size: 0x8, addend: 0x0, symName: _ggml_new_f32, symObjAddr: 0x720, symBinAddr: 0xB0744, symSize: 0x70 }
  - { offset: 0x283F21, size: 0x8, addend: 0x0, symName: _ggml_set_f32, symObjAddr: 0x790, symBinAddr: 0xB07B4, symSize: 0x628 }
  - { offset: 0x283F35, size: 0x8, addend: 0x0, symName: _ggml_set_f32, symObjAddr: 0x790, symBinAddr: 0xB07B4, symSize: 0x628 }
  - { offset: 0x284211, size: 0x8, addend: 0x0, symName: _ggml_get_i32_1d, symObjAddr: 0xDB8, symBinAddr: 0xB0DDC, symSize: 0x300 }
  - { offset: 0x2842CE, size: 0x8, addend: 0x0, symName: _ggml_get_i32_1d, symObjAddr: 0xDB8, symBinAddr: 0xB0DDC, symSize: 0x300 }
  - { offset: 0x284441, size: 0x8, addend: 0x0, symName: _ggml_get_i32_nd, symObjAddr: 0x10B8, symBinAddr: 0xB10DC, symSize: 0xCC }
  - { offset: 0x28449D, size: 0x8, addend: 0x0, symName: _ggml_get_i32_nd, symObjAddr: 0x10B8, symBinAddr: 0xB10DC, symSize: 0xCC }
  - { offset: 0x28450E, size: 0x8, addend: 0x0, symName: _ggml_set_i32_1d, symObjAddr: 0x1184, symBinAddr: 0xB11A8, symSize: 0x31C }
  - { offset: 0x2846C4, size: 0x8, addend: 0x0, symName: _ggml_set_i32_1d, symObjAddr: 0x1184, symBinAddr: 0xB11A8, symSize: 0x31C }
  - { offset: 0x28494E, size: 0x8, addend: 0x0, symName: _ggml_set_i32_nd, symObjAddr: 0x14A0, symBinAddr: 0xB14C4, symSize: 0x16C }
  - { offset: 0x284962, size: 0x8, addend: 0x0, symName: _ggml_set_i32_nd, symObjAddr: 0x14A0, symBinAddr: 0xB14C4, symSize: 0x16C }
  - { offset: 0x284B24, size: 0x8, addend: 0x0, symName: _ggml_get_f32_1d, symObjAddr: 0x160C, symBinAddr: 0xB1630, symSize: 0x1E8 }
  - { offset: 0x284BC2, size: 0x8, addend: 0x0, symName: _ggml_get_f32_1d, symObjAddr: 0x160C, symBinAddr: 0xB1630, symSize: 0x1E8 }
  - { offset: 0x284CEB, size: 0x8, addend: 0x0, symName: _ggml_get_f32_nd, symObjAddr: 0x17F4, symBinAddr: 0xB1818, symSize: 0xD8 }
  - { offset: 0x284CFF, size: 0x8, addend: 0x0, symName: _ggml_get_f32_nd, symObjAddr: 0x17F4, symBinAddr: 0xB1818, symSize: 0xD8 }
  - { offset: 0x284D90, size: 0x8, addend: 0x0, symName: _ggml_set_f32_1d, symObjAddr: 0x18CC, symBinAddr: 0xB18F0, symSize: 0x264 }
  - { offset: 0x284DA4, size: 0x8, addend: 0x0, symName: _ggml_set_f32_1d, symObjAddr: 0x18CC, symBinAddr: 0xB18F0, symSize: 0x264 }
  - { offset: 0x284FA7, size: 0x8, addend: 0x0, symName: _ggml_set_f32_nd, symObjAddr: 0x1B30, symBinAddr: 0xB1B54, symSize: 0x16C }
  - { offset: 0x284FBB, size: 0x8, addend: 0x0, symName: _ggml_set_f32_nd, symObjAddr: 0x1B30, symBinAddr: 0xB1B54, symSize: 0x16C }
  - { offset: 0x28517D, size: 0x8, addend: 0x0, symName: _ggml_compute_forward_mul_mat, symObjAddr: 0x1C9C, symBinAddr: 0xB1CC0, symSize: 0xA88 }
  - { offset: 0x285596, size: 0x8, addend: 0x0, symName: _ggml_compute_forward_mul_mat, symObjAddr: 0x1C9C, symBinAddr: 0xB1CC0, symSize: 0xA88 }
  - { offset: 0x285E25, size: 0x8, addend: 0x0, symName: _ggml_threadpool_free, symObjAddr: 0x2724, symBinAddr: 0xB2748, symSize: 0xF4 }
  - { offset: 0x285E7B, size: 0x8, addend: 0x0, symName: _ggml_threadpool_free, symObjAddr: 0x2724, symBinAddr: 0xB2748, symSize: 0xF4 }
  - { offset: 0x285FAC, size: 0x8, addend: 0x0, symName: _ggml_threadpool_pause, symObjAddr: 0x2818, symBinAddr: 0xB283C, symSize: 0x40 }
  - { offset: 0x286082, size: 0x8, addend: 0x0, symName: _ggml_threadpool_pause, symObjAddr: 0x2818, symBinAddr: 0xB283C, symSize: 0x40 }
  - { offset: 0x28611E, size: 0x8, addend: 0x0, symName: _ggml_threadpool_resume, symObjAddr: 0x2858, symBinAddr: 0xB287C, symSize: 0x3C }
  - { offset: 0x2863B8, size: 0x8, addend: 0x0, symName: _ggml_graph_plan, symObjAddr: 0x2894, symBinAddr: 0xB28B8, symSize: 0x780 }
  - { offset: 0x286986, size: 0x8, addend: 0x0, symName: _ggml_threadpool_new, symObjAddr: 0x3014, symBinAddr: 0xB3038, symSize: 0xC }
  - { offset: 0x286C5C, size: 0x8, addend: 0x0, symName: _ggml_threadpool_new, symObjAddr: 0x3014, symBinAddr: 0xB3038, symSize: 0xC }
  - { offset: 0x286CAA, size: 0x8, addend: 0x0, symName: _ggml_threadpool_new_impl, symObjAddr: 0x3020, symBinAddr: 0xB3044, symSize: 0x3F4 }
  - { offset: 0x286FAD, size: 0x8, addend: 0x0, symName: _ggml_graph_compute, symObjAddr: 0x3414, symBinAddr: 0xB3438, symSize: 0x270 }
  - { offset: 0x2872AC, size: 0x8, addend: 0x0, symName: _ggml_graph_compute, symObjAddr: 0x3414, symBinAddr: 0xB3438, symSize: 0x270 }
  - { offset: 0x28751A, size: 0x8, addend: 0x0, symName: _ggml_cpu_init, symObjAddr: 0x3684, symBinAddr: 0xB36A8, symSize: 0x704 }
  - { offset: 0x2875BD, size: 0x8, addend: 0x0, symName: _ggml_graph_compute_thread, symObjAddr: 0x3D88, symBinAddr: 0xB3DAC, symSize: 0x81C }
  - { offset: 0x28871E, size: 0x8, addend: 0x0, symName: _ggml_compute_forward_mul_mat_id, symObjAddr: 0x4F50, symBinAddr: 0xB4F74, symSize: 0xBD0 }
  - { offset: 0x28959D, size: 0x8, addend: 0x0, symName: _ggml_graph_compute_with_ctx, symObjAddr: 0x4724, symBinAddr: 0xB4748, symSize: 0x58 }
  - { offset: 0x289675, size: 0x8, addend: 0x0, symName: _ggml_cpu_fp32_to_fp32, symObjAddr: 0x477C, symBinAddr: 0xB47A0, symSize: 0x14 }
  - { offset: 0x2896C0, size: 0x8, addend: 0x0, symName: _ggml_cpu_fp32_to_fp16, symObjAddr: 0x4790, symBinAddr: 0xB47B4, symSize: 0x19C }
  - { offset: 0x289820, size: 0x8, addend: 0x0, symName: _ggml_cpu_fp16_to_fp32, symObjAddr: 0x492C, symBinAddr: 0xB4950, symSize: 0xC4 }
  - { offset: 0x28988F, size: 0x8, addend: 0x0, symName: _ggml_cpu_fp32_to_bf16, symObjAddr: 0x49F0, symBinAddr: 0xB4A14, symSize: 0xE0 }
  - { offset: 0x2898FE, size: 0x8, addend: 0x0, symName: _ggml_cpu_fp32_to_i32, symObjAddr: 0x4AD0, symBinAddr: 0xB4AF4, symSize: 0x78 }
  - { offset: 0x289954, size: 0x8, addend: 0x0, symName: _ggml_cpu_bf16_to_fp32, symObjAddr: 0x4B48, symBinAddr: 0xB4B6C, symSize: 0xDC }
  - { offset: 0x2899C3, size: 0x8, addend: 0x0, symName: _ggml_cpu_has_avx, symObjAddr: 0x4C24, symBinAddr: 0xB4C48, symSize: 0x8 }
  - { offset: 0x2899DE, size: 0x8, addend: 0x0, symName: _ggml_cpu_has_avx_vnni, symObjAddr: 0x4C2C, symBinAddr: 0xB4C50, symSize: 0x8 }
  - { offset: 0x2899F9, size: 0x8, addend: 0x0, symName: _ggml_cpu_has_avx2, symObjAddr: 0x4C34, symBinAddr: 0xB4C58, symSize: 0x8 }
  - { offset: 0x289A14, size: 0x8, addend: 0x0, symName: _ggml_cpu_has_avx512, symObjAddr: 0x4C3C, symBinAddr: 0xB4C60, symSize: 0x8 }
  - { offset: 0x289A2F, size: 0x8, addend: 0x0, symName: _ggml_cpu_has_avx512_vbmi, symObjAddr: 0x4C44, symBinAddr: 0xB4C68, symSize: 0x8 }
  - { offset: 0x289A4A, size: 0x8, addend: 0x0, symName: _ggml_cpu_has_avx512_vnni, symObjAddr: 0x4C4C, symBinAddr: 0xB4C70, symSize: 0x8 }
  - { offset: 0x289A65, size: 0x8, addend: 0x0, symName: _ggml_cpu_has_avx512_bf16, symObjAddr: 0x4C54, symBinAddr: 0xB4C78, symSize: 0x8 }
  - { offset: 0x289A80, size: 0x8, addend: 0x0, symName: _ggml_cpu_has_amx_int8, symObjAddr: 0x4C5C, symBinAddr: 0xB4C80, symSize: 0x8 }
  - { offset: 0x289A9B, size: 0x8, addend: 0x0, symName: _ggml_cpu_has_bmi2, symObjAddr: 0x4C64, symBinAddr: 0xB4C88, symSize: 0x8 }
  - { offset: 0x289AB6, size: 0x8, addend: 0x0, symName: _ggml_cpu_has_fma, symObjAddr: 0x4C6C, symBinAddr: 0xB4C90, symSize: 0x8 }
  - { offset: 0x289AD1, size: 0x8, addend: 0x0, symName: _ggml_cpu_has_arm_fma, symObjAddr: 0x4C74, symBinAddr: 0xB4C98, symSize: 0x8 }
  - { offset: 0x289AEC, size: 0x8, addend: 0x0, symName: _ggml_cpu_has_riscv_v, symObjAddr: 0x4C7C, symBinAddr: 0xB4CA0, symSize: 0x8 }
  - { offset: 0x289B07, size: 0x8, addend: 0x0, symName: _ggml_cpu_get_rvv_vlen, symObjAddr: 0x4C84, symBinAddr: 0xB4CA8, symSize: 0x8 }
  - { offset: 0x289B22, size: 0x8, addend: 0x0, symName: _ggml_cpu_has_f16c, symObjAddr: 0x4C8C, symBinAddr: 0xB4CB0, symSize: 0x8 }
  - { offset: 0x289B3D, size: 0x8, addend: 0x0, symName: _ggml_cpu_has_fp16_va, symObjAddr: 0x4C94, symBinAddr: 0xB4CB8, symSize: 0x8 }
  - { offset: 0x289B58, size: 0x8, addend: 0x0, symName: _ggml_cpu_has_wasm_simd, symObjAddr: 0x4C9C, symBinAddr: 0xB4CC0, symSize: 0x8 }
  - { offset: 0x289B73, size: 0x8, addend: 0x0, symName: _ggml_cpu_has_llamafile, symObjAddr: 0x4CA4, symBinAddr: 0xB4CC8, symSize: 0x8 }
  - { offset: 0x289B8E, size: 0x8, addend: 0x0, symName: _ggml_cpu_has_sse3, symObjAddr: 0x4CAC, symBinAddr: 0xB4CD0, symSize: 0x8 }
  - { offset: 0x289BA9, size: 0x8, addend: 0x0, symName: _ggml_cpu_has_ssse3, symObjAddr: 0x4CB4, symBinAddr: 0xB4CD8, symSize: 0x8 }
  - { offset: 0x289BC4, size: 0x8, addend: 0x0, symName: _ggml_cpu_has_vsx, symObjAddr: 0x4CBC, symBinAddr: 0xB4CE0, symSize: 0x8 }
  - { offset: 0x289BDF, size: 0x8, addend: 0x0, symName: _ggml_cpu_has_vxe, symObjAddr: 0x4CC4, symBinAddr: 0xB4CE8, symSize: 0x8 }
  - { offset: 0x289BFA, size: 0x8, addend: 0x0, symName: _ggml_cpu_has_neon, symObjAddr: 0x4CCC, symBinAddr: 0xB4CF0, symSize: 0x8 }
  - { offset: 0x289C15, size: 0x8, addend: 0x0, symName: _ggml_cpu_has_dotprod, symObjAddr: 0x4CD4, symBinAddr: 0xB4CF8, symSize: 0x8 }
  - { offset: 0x289C30, size: 0x8, addend: 0x0, symName: _ggml_cpu_has_sve, symObjAddr: 0x4CDC, symBinAddr: 0xB4D00, symSize: 0x8 }
  - { offset: 0x289C4B, size: 0x8, addend: 0x0, symName: _ggml_cpu_has_matmul_int8, symObjAddr: 0x4CE4, symBinAddr: 0xB4D08, symSize: 0x8 }
  - { offset: 0x289C66, size: 0x8, addend: 0x0, symName: _ggml_cpu_get_sve_cnt, symObjAddr: 0x4CEC, symBinAddr: 0xB4D10, symSize: 0x8 }
  - { offset: 0x289C81, size: 0x8, addend: 0x0, symName: _ggml_cpu_has_sme, symObjAddr: 0x4CF4, symBinAddr: 0xB4D18, symSize: 0x8 }
  - { offset: 0x289D7F, size: 0x8, addend: 0x0, symName: _ggml_graph_compute_secondary_thread, symObjAddr: 0x4CFC, symBinAddr: 0xB4D20, symSize: 0x254 }
  - { offset: 0x28A3F1, size: 0x8, addend: 0x0, symName: __Z39ggml_backend_cpu_get_extra_buffer_typesv, symObjAddr: 0x0, symBinAddr: 0xB5B44, symSize: 0x94 }
  - { offset: 0x28A3FF, size: 0x8, addend: 0x0, symName: __Z39ggml_backend_cpu_get_extra_buffer_typesv, symObjAddr: 0x0, symBinAddr: 0xB5B44, symSize: 0x94 }
  - { offset: 0x28A41F, size: 0x8, addend: 0x0, symName: __MergedGlobals.51, symObjAddr: 0x414F8, symBinAddr: 0x216380, symSize: 0x0 }
  - { offset: 0x290059, size: 0x8, addend: 0x0, symName: _ggml_backend_cpu_reg, symObjAddr: 0x2B0, symBinAddr: 0xB5DF4, symSize: 0x1C }
  - { offset: 0x29007A, size: 0x8, addend: 0x0, symName: __MergedGlobals, symObjAddr: 0x38F8, symBinAddr: 0x184390, symSize: 0x0 }
  - { offset: 0x29016F, size: 0x8, addend: 0x0, symName: __ZL18ggml_backend_cpu_i, symObjAddr: 0x3580, symBinAddr: 0x182E50, symSize: 0x0 }
  - { offset: 0x290182, size: 0x8, addend: 0x0, symName: __ZL31ggml_backend_cpu_reg_get_deviceP16ggml_backend_regm, symObjAddr: 0x4C8, symBinAddr: 0xB600C, symSize: 0xF0 }
  - { offset: 0x2901AE, size: 0x8, addend: 0x0, symName: __MergedGlobals.51, symObjAddr: 0x414F8, symBinAddr: 0x216380, symSize: 0x0 }
  - { offset: 0x2901C7, size: 0x8, addend: 0x0, symName: __MergedGlobals.51, symObjAddr: 0x414F8, symBinAddr: 0x216380, symSize: 0x0 }
  - { offset: 0x290283, size: 0x8, addend: 0x0, symName: __ZL25ggml_backend_cpu_device_i, symObjAddr: 0x35F0, symBinAddr: 0x182EC0, symSize: 0x0 }
  - { offset: 0x290296, size: 0x8, addend: 0x0, symName: __ZL46ggml_backend_cpu_device_get_extra_buffers_typeP19ggml_backend_device, symObjAddr: 0x12D8, symBinAddr: 0xB6D80, symSize: 0x94 }
  - { offset: 0x2902C0, size: 0x8, addend: 0x0, symName: __MergedGlobals.51, symObjAddr: 0x414F8, symBinAddr: 0x216380, symSize: 0x0 }
  - { offset: 0x29030D, size: 0x8, addend: 0x0, symName: __ZL29ggml_backend_cpu_get_featuresP16ggml_backend_reg, symObjAddr: 0x136C, symBinAddr: 0xB6E14, symSize: 0x94 }
  - { offset: 0x290339, size: 0x8, addend: 0x0, symName: __MergedGlobals.51, symObjAddr: 0x414F8, symBinAddr: 0x216380, symSize: 0x0 }
  - { offset: 0x29047D, size: 0x8, addend: 0x0, symName: '__ZZL29ggml_backend_cpu_get_featuresP16ggml_backend_regENK3$_0clEv', symObjAddr: 0x15BC, symBinAddr: 0xB7064, symSize: 0x1B5C }
  - { offset: 0x2904A6, size: 0x8, addend: 0x0, symName: __MergedGlobals.51, symObjAddr: 0x414F8, symBinAddr: 0x216380, symSize: 0x0 }
  - { offset: 0x2904C0, size: 0x8, addend: 0x0, symName: __MergedGlobals.51, symObjAddr: 0x414F8, symBinAddr: 0x216380, symSize: 0x0 }
  - { offset: 0x2968C7, size: 0x8, addend: 0x0, symName: '__ZZ39ggml_backend_cpu_get_extra_buffer_typesvENK3$_0clEv', symObjAddr: 0x94, symBinAddr: 0xB5BD8, symSize: 0x12C }
  - { offset: 0x2971B9, size: 0x8, addend: 0x0, symName: __ZNSt3__16vectorIP24ggml_backend_buffer_typeNS_9allocatorIS2_EEE20__throw_length_errorB9nqe210106Ev, symObjAddr: 0x75C, symBinAddr: 0xB62A0, symSize: 0x14 }
  - { offset: 0x2971DC, size: 0x8, addend: 0x0, symName: __ZNSt3__16vectorIP24ggml_backend_buffer_typeNS_9allocatorIS2_EEED1B9nqe210106Ev, symObjAddr: 0x1C0, symBinAddr: 0xB5D04, symSize: 0x34 }
  - { offset: 0x297202, size: 0x8, addend: 0x0, symName: __ZNSt3__16vectorIP24ggml_backend_buffer_typeNS_9allocatorIS2_EEED1B9nqe210106Ev, symObjAddr: 0x1C0, symBinAddr: 0xB5D04, symSize: 0x34 }
  - { offset: 0x297222, size: 0x8, addend: 0x0, symName: __ZNSt3__16vectorIP24ggml_backend_buffer_typeNS_9allocatorIS2_EEED1B9nqe210106Ev, symObjAddr: 0x1C0, symBinAddr: 0xB5D04, symSize: 0x34 }
  - { offset: 0x297306, size: 0x8, addend: 0x0, symName: _ggml_backend_cpu_init, symObjAddr: 0x1F4, symBinAddr: 0xB5D38, symSize: 0xBC }
  - { offset: 0x297394, size: 0x8, addend: 0x0, symName: _ggml_backend_is_cpu, symObjAddr: 0x2CC, symBinAddr: 0xB5E10, symSize: 0x18 }
  - { offset: 0x2973F2, size: 0x8, addend: 0x0, symName: _ggml_backend_cpu_set_n_threads, symObjAddr: 0x2E4, symBinAddr: 0xB5E28, symSize: 0x6C }
  - { offset: 0x29746A, size: 0x8, addend: 0x0, symName: _ggml_backend_cpu_set_threadpool, symObjAddr: 0x350, symBinAddr: 0xB5E94, symSize: 0x80 }
  - { offset: 0x297498, size: 0x8, addend: 0x0, symName: _ggml_backend_cpu_set_threadpool, symObjAddr: 0x350, symBinAddr: 0xB5E94, symSize: 0x80 }
  - { offset: 0x297523, size: 0x8, addend: 0x0, symName: _ggml_backend_cpu_set_abort_callback, symObjAddr: 0x3D0, symBinAddr: 0xB5F14, symSize: 0x78 }
  - { offset: 0x297545, size: 0x8, addend: 0x0, symName: _ggml_backend_cpu_set_abort_callback, symObjAddr: 0x3D0, symBinAddr: 0xB5F14, symSize: 0x78 }
  - { offset: 0x2975D3, size: 0x8, addend: 0x0, symName: _ggml_backend_cpu_set_use_ref, symObjAddr: 0x448, symBinAddr: 0xB5F8C, symSize: 0x6C }
  - { offset: 0x2975E7, size: 0x8, addend: 0x0, symName: _ggml_backend_cpu_set_use_ref, symObjAddr: 0x448, symBinAddr: 0xB5F8C, symSize: 0x6C }
  - { offset: 0x297664, size: 0x8, addend: 0x0, symName: __ZL29ggml_backend_cpu_reg_get_nameP16ggml_backend_reg, symObjAddr: 0x4B4, symBinAddr: 0xB5FF8, symSize: 0xC }
  - { offset: 0x297678, size: 0x8, addend: 0x0, symName: __ZL29ggml_backend_cpu_reg_get_nameP16ggml_backend_reg, symObjAddr: 0x4B4, symBinAddr: 0xB5FF8, symSize: 0xC }
  - { offset: 0x2976A4, size: 0x8, addend: 0x0, symName: __ZL37ggml_backend_cpu_reg_get_device_countP16ggml_backend_reg, symObjAddr: 0x4C0, symBinAddr: 0xB6004, symSize: 0x8 }
  - { offset: 0x2976D0, size: 0x8, addend: 0x0, symName: __ZN31ggml_backend_cpu_device_contextC1Ev, symObjAddr: 0x9C8, symBinAddr: 0xB6470, symSize: 0xB4 }
  - { offset: 0x2979C3, size: 0x8, addend: 0x0, symName: __ZL31ggml_backend_cpu_reg_get_deviceP16ggml_backend_regm.cold.1, symObjAddr: 0x3160, symBinAddr: 0x14A87C, symSize: 0x5C }
  - { offset: 0x2979ED, size: 0x8, addend: 0x0, symName: __ZL33ggml_backend_cpu_get_proc_addressP16ggml_backend_regPKc, symObjAddr: 0x5B8, symBinAddr: 0xB60FC, symSize: 0x1A4 }
  - { offset: 0x297B82, size: 0x8, addend: 0x0, symName: __ZL25ggml_backend_cpu_get_nameP12ggml_backend, symObjAddr: 0x80C, symBinAddr: 0xB62B4, symSize: 0xC }
  - { offset: 0x297BAC, size: 0x8, addend: 0x0, symName: __ZL21ggml_backend_cpu_freeP12ggml_backend, symObjAddr: 0x818, symBinAddr: 0xB62C0, symSize: 0x38 }
  - { offset: 0x297BE7, size: 0x8, addend: 0x0, symName: __ZL34ggml_backend_cpu_graph_plan_createP12ggml_backendPK11ggml_cgraph, symObjAddr: 0x850, symBinAddr: 0xB62F8, symSize: 0xB8 }
  - { offset: 0x297C7F, size: 0x8, addend: 0x0, symName: __ZL32ggml_backend_cpu_graph_plan_freeP12ggml_backendPv, symObjAddr: 0x908, symBinAddr: 0xB63B0, symSize: 0x2C }
  - { offset: 0x297CC5, size: 0x8, addend: 0x0, symName: __ZL35ggml_backend_cpu_graph_plan_computeP12ggml_backendPv, symObjAddr: 0x934, symBinAddr: 0xB63DC, symSize: 0x8 }
  - { offset: 0x297D3F, size: 0x8, addend: 0x0, symName: __ZL30ggml_backend_cpu_graph_computeP12ggml_backendP11ggml_cgraph, symObjAddr: 0x93C, symBinAddr: 0xB63E4, symSize: 0x8C }
  - { offset: 0x298069, size: 0x8, addend: 0x0, symName: __ZN31ggml_backend_cpu_device_contextD1Ev, symObjAddr: 0xA7C, symBinAddr: 0xB6524, symSize: 0x38 }
  - { offset: 0x2980E6, size: 0x8, addend: 0x0, symName: __ZN31ggml_backend_cpu_device_contextD1Ev, symObjAddr: 0xA7C, symBinAddr: 0xB6524, symSize: 0x38 }
  - { offset: 0x2981A1, size: 0x8, addend: 0x0, symName: __ZL32ggml_backend_cpu_device_get_nameP19ggml_backend_device, symObjAddr: 0xAB4, symBinAddr: 0xB655C, symSize: 0xC }
  - { offset: 0x298225, size: 0x8, addend: 0x0, symName: __ZL39ggml_backend_cpu_device_get_descriptionP19ggml_backend_device, symObjAddr: 0xAC0, symBinAddr: 0xB6568, symSize: 0x18 }
  - { offset: 0x2982D7, size: 0x8, addend: 0x0, symName: __ZL34ggml_backend_cpu_device_get_memoryP19ggml_backend_devicePmS1_, symObjAddr: 0xAD8, symBinAddr: 0xB6580, symSize: 0x48 }
  - { offset: 0x298359, size: 0x8, addend: 0x0, symName: __ZL32ggml_backend_cpu_device_get_typeP19ggml_backend_device, symObjAddr: 0xB20, symBinAddr: 0xB65C8, symSize: 0x8 }
  - { offset: 0x2983FE, size: 0x8, addend: 0x0, symName: __ZL33ggml_backend_cpu_device_get_propsP19ggml_backend_deviceP22ggml_backend_dev_props, symObjAddr: 0xB28, symBinAddr: 0xB65D0, symSize: 0x64 }
  - { offset: 0x298591, size: 0x8, addend: 0x0, symName: __ZL36ggml_backend_cpu_device_init_backendP19ggml_backend_devicePKc, symObjAddr: 0xB8C, symBinAddr: 0xB6634, symSize: 0xBC }
  - { offset: 0x298628, size: 0x8, addend: 0x0, symName: __ZL39ggml_backend_cpu_device_get_buffer_typeP19ggml_backend_device, symObjAddr: 0xC48, symBinAddr: 0xB66F0, symSize: 0x4 }
  - { offset: 0x298657, size: 0x8, addend: 0x0, symName: __ZL39ggml_backend_cpu_device_get_buffer_typeP19ggml_backend_device, symObjAddr: 0xC48, symBinAddr: 0xB66F0, symSize: 0x4 }
  - { offset: 0x29866F, size: 0x8, addend: 0x0, symName: __ZL44ggml_backend_cpu_device_buffer_from_host_ptrP19ggml_backend_devicePvmm, symObjAddr: 0xC4C, symBinAddr: 0xB66F4, symSize: 0xC }
  - { offset: 0x298790, size: 0x8, addend: 0x0, symName: __ZL35ggml_backend_cpu_device_supports_opP19ggml_backend_devicePK11ggml_tensor, symObjAddr: 0xC58, symBinAddr: 0xB6700, symSize: 0x5AC }
  - { offset: 0x298A1D, size: 0x8, addend: 0x0, symName: __ZL37ggml_backend_cpu_device_supports_buftP19ggml_backend_deviceP24ggml_backend_buffer_type, symObjAddr: 0x1204, symBinAddr: 0xB6CAC, symSize: 0xD4 }
  - { offset: 0x298B3E, size: 0x8, addend: 0x0, symName: '__ZZL46ggml_backend_cpu_device_get_extra_buffers_typeP19ggml_backend_deviceENK3$_0clEv', symObjAddr: 0x1400, symBinAddr: 0xB6EA8, symSize: 0x1BC }
  - { offset: 0x2998CE, size: 0x8, addend: 0x0, symName: __ZNSt3__16vectorI20ggml_backend_featureNS_9allocatorIS1_EEE20__throw_length_errorB9nqe210106Ev, symObjAddr: 0x314C, symBinAddr: 0xB8BF4, symSize: 0x14 }
  - { offset: 0x2998E6, size: 0x8, addend: 0x0, symName: __ZL31ggml_backend_cpu_reg_get_deviceP16ggml_backend_regm.cold.1, symObjAddr: 0x3160, symBinAddr: 0x14A87C, symSize: 0x5C }
  - { offset: 0x2998F1, size: 0x8, addend: 0x0, symName: __ZNSt3__16vectorI20ggml_backend_featureNS_9allocatorIS1_EEED1B9nqe210106Ev, symObjAddr: 0x3118, symBinAddr: 0xB8BC0, symSize: 0x34 }
  - { offset: 0x299917, size: 0x8, addend: 0x0, symName: __ZNSt3__16vectorI20ggml_backend_featureNS_9allocatorIS1_EEED1B9nqe210106Ev, symObjAddr: 0x3118, symBinAddr: 0xB8BC0, symSize: 0x34 }
  - { offset: 0x299937, size: 0x8, addend: 0x0, symName: __ZNSt3__16vectorI20ggml_backend_featureNS_9allocatorIS1_EEED1B9nqe210106Ev, symObjAddr: 0x3118, symBinAddr: 0xB8BC0, symSize: 0x34 }
  - { offset: 0x29B90A, size: 0x8, addend: 0x0, symName: _ggml_compute_forward_dup, symObjAddr: 0x0, symBinAddr: 0xB8C08, symSize: 0x5D04 }
  - { offset: 0x29B964, size: 0x8, addend: 0x0, symName: __ZNSt3__111__introsortINS_17_ClassicAlgPolicyER11cmp_argsortIL15ggml_sort_order0EEPiLb0EEEvT1_S7_T0_NS_15iterator_traitsIS7_E15difference_typeEb, symObjAddr: 0x30AF4, symBinAddr: 0xE96FC, symSize: 0x878 }
  - { offset: 0x29D6C1, size: 0x8, addend: 0x0, symName: __ZNSt3__127__insertion_sort_incompleteB9nqe210106INS_17_ClassicAlgPolicyER11cmp_argsortIL15ggml_sort_order0EEPiEEbT1_S7_T0_, symObjAddr: 0x31538, symBinAddr: 0xEA140, symSize: 0x320 }
  - { offset: 0x29E203, size: 0x8, addend: 0x0, symName: __ZNSt3__111__introsortINS_17_ClassicAlgPolicyER11cmp_argsortIL15ggml_sort_order1EEPiLb0EEEvT1_S7_T0_NS_15iterator_traitsIS7_E15difference_typeEb, symObjAddr: 0x31BE8, symBinAddr: 0xEA7F0, symSize: 0x878 }
  - { offset: 0x29FF60, size: 0x8, addend: 0x0, symName: __ZNSt3__127__insertion_sort_incompleteB9nqe210106INS_17_ClassicAlgPolicyER11cmp_argsortIL15ggml_sort_order1EEPiEEbT1_S7_T0_, symObjAddr: 0x3262C, symBinAddr: 0xEB234, symSize: 0x320 }
  - { offset: 0x2A10D1, size: 0x8, addend: 0x0, symName: __ZNSt3__119__partial_sort_implB9nqe210106INS_17_ClassicAlgPolicyER9cmp_top_kPiS4_EET1_S5_S5_T2_OT0_, symObjAddr: 0x32CDC, symBinAddr: 0xEB8E4, symSize: 0x390 }
  - { offset: 0x2A1B88, size: 0x8, addend: 0x0, symName: __ZNSt3__17__sort5B9nqe210106INS_17_ClassicAlgPolicyER11cmp_argsortIL15ggml_sort_order0EEPiLi0EEEvT1_S7_S7_S7_S7_T0_, symObjAddr: 0x3136C, symBinAddr: 0xE9F74, symSize: 0x1CC }
  - { offset: 0x2A1BFA, size: 0x8, addend: 0x0, symName: __ZNSt3__17__sort5B9nqe210106INS_17_ClassicAlgPolicyER11cmp_argsortIL15ggml_sort_order0EEPiLi0EEEvT1_S7_S7_S7_S7_T0_, symObjAddr: 0x3136C, symBinAddr: 0xE9F74, symSize: 0x1CC }
  - { offset: 0x2A22D7, size: 0x8, addend: 0x0, symName: __ZNSt3__119__partial_sort_implB9nqe210106INS_17_ClassicAlgPolicyER11cmp_argsortIL15ggml_sort_order0EEPiS6_EET1_S7_S7_T2_OT0_, symObjAddr: 0x31858, symBinAddr: 0xEA460, symSize: 0x390 }
  - { offset: 0x2A2E3E, size: 0x8, addend: 0x0, symName: __ZNSt3__17__sort5B9nqe210106INS_17_ClassicAlgPolicyER11cmp_argsortIL15ggml_sort_order1EEPiLi0EEEvT1_S7_S7_S7_S7_T0_, symObjAddr: 0x32460, symBinAddr: 0xEB068, symSize: 0x1CC }
  - { offset: 0x2A2EB0, size: 0x8, addend: 0x0, symName: __ZNSt3__17__sort5B9nqe210106INS_17_ClassicAlgPolicyER11cmp_argsortIL15ggml_sort_order1EEPiLi0EEEvT1_S7_S7_S7_S7_T0_, symObjAddr: 0x32460, symBinAddr: 0xEB068, symSize: 0x1CC }
  - { offset: 0x2A358D, size: 0x8, addend: 0x0, symName: __ZNSt3__119__partial_sort_implB9nqe210106INS_17_ClassicAlgPolicyER11cmp_argsortIL15ggml_sort_order1EEPiS6_EET1_S7_S7_T2_OT0_, symObjAddr: 0x3294C, symBinAddr: 0xEB554, symSize: 0x390 }
  - { offset: 0x2A72B8, size: 0x8, addend: 0x0, symName: _ggml_compute_forward_dup, symObjAddr: 0x0, symBinAddr: 0xB8C08, symSize: 0x5D04 }
  - { offset: 0x2AA002, size: 0x8, addend: 0x0, symName: __ZL28ggml_compute_forward_dup_fltIftEvPK19ggml_compute_paramsP11ggml_tensor, symObjAddr: 0x5D04, symBinAddr: 0xBE90C, symSize: 0x1124 }
  - { offset: 0x2AA0A5, size: 0x8, addend: 0x0, symName: __ZL28ggml_compute_forward_dup_fltIftEvPK19ggml_compute_paramsP11ggml_tensor, symObjAddr: 0x5D04, symBinAddr: 0xBE90C, symSize: 0x1124 }
  - { offset: 0x2AA8DD, size: 0x8, addend: 0x0, symName: __ZL28ggml_compute_forward_dup_fltIf11ggml_bf16_tEvPK19ggml_compute_paramsP11ggml_tensor, symObjAddr: 0x6E28, symBinAddr: 0xBFA30, symSize: 0x9B4 }
  - { offset: 0x2AA902, size: 0x8, addend: 0x0, symName: __ZL28ggml_compute_forward_dup_fltIf11ggml_bf16_tEvPK19ggml_compute_paramsP11ggml_tensor, symObjAddr: 0x6E28, symBinAddr: 0xBFA30, symSize: 0x9B4 }
  - { offset: 0x2AAEAD, size: 0x8, addend: 0x0, symName: __ZL28ggml_compute_forward_dup_fltIffEvPK19ggml_compute_paramsP11ggml_tensor, symObjAddr: 0x77DC, symBinAddr: 0xC03E4, symSize: 0x5F8 }
  - { offset: 0x2AAF73, size: 0x8, addend: 0x0, symName: __ZL29ggml_compute_forward_dup_to_qIfEvPK19ggml_compute_paramsP11ggml_tensor, symObjAddr: 0x8888, symBinAddr: 0xC1490, symSize: 0x514 }
  - { offset: 0x2AB2F7, size: 0x8, addend: 0x0, symName: _ggml_compute_forward_add, symObjAddr: 0x8D9C, symBinAddr: 0xC19A4, symSize: 0x8D0 }
  - { offset: 0x2AB314, size: 0x8, addend: 0x0, symName: __ZL28ggml_compute_forward_dup_fltIffEvPK19ggml_compute_paramsP11ggml_tensor, symObjAddr: 0x77DC, symBinAddr: 0xC03E4, symSize: 0x5F8 }
  - { offset: 0x2AB831, size: 0x8, addend: 0x0, symName: __ZL28ggml_compute_forward_dup_fltIfiEvPK19ggml_compute_paramsP11ggml_tensor, symObjAddr: 0x7DD4, symBinAddr: 0xC09DC, symSize: 0xAB4 }
  - { offset: 0x2AB856, size: 0x8, addend: 0x0, symName: __ZL28ggml_compute_forward_dup_fltIfiEvPK19ggml_compute_paramsP11ggml_tensor, symObjAddr: 0x7DD4, symBinAddr: 0xC09DC, symSize: 0xAB4 }
  - { offset: 0x2ABDA5, size: 0x8, addend: 0x0, symName: __ZL29ggml_compute_forward_dup_to_qIfEvPK19ggml_compute_paramsP11ggml_tensor, symObjAddr: 0x8888, symBinAddr: 0xC1490, symSize: 0x514 }
  - { offset: 0x2AC0F6, size: 0x8, addend: 0x0, symName: _ggml_compute_forward_add, symObjAddr: 0x8D9C, symBinAddr: 0xC19A4, symSize: 0x8D0 }
  - { offset: 0x2AC53C, size: 0x8, addend: 0x0, symName: _ggml_compute_forward_add_id, symObjAddr: 0x966C, symBinAddr: 0xC2274, symSize: 0x570 }
  - { offset: 0x2AC83F, size: 0x8, addend: 0x0, symName: _ggml_compute_forward_add_id, symObjAddr: 0x966C, symBinAddr: 0xC2274, symSize: 0x570 }
  - { offset: 0x2ACAD3, size: 0x8, addend: 0x0, symName: _ggml_compute_forward_add1, symObjAddr: 0x9BDC, symBinAddr: 0xC27E4, symSize: 0x880 }
  - { offset: 0x2ACEC5, size: 0x8, addend: 0x0, symName: _ggml_compute_forward_add1, symObjAddr: 0x9BDC, symBinAddr: 0xC27E4, symSize: 0x880 }
  - { offset: 0x2AD50D, size: 0x8, addend: 0x0, symName: __ZL33ggml_compute_forward_add1_f16_f16PK19ggml_compute_paramsP11ggml_tensor, symObjAddr: 0xA45C, symBinAddr: 0xC3064, symSize: 0x49C }
  - { offset: 0x2AD534, size: 0x8, addend: 0x0, symName: __ZL35ggml_compute_forward_add1_bf16_bf16PK19ggml_compute_paramsP11ggml_tensor, symObjAddr: 0xAD90, symBinAddr: 0xC3998, symSize: 0x3DC }
  - { offset: 0x2AD8A8, size: 0x8, addend: 0x0, symName: __ZL34ggml_compute_forward_add1_bf16_f32PK19ggml_compute_paramsP11ggml_tensor, symObjAddr: 0xB16C, symBinAddr: 0xC3D74, symSize: 0x3DC }
  - { offset: 0x2AD8E9, size: 0x8, addend: 0x0, symName: __ZL33ggml_compute_forward_add1_f16_f16PK19ggml_compute_paramsP11ggml_tensor, symObjAddr: 0xA45C, symBinAddr: 0xC3064, symSize: 0x49C }
  - { offset: 0x2ADD23, size: 0x8, addend: 0x0, symName: __ZL33ggml_compute_forward_add1_f16_f32PK19ggml_compute_paramsP11ggml_tensor, symObjAddr: 0xA8F8, symBinAddr: 0xC3500, symSize: 0x498 }
  - { offset: 0x2ADD37, size: 0x8, addend: 0x0, symName: __ZL33ggml_compute_forward_add1_f16_f32PK19ggml_compute_paramsP11ggml_tensor, symObjAddr: 0xA8F8, symBinAddr: 0xC3500, symSize: 0x498 }
  - { offset: 0x2AE171, size: 0x8, addend: 0x0, symName: __ZL35ggml_compute_forward_add1_bf16_bf16PK19ggml_compute_paramsP11ggml_tensor, symObjAddr: 0xAD90, symBinAddr: 0xC3998, symSize: 0x3DC }
  - { offset: 0x2AE185, size: 0x8, addend: 0x0, symName: __ZL34ggml_compute_forward_add1_bf16_f32PK19ggml_compute_paramsP11ggml_tensor, symObjAddr: 0xB16C, symBinAddr: 0xC3D74, symSize: 0x3DC }
  - { offset: 0x2AE4F9, size: 0x8, addend: 0x0, symName: _ggml_compute_forward_acc, symObjAddr: 0xB548, symBinAddr: 0xC4150, symSize: 0x374 }
  - { offset: 0x2AE6CD, size: 0x8, addend: 0x0, symName: _ggml_compute_forward_acc, symObjAddr: 0xB548, symBinAddr: 0xC4150, symSize: 0x374 }
  - { offset: 0x2AE9D0, size: 0x8, addend: 0x0, symName: _ggml_compute_forward_sum, symObjAddr: 0xB8BC, symBinAddr: 0xC44C4, symSize: 0x7A4 }
  - { offset: 0x2AEDC1, size: 0x8, addend: 0x0, symName: _ggml_compute_forward_sum, symObjAddr: 0xB8BC, symBinAddr: 0xC44C4, symSize: 0x7A4 }
  - { offset: 0x2AF245, size: 0x8, addend: 0x0, symName: _ggml_compute_forward_cumsum, symObjAddr: 0xC060, symBinAddr: 0xC4C68, symSize: 0x2F0 }
  - { offset: 0x2AF483, size: 0x8, addend: 0x0, symName: _ggml_compute_forward_cumsum, symObjAddr: 0xC060, symBinAddr: 0xC4C68, symSize: 0x2F0 }
  - { offset: 0x2AF709, size: 0x8, addend: 0x0, symName: _ggml_compute_forward_sum_rows, symObjAddr: 0xC350, symBinAddr: 0xC4F58, symSize: 0x28C }
  - { offset: 0x2AF8AE, size: 0x8, addend: 0x0, symName: _ggml_compute_forward_sum_rows, symObjAddr: 0xC350, symBinAddr: 0xC4F58, symSize: 0x28C }
  - { offset: 0x2AFADB, size: 0x8, addend: 0x0, symName: _ggml_compute_forward_mean, symObjAddr: 0xC5DC, symBinAddr: 0xC51E4, symSize: 0x16C }
  - { offset: 0x2AFC41, size: 0x8, addend: 0x0, symName: _ggml_compute_forward_mean, symObjAddr: 0xC5DC, symBinAddr: 0xC51E4, symSize: 0x16C }
